
kernel:     file format elf64-littleriscv


Disassembly of section .text:

0000000080000000 <_entry>:
    80000000:	0000b117          	auipc	sp,0xb
    80000004:	7e013103          	ld	sp,2016(sp) # 8000b7e0 <_GLOBAL_OFFSET_TABLE_+0x20>
    80000008:	00001537          	lui	a0,0x1
    8000000c:	f14025f3          	csrr	a1,mhartid
    80000010:	00158593          	addi	a1,a1,1
    80000014:	02b50533          	mul	a0,a0,a1
    80000018:	00a10133          	add	sp,sp,a0
    8000001c:	434060ef          	jal	ra,80006450 <start>

0000000080000020 <spin>:
    80000020:	0000006f          	j	80000020 <spin>
	...

0000000080001000 <_ZN5Riscv14supervisorTrapEv>:
.type __ZN5Riscv14supervisorTrapEv, @function
_ZN5Riscv14supervisorTrapEv:

    //push registers

    addi sp, sp, -256
    80001000:	f0010113          	addi	sp,sp,-256
    .irp index, 0,1,2,3,4,5,6,7,8,9,10,11,12,13,14,15,16,18,19,20,21,22,23,24,25,26,27,28,29,30,31
    sd x\index, \index * 8(sp)
    .endr
    80001004:	00013023          	sd	zero,0(sp)
    80001008:	00113423          	sd	ra,8(sp)
    8000100c:	00213823          	sd	sp,16(sp)
    80001010:	00313c23          	sd	gp,24(sp)
    80001014:	02413023          	sd	tp,32(sp)
    80001018:	02513423          	sd	t0,40(sp)
    8000101c:	02613823          	sd	t1,48(sp)
    80001020:	02713c23          	sd	t2,56(sp)
    80001024:	04813023          	sd	s0,64(sp)
    80001028:	04913423          	sd	s1,72(sp)
    8000102c:	04a13823          	sd	a0,80(sp)
    80001030:	04b13c23          	sd	a1,88(sp)
    80001034:	06c13023          	sd	a2,96(sp)
    80001038:	06d13423          	sd	a3,104(sp)
    8000103c:	06e13823          	sd	a4,112(sp)
    80001040:	06f13c23          	sd	a5,120(sp)
    80001044:	09013023          	sd	a6,128(sp)
    80001048:	09213823          	sd	s2,144(sp)
    8000104c:	09313c23          	sd	s3,152(sp)
    80001050:	0b413023          	sd	s4,160(sp)
    80001054:	0b513423          	sd	s5,168(sp)
    80001058:	0b613823          	sd	s6,176(sp)
    8000105c:	0b713c23          	sd	s7,184(sp)
    80001060:	0d813023          	sd	s8,192(sp)
    80001064:	0d913423          	sd	s9,200(sp)
    80001068:	0da13823          	sd	s10,208(sp)
    8000106c:	0db13c23          	sd	s11,216(sp)
    80001070:	0fc13023          	sd	t3,224(sp)
    80001074:	0fd13423          	sd	t4,232(sp)
    80001078:	0fe13823          	sd	t5,240(sp)
    8000107c:	0ff13c23          	sd	t6,248(sp)


    call _ZN5Riscv20handleSupervisorTrapEv
    80001080:	33c010ef          	jal	ra,800023bc <_ZN5Riscv20handleSupervisorTrapEv>

    // pop registers

    .irp index, 0,1,2,3,4,5,6,7,8,9,10,11,12,13,14,15,16,18,19,20,21,22,23,24,25,26,27,28,29,30,31
    ld x\index, \index * 8(sp)
    .endr
    80001084:	00013003          	ld	zero,0(sp)
    80001088:	00813083          	ld	ra,8(sp)
    8000108c:	01013103          	ld	sp,16(sp)
    80001090:	01813183          	ld	gp,24(sp)
    80001094:	02013203          	ld	tp,32(sp)
    80001098:	02813283          	ld	t0,40(sp)
    8000109c:	03013303          	ld	t1,48(sp)
    800010a0:	03813383          	ld	t2,56(sp)
    800010a4:	04013403          	ld	s0,64(sp)
    800010a8:	04813483          	ld	s1,72(sp)
    800010ac:	05013503          	ld	a0,80(sp)
    800010b0:	05813583          	ld	a1,88(sp)
    800010b4:	06013603          	ld	a2,96(sp)
    800010b8:	06813683          	ld	a3,104(sp)
    800010bc:	07013703          	ld	a4,112(sp)
    800010c0:	07813783          	ld	a5,120(sp)
    800010c4:	08013803          	ld	a6,128(sp)
    800010c8:	09013903          	ld	s2,144(sp)
    800010cc:	09813983          	ld	s3,152(sp)
    800010d0:	0a013a03          	ld	s4,160(sp)
    800010d4:	0a813a83          	ld	s5,168(sp)
    800010d8:	0b013b03          	ld	s6,176(sp)
    800010dc:	0b813b83          	ld	s7,184(sp)
    800010e0:	0c013c03          	ld	s8,192(sp)
    800010e4:	0c813c83          	ld	s9,200(sp)
    800010e8:	0d013d03          	ld	s10,208(sp)
    800010ec:	0d813d83          	ld	s11,216(sp)
    800010f0:	0e013e03          	ld	t3,224(sp)
    800010f4:	0e813e83          	ld	t4,232(sp)
    800010f8:	0f013f03          	ld	t5,240(sp)
    800010fc:	0f813f83          	ld	t6,248(sp)
    addi sp, sp, 256
    80001100:	10010113          	addi	sp,sp,256

    80001104:	10200073          	sret
	...

0000000080001110 <_ZN3TCB13contextSwitchEPNS_7ContextES1_>:
.global _ZN3TCB13contextSwitchEPNS_7ContextES1_
.type _ZN3TCB13contextSwitchEPNS_7ContextES1_, @function
_ZN3TCB13contextSwitchEPNS_7ContextES1_:
    sd ra, 0 * 8(a0)
    80001110:	00153023          	sd	ra,0(a0) # 1000 <_entry-0x7ffff000>
    sd sp, 1 * 8(a0)
    80001114:	00253423          	sd	sp,8(a0)

    ld ra, 0 * 8(a1)
    80001118:	0005b083          	ld	ra,0(a1)
    ld sp, 1 * 8(a1)
    8000111c:	0085b103          	ld	sp,8(a1)

    ret
    80001120:	00008067          	ret

0000000080001124 <copy_and_swap>:
# a1 holds expected value
# a2 holds desired value
# a0 holds return value, 0 if successful, !0 otherwise
.global copy_and_swap
copy_and_swap:
    lr.w t0, (a0)          # Load original value.
    80001124:	100522af          	lr.w	t0,(a0)
    bne t0, a1, fail       # Doesn’t match, so fail.
    80001128:	00b29a63          	bne	t0,a1,8000113c <fail>
    sc.w t0, a2, (a0)      # Try to update.
    8000112c:	18c522af          	sc.w	t0,a2,(a0)
    bnez t0, copy_and_swap # Retry if store-conditional failed.
    80001130:	fe029ae3          	bnez	t0,80001124 <copy_and_swap>
    li a0, 0               # Set return to success.
    80001134:	00000513          	li	a0,0
    jr ra                  # Return.
    80001138:	00008067          	ret

000000008000113c <fail>:
    fail:
    li a0, 1               # Set return to failure.
    8000113c:	00100513          	li	a0,1
    80001140:	00008067          	ret

0000000080001144 <_Z9mem_allocm>:
#include "../lib/hw.h"
#include "../h/syscall_codes.h"


// mem_alloc i mem_free implementacija
void* mem_alloc(size_t size){
    80001144:	ff010113          	addi	sp,sp,-16
    80001148:	00813423          	sd	s0,8(sp)
    8000114c:	01010413          	addi	s0,sp,16
    size_t blocks = (size + sizeof(size_t))/ MEM_BLOCK_SIZE;
    80001150:	00850793          	addi	a5,a0,8
    80001154:	0067d713          	srli	a4,a5,0x6

    if(size + sizeof(size_t) - blocks * MEM_BLOCK_SIZE > 0){
    80001158:	fc07f793          	andi	a5,a5,-64
    8000115c:	40f50533          	sub	a0,a0,a5
    80001160:	ff800793          	li	a5,-8
    80001164:	00f50463          	beq	a0,a5,8000116c <_Z9mem_allocm+0x28>
        blocks++;
    80001168:	00170713          	addi	a4,a4,1
    }

    __asm__ volatile("mv a1, %0" : : "r" (blocks));
    8000116c:	00070593          	mv	a1,a4

    __asm__ volatile("mv a0, %0" : : "r" (SyscallCodes::MEM_ALLOC));
    80001170:	00100793          	li	a5,1
    80001174:	00078513          	mv	a0,a5

    __asm__ volatile("ecall");
    80001178:	00000073          	ecall

    void *res;
    __asm__ volatile ("mv %0, a0" : "=r" (res));
    8000117c:	00050513          	mv	a0,a0
    return res;
}
    80001180:	00813403          	ld	s0,8(sp)
    80001184:	01010113          	addi	sp,sp,16
    80001188:	00008067          	ret

000000008000118c <_Z8mem_freePv>:

int mem_free(void* ptr){
    8000118c:	ff010113          	addi	sp,sp,-16
    80001190:	00813423          	sd	s0,8(sp)
    80001194:	01010413          	addi	s0,sp,16

    __asm__ volatile("mv a1, %0": : "r" (ptr));
    80001198:	00050593          	mv	a1,a0

    __asm__ volatile("mv a0, %0" : : "r" (SyscallCodes::MEM_FREE));
    8000119c:	00200793          	li	a5,2
    800011a0:	00078513          	mv	a0,a5

    __asm__ volatile("ecall");
    800011a4:	00000073          	ecall

    int res;
    __asm__ volatile("mv %0, a0" : "=r" (res));
    800011a8:	00050513          	mv	a0,a0
    return res;

}
    800011ac:	0005051b          	sext.w	a0,a0
    800011b0:	00813403          	ld	s0,8(sp)
    800011b4:	01010113          	addi	sp,sp,16
    800011b8:	00008067          	ret

00000000800011bc <_Z13thread_createPP3TCBPFvPvES2_>:
// THREAD f-je
int thread_create (thread_t* handle, void(*start_routine)(void*) , void* arg ) {
    800011bc:	fc010113          	addi	sp,sp,-64
    800011c0:	02113c23          	sd	ra,56(sp)
    800011c4:	02813823          	sd	s0,48(sp)
    800011c8:	02913423          	sd	s1,40(sp)
    800011cc:	03213023          	sd	s2,32(sp)
    800011d0:	01313c23          	sd	s3,24(sp)
    800011d4:	04010413          	addi	s0,sp,64
    800011d8:	00050493          	mv	s1,a0
    800011dc:	00058913          	mv	s2,a1
    800011e0:	00060993          	mv	s3,a2

    // Alociranje mem za stek
    void* volatile stack_space = mem_alloc(DEFAULT_STACK_SIZE);
    800011e4:	00001537          	lui	a0,0x1
    800011e8:	00000097          	auipc	ra,0x0
    800011ec:	f5c080e7          	jalr	-164(ra) # 80001144 <_Z9mem_allocm>
    800011f0:	fca43423          	sd	a0,-56(s0)
    // Greska pri alokaciji steka
    if(!stack_space) {
    800011f4:	fc843783          	ld	a5,-56(s0)
    800011f8:	06078263          	beqz	a5,8000125c <_Z13thread_createPP3TCBPFvPvES2_+0xa0>
        return -1;
    }

    __asm__ volatile("mv a4, %0" : : "r" (stack_space));
    800011fc:	fc843783          	ld	a5,-56(s0)
    80001200:	00078713          	mv	a4,a5

    __asm__ volatile("mv a3, %0" : : "r" (arg));
    80001204:	00098693          	mv	a3,s3

    __asm__ volatile("mv a2, %0" : : "r" (start_routine));
    80001208:	00090613          	mv	a2,s2

    __asm__ volatile("mv a1, %0" : : "r" (handle));
    8000120c:	00048593          	mv	a1,s1

    __asm__ volatile("mv a0, %0" : : "r" (SyscallCodes::THREAD_CREATE));
    80001210:	01100793          	li	a5,17
    80001214:	00078513          	mv	a0,a5

    __asm__ volatile("ecall");
    80001218:	00000073          	ecall


    int res;
    __asm__ volatile ("mv %0, a0" : "=r" (res));
    8000121c:	00050493          	mv	s1,a0
    80001220:	0004849b          	sext.w	s1,s1

    // ako je neuspesno kreirana nit, dealociraj stek
    if(res == -1){
    80001224:	fff00793          	li	a5,-1
    80001228:	02f48263          	beq	s1,a5,8000124c <_Z13thread_createPP3TCBPFvPvES2_+0x90>
        mem_free(stack_space);
    }


    return res;
}
    8000122c:	00048513          	mv	a0,s1
    80001230:	03813083          	ld	ra,56(sp)
    80001234:	03013403          	ld	s0,48(sp)
    80001238:	02813483          	ld	s1,40(sp)
    8000123c:	02013903          	ld	s2,32(sp)
    80001240:	01813983          	ld	s3,24(sp)
    80001244:	04010113          	addi	sp,sp,64
    80001248:	00008067          	ret
        mem_free(stack_space);
    8000124c:	fc843503          	ld	a0,-56(s0)
    80001250:	00000097          	auipc	ra,0x0
    80001254:	f3c080e7          	jalr	-196(ra) # 8000118c <_Z8mem_freePv>
    80001258:	fd5ff06f          	j	8000122c <_Z13thread_createPP3TCBPFvPvES2_+0x70>
        return -1;
    8000125c:	fff00493          	li	s1,-1
    80001260:	fcdff06f          	j	8000122c <_Z13thread_createPP3TCBPFvPvES2_+0x70>

0000000080001264 <_Z28thread_create_but_dont_startPP3TCBPFvPvES2_>:

int thread_create_but_dont_start(thread_t* handle, void(*start_routine)(void*) , void* arg ) {
    80001264:	fc010113          	addi	sp,sp,-64
    80001268:	02113c23          	sd	ra,56(sp)
    8000126c:	02813823          	sd	s0,48(sp)
    80001270:	02913423          	sd	s1,40(sp)
    80001274:	03213023          	sd	s2,32(sp)
    80001278:	01313c23          	sd	s3,24(sp)
    8000127c:	04010413          	addi	s0,sp,64
    80001280:	00050493          	mv	s1,a0
    80001284:	00058913          	mv	s2,a1
    80001288:	00060993          	mv	s3,a2
    // Alociranje mem za stek
    void* volatile stack_space = mem_alloc(DEFAULT_STACK_SIZE);
    8000128c:	00001537          	lui	a0,0x1
    80001290:	00000097          	auipc	ra,0x0
    80001294:	eb4080e7          	jalr	-332(ra) # 80001144 <_Z9mem_allocm>
    80001298:	fca43423          	sd	a0,-56(s0)
    // Greska pri alokaciji steka
    if(!stack_space) {
    8000129c:	fc843783          	ld	a5,-56(s0)
    800012a0:	06078263          	beqz	a5,80001304 <_Z28thread_create_but_dont_startPP3TCBPFvPvES2_+0xa0>
        return -1;
    }

    __asm__ volatile("mv a4, %0" : : "r" (stack_space));
    800012a4:	fc843783          	ld	a5,-56(s0)
    800012a8:	00078713          	mv	a4,a5

    __asm__ volatile("mv a3, %0" : : "r" (arg));
    800012ac:	00098693          	mv	a3,s3

    __asm__ volatile("mv a2, %0" : : "r" (start_routine));
    800012b0:	00090613          	mv	a2,s2

    __asm__ volatile("mv a1, %0" : : "r" (handle));
    800012b4:	00048593          	mv	a1,s1

    __asm__ volatile("mv a0, %0" : : "r" (SyscallCodes::THREAD_CREATE_BUT_NO_START));
    800012b8:	01000793          	li	a5,16
    800012bc:	00078513          	mv	a0,a5

    __asm__ volatile("ecall");
    800012c0:	00000073          	ecall


    int res;
    __asm__ volatile ("mv %0, a0" : "=r" (res));
    800012c4:	00050493          	mv	s1,a0
    800012c8:	0004849b          	sext.w	s1,s1

    // ako je neuspesno kreirana nit, dealociraj stek
    if(res == -1){
    800012cc:	fff00793          	li	a5,-1
    800012d0:	02f48263          	beq	s1,a5,800012f4 <_Z28thread_create_but_dont_startPP3TCBPFvPvES2_+0x90>
        mem_free(stack_space);
    }


    return res;
}
    800012d4:	00048513          	mv	a0,s1
    800012d8:	03813083          	ld	ra,56(sp)
    800012dc:	03013403          	ld	s0,48(sp)
    800012e0:	02813483          	ld	s1,40(sp)
    800012e4:	02013903          	ld	s2,32(sp)
    800012e8:	01813983          	ld	s3,24(sp)
    800012ec:	04010113          	addi	sp,sp,64
    800012f0:	00008067          	ret
        mem_free(stack_space);
    800012f4:	fc843503          	ld	a0,-56(s0)
    800012f8:	00000097          	auipc	ra,0x0
    800012fc:	e94080e7          	jalr	-364(ra) # 8000118c <_Z8mem_freePv>
    80001300:	fd5ff06f          	j	800012d4 <_Z28thread_create_but_dont_startPP3TCBPFvPvES2_+0x70>
        return -1;
    80001304:	fff00493          	li	s1,-1
    80001308:	fcdff06f          	j	800012d4 <_Z28thread_create_but_dont_startPP3TCBPFvPvES2_+0x70>

000000008000130c <_Z12thread_startP3TCB>:

void thread_start (thread_t handle){
    8000130c:	ff010113          	addi	sp,sp,-16
    80001310:	00813423          	sd	s0,8(sp)
    80001314:	01010413          	addi	s0,sp,16

    __asm__ volatile("mv a1, %0" : : "r" (handle));
    80001318:	00050593          	mv	a1,a0

    __asm__ volatile("mv a0, %0" : : "r" (SyscallCodes::THREAD_START));
    8000131c:	01400793          	li	a5,20
    80001320:	00078513          	mv	a0,a5

    __asm__ volatile("ecall");
    80001324:	00000073          	ecall

}
    80001328:	00813403          	ld	s0,8(sp)
    8000132c:	01010113          	addi	sp,sp,16
    80001330:	00008067          	ret

0000000080001334 <_Z15thread_dispatchv>:

void thread_dispatch() {
    80001334:	ff010113          	addi	sp,sp,-16
    80001338:	00813423          	sd	s0,8(sp)
    8000133c:	01010413          	addi	s0,sp,16
    __asm__ volatile("mv a0, %0" : : "r" (SyscallCodes::THREAD_DISPATCH));
    80001340:	01300793          	li	a5,19
    80001344:	00078513          	mv	a0,a5

    __asm__ volatile("ecall");
    80001348:	00000073          	ecall
}
    8000134c:	00813403          	ld	s0,8(sp)
    80001350:	01010113          	addi	sp,sp,16
    80001354:	00008067          	ret

0000000080001358 <_Z11thread_exitv>:

int thread_exit() {
    80001358:	ff010113          	addi	sp,sp,-16
    8000135c:	00813423          	sd	s0,8(sp)
    80001360:	01010413          	addi	s0,sp,16

    __asm__ volatile("mv a0, %0" : : "r" (SyscallCodes::THREAD_EXIT));
    80001364:	01200793          	li	a5,18
    80001368:	00078513          	mv	a0,a5

    __asm__ volatile("ecall");
    8000136c:	00000073          	ecall

    int res;
    __asm__ volatile ("mv %0, a0" : "=r" (res));
    80001370:	00050513          	mv	a0,a0
    return res;

}
    80001374:	0005051b          	sext.w	a0,a0
    80001378:	00813403          	ld	s0,8(sp)
    8000137c:	01010113          	addi	sp,sp,16
    80001380:	00008067          	ret

0000000080001384 <_Z11getThreadIdv>:

int getThreadId() {
    80001384:	ff010113          	addi	sp,sp,-16
    80001388:	00813423          	sd	s0,8(sp)
    8000138c:	01010413          	addi	s0,sp,16
    __asm__ volatile("mv a0, %0" : : "r" (SyscallCodes::THREAD_GET_ID));
    80001390:	01500793          	li	a5,21
    80001394:	00078513          	mv	a0,a5

    __asm__ volatile("ecall");
    80001398:	00000073          	ecall

    int res;
    __asm__ volatile ("mv %0, a0" : "=r" (res));
    8000139c:	00050513          	mv	a0,a0
    return res;
}
    800013a0:	0005051b          	sext.w	a0,a0
    800013a4:	00813403          	ld	s0,8(sp)
    800013a8:	01010113          	addi	sp,sp,16
    800013ac:	00008067          	ret

00000000800013b0 <_Z13setMaxThreadsi>:

void setMaxThreads(int max) {
    800013b0:	ff010113          	addi	sp,sp,-16
    800013b4:	00813423          	sd	s0,8(sp)
    800013b8:	01010413          	addi	s0,sp,16

    __asm__ volatile("mv a1, %0" : : "r" (max));
    800013bc:	00050593          	mv	a1,a0

    __asm__ volatile("mv a0, %0" : : "r" (SyscallCodes::THREAD_SET_MAX));
    800013c0:	01600793          	li	a5,22
    800013c4:	00078513          	mv	a0,a5

    __asm__ volatile("ecall");
    800013c8:	00000073          	ecall

}
    800013cc:	00813403          	ld	s0,8(sp)
    800013d0:	01010113          	addi	sp,sp,16
    800013d4:	00008067          	ret

00000000800013d8 <_Z11thread_joinP3TCB>:

void thread_join(thread_t handle) {
    800013d8:	ff010113          	addi	sp,sp,-16
    800013dc:	00813423          	sd	s0,8(sp)
    800013e0:	01010413          	addi	s0,sp,16

    __asm__ volatile("mv a1, %0" : : "r" (handle));
    800013e4:	00050593          	mv	a1,a0

    __asm__ volatile("mv a0, %0" : : "r" (SyscallCodes::THREAD_JOIN));
    800013e8:	01700793          	li	a5,23
    800013ec:	00078513          	mv	a0,a5

    __asm__ volatile("ecall");
    800013f0:	00000073          	ecall

}
    800013f4:	00813403          	ld	s0,8(sp)
    800013f8:	01010113          	addi	sp,sp,16
    800013fc:	00008067          	ret

0000000080001400 <_Z12barrier_openP3TCB>:

void barrier_open(thread_t handle) {
    80001400:	ff010113          	addi	sp,sp,-16
    80001404:	00813423          	sd	s0,8(sp)
    80001408:	01010413          	addi	s0,sp,16

    __asm__ volatile("mv a1, %0" : : "r" (handle));
    8000140c:	00050593          	mv	a1,a0

    __asm__ volatile("mv a0, %0" : : "r" (SyscallCodes::BARRIER_OPEN));
    80001410:	01800793          	li	a5,24
    80001414:	00078513          	mv	a0,a5

    __asm__ volatile("ecall");
    80001418:	00000073          	ecall

}
    8000141c:	00813403          	ld	s0,8(sp)
    80001420:	01010113          	addi	sp,sp,16
    80001424:	00008067          	ret

0000000080001428 <_Z13barrier_closeP3TCB>:

void barrier_close(thread_t handle) {
    80001428:	ff010113          	addi	sp,sp,-16
    8000142c:	00813423          	sd	s0,8(sp)
    80001430:	01010413          	addi	s0,sp,16

    __asm__ volatile("mv a1, %0" : : "r" (handle));
    80001434:	00050593          	mv	a1,a0

    __asm__ volatile("mv a0, %0" : : "r" (SyscallCodes::BARRIER_CLOSE));
    80001438:	02000793          	li	a5,32
    8000143c:	00078513          	mv	a0,a5

    __asm__ volatile("ecall");
    80001440:	00000073          	ecall

}
    80001444:	00813403          	ld	s0,8(sp)
    80001448:	01010113          	addi	sp,sp,16
    8000144c:	00008067          	ret

0000000080001450 <_Z12barrier_passP3TCB>:

void barrier_pass(thread_t handle) {
    80001450:	ff010113          	addi	sp,sp,-16
    80001454:	00813423          	sd	s0,8(sp)
    80001458:	01010413          	addi	s0,sp,16

    __asm__ volatile("mv a1, %0" : : "r" (handle));
    8000145c:	00050593          	mv	a1,a0

    __asm__ volatile("mv a0, %0" : : "r" (SyscallCodes::BARRIER_PASS));
    80001460:	01900793          	li	a5,25
    80001464:	00078513          	mv	a0,a5

    __asm__ volatile("ecall");
    80001468:	00000073          	ecall

}
    8000146c:	00813403          	ld	s0,8(sp)
    80001470:	01010113          	addi	sp,sp,16
    80001474:	00008067          	ret

0000000080001478 <_Z8sem_openPP3semj>:


int sem_open(sem_t* handle, unsigned init) {
    80001478:	ff010113          	addi	sp,sp,-16
    8000147c:	00813423          	sd	s0,8(sp)
    80001480:	01010413          	addi	s0,sp,16

    __asm__ volatile("mv a2, %0" : : "r" (init));
    80001484:	00058613          	mv	a2,a1

    __asm__ volatile("mv a1, %0" : : "r" (handle));
    80001488:	00050593          	mv	a1,a0

    __asm__ volatile("mv a0, %0" : : "r" (SyscallCodes::SEM_OPEN));
    8000148c:	02100793          	li	a5,33
    80001490:	00078513          	mv	a0,a5


    __asm__ volatile("ecall");
    80001494:	00000073          	ecall

    int res;
    __asm__ volatile ("mv %0, a0" : "=r" (res));
    80001498:	00050513          	mv	a0,a0
    return res;

}
    8000149c:	0005051b          	sext.w	a0,a0
    800014a0:	00813403          	ld	s0,8(sp)
    800014a4:	01010113          	addi	sp,sp,16
    800014a8:	00008067          	ret

00000000800014ac <_Z9sem_closeP3sem>:

int sem_close (sem_t handle) {
    800014ac:	ff010113          	addi	sp,sp,-16
    800014b0:	00813423          	sd	s0,8(sp)
    800014b4:	01010413          	addi	s0,sp,16

    __asm__ volatile("mv a1, %0" : : "r" (handle));
    800014b8:	00050593          	mv	a1,a0

    __asm__ volatile("mv a0, %0" : : "r" (SyscallCodes::SEM_CLOSE));
    800014bc:	02200793          	li	a5,34
    800014c0:	00078513          	mv	a0,a5

    __asm__ volatile("ecall");
    800014c4:	00000073          	ecall

    int res;
    __asm__ volatile ("mv %0, a0" : "=r" (res));
    800014c8:	00050513          	mv	a0,a0
    return res;
}
    800014cc:	0005051b          	sext.w	a0,a0
    800014d0:	00813403          	ld	s0,8(sp)
    800014d4:	01010113          	addi	sp,sp,16
    800014d8:	00008067          	ret

00000000800014dc <_Z8sem_waitP3sem>:

int sem_wait (sem_t id){
    800014dc:	ff010113          	addi	sp,sp,-16
    800014e0:	00813423          	sd	s0,8(sp)
    800014e4:	01010413          	addi	s0,sp,16

    __asm__ volatile("mv a1, %0" : : "r" (id));
    800014e8:	00050593          	mv	a1,a0

    __asm__ volatile("mv a0, %0" : : "r" (SyscallCodes::SEM_WAIT));
    800014ec:	02300793          	li	a5,35
    800014f0:	00078513          	mv	a0,a5

    __asm__ volatile("ecall");
    800014f4:	00000073          	ecall

    int res;
    __asm__ volatile ("mv %0, a0" : "=r" (res));
    800014f8:	00050513          	mv	a0,a0
    return res;
}
    800014fc:	0005051b          	sext.w	a0,a0
    80001500:	00813403          	ld	s0,8(sp)
    80001504:	01010113          	addi	sp,sp,16
    80001508:	00008067          	ret

000000008000150c <_Z10sem_signalP3sem>:

int sem_signal (sem_t id){
    8000150c:	ff010113          	addi	sp,sp,-16
    80001510:	00813423          	sd	s0,8(sp)
    80001514:	01010413          	addi	s0,sp,16

    __asm__ volatile("mv a1, %0" : : "r" (id));
    80001518:	00050593          	mv	a1,a0

    __asm__ volatile("mv a0, %0" : : "r" (SyscallCodes::SEM_SIGNAL));
    8000151c:	02400793          	li	a5,36
    80001520:	00078513          	mv	a0,a5

    __asm__ volatile("ecall");
    80001524:	00000073          	ecall

    int res;
    __asm__ volatile ("mv %0, a0" : "=r" (res));
    80001528:	00050513          	mv	a0,a0
    return res;
}
    8000152c:	0005051b          	sext.w	a0,a0
    80001530:	00813403          	ld	s0,8(sp)
    80001534:	01010113          	addi	sp,sp,16
    80001538:	00008067          	ret

000000008000153c <_Z11sem_trywaitP3sem>:

int sem_trywait(sem_t id){
    8000153c:	ff010113          	addi	sp,sp,-16
    80001540:	00813423          	sd	s0,8(sp)
    80001544:	01010413          	addi	s0,sp,16


    __asm__ volatile("mv a1, %0" : : "r" (id));
    80001548:	00050593          	mv	a1,a0

    __asm__ volatile("mv a0, %0" : : "r" (SyscallCodes::SEM_TRYWAIT));
    8000154c:	02600793          	li	a5,38
    80001550:	00078513          	mv	a0,a5

    __asm__ volatile("ecall");
    80001554:	00000073          	ecall

    int res;
    __asm__ volatile ("mv %0, a0" : "=r" (res));
    80001558:	00050513          	mv	a0,a0
    return res;
}
    8000155c:	0005051b          	sext.w	a0,a0
    80001560:	00813403          	ld	s0,8(sp)
    80001564:	01010113          	addi	sp,sp,16
    80001568:	00008067          	ret

000000008000156c <_Z4getcv>:

char getc() {
    8000156c:	ff010113          	addi	sp,sp,-16
    80001570:	00813423          	sd	s0,8(sp)
    80001574:	01010413          	addi	s0,sp,16

    __asm__ volatile("mv a0, %0" : : "r" (SyscallCodes::GET_C));
    80001578:	04100793          	li	a5,65
    8000157c:	00078513          	mv	a0,a5

    __asm__ volatile("ecall");
    80001580:	00000073          	ecall

    char res;
    __asm__ volatile ("mv %0, a0" : "=r" (res));
    80001584:	00050513          	mv	a0,a0
    return res;

}
    80001588:	0ff57513          	andi	a0,a0,255
    8000158c:	00813403          	ld	s0,8(sp)
    80001590:	01010113          	addi	sp,sp,16
    80001594:	00008067          	ret

0000000080001598 <_Z4putcc>:

void putc(char c) {
    80001598:	ff010113          	addi	sp,sp,-16
    8000159c:	00813423          	sd	s0,8(sp)
    800015a0:	01010413          	addi	s0,sp,16

    __asm__ volatile("mv a1, %0" : : "r" (c));
    800015a4:	00050593          	mv	a1,a0

    __asm__ volatile("mv a0, %0" : : "r" (SyscallCodes::PUT_C));
    800015a8:	04200793          	li	a5,66
    800015ac:	00078513          	mv	a0,a5

    __asm__ volatile("ecall");
    800015b0:	00000073          	ecall
}
    800015b4:	00813403          	ld	s0,8(sp)
    800015b8:	01010113          	addi	sp,sp,16
    800015bc:	00008067          	ret

00000000800015c0 <_Z8userMainv>:
// #include "../test/ConsumerProducer_CPP_API_test.hpp"
// #include "System_Mode_test.hpp"

#endif

void userMain() {
    800015c0:	fe010113          	addi	sp,sp,-32
    800015c4:	00113c23          	sd	ra,24(sp)
    800015c8:	00813823          	sd	s0,16(sp)
    800015cc:	00913423          	sd	s1,8(sp)
    800015d0:	01213023          	sd	s2,0(sp)
    800015d4:	02010413          	addi	s0,sp,32
    printString("Unesite broj testa? [1-7]\n");
    800015d8:	00008517          	auipc	a0,0x8
    800015dc:	a4850513          	addi	a0,a0,-1464 # 80009020 <CONSOLE_STATUS+0x10>
    800015e0:	00004097          	auipc	ra,0x4
    800015e4:	ea0080e7          	jalr	-352(ra) # 80005480 <_Z11printStringPKc>
    int test = getc() - '0';
    800015e8:	00000097          	auipc	ra,0x0
    800015ec:	f84080e7          	jalr	-124(ra) # 8000156c <_Z4getcv>
    800015f0:	00050913          	mv	s2,a0
    800015f4:	fd05049b          	addiw	s1,a0,-48
    getc(); // Enter posle broja
    800015f8:	00000097          	auipc	ra,0x0
    800015fc:	f74080e7          	jalr	-140(ra) # 8000156c <_Z4getcv>
            printString("Nije navedeno da je zadatak 3 implementiran\n");
            return;
        }
    }

    if (test >= 5 && test <= 6) {
    80001600:	fcb9091b          	addiw	s2,s2,-53
    80001604:	00100793          	li	a5,1
    80001608:	0327f463          	bgeu	a5,s2,80001630 <_Z8userMainv+0x70>
            printString("Nije navedeno da je zadatak 4 implementiran\n");
            return;
        }
    }

    switch (test) {
    8000160c:	00900793          	li	a5,9
    80001610:	1097e063          	bltu	a5,s1,80001710 <_Z8userMainv+0x150>
    80001614:	00249493          	slli	s1,s1,0x2
    80001618:	00008717          	auipc	a4,0x8
    8000161c:	c6870713          	addi	a4,a4,-920 # 80009280 <CONSOLE_STATUS+0x270>
    80001620:	00e484b3          	add	s1,s1,a4
    80001624:	0004a783          	lw	a5,0(s1)
    80001628:	00e787b3          	add	a5,a5,a4
    8000162c:	00078067          	jr	a5
            printString("Nije navedeno da je zadatak 4 implementiran\n");
    80001630:	00008517          	auipc	a0,0x8
    80001634:	a1050513          	addi	a0,a0,-1520 # 80009040 <CONSOLE_STATUS+0x30>
    80001638:	00004097          	auipc	ra,0x4
    8000163c:	e48080e7          	jalr	-440(ra) # 80005480 <_Z11printStringPKc>
            return;
    80001640:	0e00006f          	j	80001720 <_Z8userMainv+0x160>
        case 1:
#if LEVEL_2_IMPLEMENTED == 1
            Threads_C_API_test();
    80001644:	00003097          	auipc	ra,0x3
    80001648:	f78080e7          	jalr	-136(ra) # 800045bc <_Z18Threads_C_API_testv>
            printString("TEST 1 (zadatak 2, niti C API i sinhrona promena konteksta)\n");
    8000164c:	00008517          	auipc	a0,0x8
    80001650:	a2450513          	addi	a0,a0,-1500 # 80009070 <CONSOLE_STATUS+0x60>
    80001654:	00004097          	auipc	ra,0x4
    80001658:	e2c080e7          	jalr	-468(ra) # 80005480 <_Z11printStringPKc>
#endif
            break;
    8000165c:	0c40006f          	j	80001720 <_Z8userMainv+0x160>
            case 2:
#if LEVEL_2_IMPLEMENTED == 1
            Threads_CPP_API_test();
    80001660:	00002097          	auipc	ra,0x2
    80001664:	160080e7          	jalr	352(ra) # 800037c0 <_Z20Threads_CPP_API_testv>
            printString("TEST 2 (zadatak 2., niti CPP API i sinhrona promena konteksta)\n");
    80001668:	00008517          	auipc	a0,0x8
    8000166c:	a4850513          	addi	a0,a0,-1464 # 800090b0 <CONSOLE_STATUS+0xa0>
    80001670:	00004097          	auipc	ra,0x4
    80001674:	e10080e7          	jalr	-496(ra) # 80005480 <_Z11printStringPKc>
#endif
            break;
    80001678:	0a80006f          	j	80001720 <_Z8userMainv+0x160>
        case 3:
#if LEVEL_3_IMPLEMENTED == 1
            producerConsumer_C_API();
    8000167c:	00002097          	auipc	ra,0x2
    80001680:	998080e7          	jalr	-1640(ra) # 80003014 <_Z22producerConsumer_C_APIv>
            printString("TEST 3 (zadatak 3., kompletan C API sa semaforima, sinhrona promena konteksta)\n");
    80001684:	00008517          	auipc	a0,0x8
    80001688:	a6c50513          	addi	a0,a0,-1428 # 800090f0 <CONSOLE_STATUS+0xe0>
    8000168c:	00004097          	auipc	ra,0x4
    80001690:	df4080e7          	jalr	-524(ra) # 80005480 <_Z11printStringPKc>
#endif
            break;
    80001694:	08c0006f          	j	80001720 <_Z8userMainv+0x160>
        case 4:
#if LEVEL_3_IMPLEMENTED == 1
            producerConsumer_CPP_Sync_API();
    80001698:	00003097          	auipc	ra,0x3
    8000169c:	268080e7          	jalr	616(ra) # 80004900 <_Z29producerConsumer_CPP_Sync_APIv>
            printString("TEST 4 (zadatak 3., kompletan CPP API sa semaforima, sinhrona promena konteksta)\n");
    800016a0:	00008517          	auipc	a0,0x8
    800016a4:	aa050513          	addi	a0,a0,-1376 # 80009140 <CONSOLE_STATUS+0x130>
    800016a8:	00004097          	auipc	ra,0x4
    800016ac:	dd8080e7          	jalr	-552(ra) # 80005480 <_Z11printStringPKc>
#endif
            break;
    800016b0:	0700006f          	j	80001720 <_Z8userMainv+0x160>
            printString("TEST 6 (zadatak 4. CPP API i asinhrona promena konteksta)\n");
#endif
            break;
        case 7:
#if LEVEL_2_IMPLEMENTED == 1
            System_Mode_test();
    800016b4:	00005097          	auipc	ra,0x5
    800016b8:	980080e7          	jalr	-1664(ra) # 80006034 <_Z16System_Mode_testv>
            printString("Test se nije uspesno zavrsio\n");
    800016bc:	00008517          	auipc	a0,0x8
    800016c0:	adc50513          	addi	a0,a0,-1316 # 80009198 <CONSOLE_STATUS+0x188>
    800016c4:	00004097          	auipc	ra,0x4
    800016c8:	dbc080e7          	jalr	-580(ra) # 80005480 <_Z11printStringPKc>
            printString("TEST 7 (zadatak 2., testiranje da li se korisnicki kod izvrsava u korisnickom rezimu)\n");
    800016cc:	00008517          	auipc	a0,0x8
    800016d0:	aec50513          	addi	a0,a0,-1300 # 800091b8 <CONSOLE_STATUS+0x1a8>
    800016d4:	00004097          	auipc	ra,0x4
    800016d8:	dac080e7          	jalr	-596(ra) # 80005480 <_Z11printStringPKc>
#endif
            break;
    800016dc:	0440006f          	j	80001720 <_Z8userMainv+0x160>
        case 8:
#if LEVEL_3_IMPLEMENTED == 1
            get_thread_id();
    800016e0:	00004097          	auipc	ra,0x4
    800016e4:	af8080e7          	jalr	-1288(ra) # 800051d8 <_Z13get_thread_idv>
            printString("TEST get thread id radi super! \n");
    800016e8:	00008517          	auipc	a0,0x8
    800016ec:	b2850513          	addi	a0,a0,-1240 # 80009210 <CONSOLE_STATUS+0x200>
    800016f0:	00004097          	auipc	ra,0x4
    800016f4:	d90080e7          	jalr	-624(ra) # 80005480 <_Z11printStringPKc>
#endif
        case 9:
#if LEVEL_3_IMPLEMENTED == 1
            join_thread();
    800016f8:	00002097          	auipc	ra,0x2
    800016fc:	740080e7          	jalr	1856(ra) # 80003e38 <_Z11join_threadv>
            printString("TEST join thread radi super! \n");
    80001700:	00008517          	auipc	a0,0x8
    80001704:	b3850513          	addi	a0,a0,-1224 # 80009238 <CONSOLE_STATUS+0x228>
    80001708:	00004097          	auipc	ra,0x4
    8000170c:	d78080e7          	jalr	-648(ra) # 80005480 <_Z11printStringPKc>
#endif
        default:
            printString("Niste uneli odgovarajuci broj za test\n");
    80001710:	00008517          	auipc	a0,0x8
    80001714:	b4850513          	addi	a0,a0,-1208 # 80009258 <CONSOLE_STATUS+0x248>
    80001718:	00004097          	auipc	ra,0x4
    8000171c:	d68080e7          	jalr	-664(ra) # 80005480 <_Z11printStringPKc>
    }
    80001720:	01813083          	ld	ra,24(sp)
    80001724:	01013403          	ld	s0,16(sp)
    80001728:	00813483          	ld	s1,8(sp)
    8000172c:	00013903          	ld	s2,0(sp)
    80001730:	02010113          	addi	sp,sp,32
    80001734:	00008067          	ret

0000000080001738 <_Z41__static_initialization_and_destruction_0ii>:
void Barrier::open() {
    key = 1; if(owner->isBarriered()) {
        owner->setBarriered(false);
        Scheduler::put(owner);
    }
    80001738:	ff010113          	addi	sp,sp,-16
    8000173c:	00813423          	sd	s0,8(sp)
    80001740:	01010413          	addi	s0,sp,16
    80001744:	00100793          	li	a5,1
    80001748:	00f50863          	beq	a0,a5,80001758 <_Z41__static_initialization_and_destruction_0ii+0x20>
    8000174c:	00813403          	ld	s0,8(sp)
    80001750:	01010113          	addi	sp,sp,16
    80001754:	00008067          	ret
    80001758:	000107b7          	lui	a5,0x10
    8000175c:	fff78793          	addi	a5,a5,-1 # ffff <_entry-0x7fff0001>
    80001760:	fef596e3          	bne	a1,a5,8000174c <_Z41__static_initialization_and_destruction_0ii+0x14>
    };

    Elem *head, *tail;


    List() : head(0), tail(0) {}
    80001764:	0000a797          	auipc	a5,0xa
    80001768:	0fc78793          	addi	a5,a5,252 # 8000b860 <_ZN3TCB8capacityE>
    8000176c:	0007b023          	sd	zero,0(a5)
    80001770:	0007b423          	sd	zero,8(a5)
    80001774:	fd9ff06f          	j	8000174c <_Z41__static_initialization_and_destruction_0ii+0x14>

0000000080001778 <_ZN3TCBC1EPFvPvES0_S0_>:
TCB::TCB(Body start_routine, void* arg, void*stack_space):
    80001778:	fd010113          	addi	sp,sp,-48
    8000177c:	02113423          	sd	ra,40(sp)
    80001780:	02813023          	sd	s0,32(sp)
    80001784:	00913c23          	sd	s1,24(sp)
    80001788:	01213823          	sd	s2,16(sp)
    8000178c:	01313423          	sd	s3,8(sp)
    80001790:	01413023          	sd	s4,0(sp)
    80001794:	03010413          	addi	s0,sp,48
    80001798:	00050493          	mv	s1,a0
    8000179c:	00058993          	mv	s3,a1
    800017a0:	00060a13          	mv	s4,a2
    800017a4:	00068913          	mv	s2,a3
    barrier(new Barrier(1, this)),
    800017a8:	01000513          	li	a0,16
    800017ac:	00000097          	auipc	ra,0x0
    800017b0:	710080e7          	jalr	1808(ra) # 80001ebc <_Znwm>
    static uint64 constexpr STACK_SIZE = DEFAULT_STACK_SIZE;
};

class Barrier {
public:
    Barrier (int open, TCB* owner){ key = open; owner = owner;};
    800017b4:	00100793          	li	a5,1
    800017b8:	00f52423          	sw	a5,8(a0)
    myID(id++)
    800017bc:	00a4b023          	sd	a0,0(s1)
    800017c0:	0134b423          	sd	s3,8(s1)
    800017c4:	0144b823          	sd	s4,16(s1)
    stack_space(start_routine != nullptr ? stack_space:nullptr),
    800017c8:	06098c63          	beqz	s3,80001840 <_ZN3TCBC1EPFvPvES0_S0_+0xc8>
    800017cc:	00090793          	mv	a5,s2
    myID(id++)
    800017d0:	00f4bc23          	sd	a5,24(s1)
    800017d4:	00000797          	auipc	a5,0x0
    800017d8:	3bc78793          	addi	a5,a5,956 # 80001b90 <_ZN3TCB13threadWrapperEv>
    800017dc:	02f4b023          	sd	a5,32(s1)
            stack_space != nullptr ? (uint64) stack_space + STACK_SIZE : 0}),
    800017e0:	06090463          	beqz	s2,80001848 <_ZN3TCBC1EPFvPvES0_S0_+0xd0>
    800017e4:	000016b7          	lui	a3,0x1
    800017e8:	00d90933          	add	s2,s2,a3
    myID(id++)
    800017ec:	0324b423          	sd	s2,40(s1)
    800017f0:	02048823          	sb	zero,48(s1)
    800017f4:	020488a3          	sb	zero,49(s1)
    800017f8:	02048923          	sb	zero,50(s1)
    800017fc:	020489a3          	sb	zero,51(s1)
    80001800:	0000a717          	auipc	a4,0xa
    80001804:	06070713          	addi	a4,a4,96 # 8000b860 <_ZN3TCB8capacityE>
    80001808:	01072783          	lw	a5,16(a4)
    8000180c:	0017869b          	addiw	a3,a5,1
    80001810:	00d72823          	sw	a3,16(a4)
    80001814:	02f4aa23          	sw	a5,52(s1)
    80001818:	0204bc23          	sd	zero,56(s1)
    8000181c:	0404b023          	sd	zero,64(s1)
}
    80001820:	02813083          	ld	ra,40(sp)
    80001824:	02013403          	ld	s0,32(sp)
    80001828:	01813483          	ld	s1,24(sp)
    8000182c:	01013903          	ld	s2,16(sp)
    80001830:	00813983          	ld	s3,8(sp)
    80001834:	00013a03          	ld	s4,0(sp)
    80001838:	03010113          	addi	sp,sp,48
    8000183c:	00008067          	ret
    stack_space(start_routine != nullptr ? stack_space:nullptr),
    80001840:	00000793          	li	a5,0
    80001844:	f8dff06f          	j	800017d0 <_ZN3TCBC1EPFvPvES0_S0_+0x58>
            stack_space != nullptr ? (uint64) stack_space + STACK_SIZE : 0}),
    80001848:	00000913          	li	s2,0
    8000184c:	fa1ff06f          	j	800017ec <_ZN3TCBC1EPFvPvES0_S0_+0x74>

0000000080001850 <_ZN3TCB13thread_createEPFvPvES0_S0_>:
TCB* TCB::thread_create(Body start_routine, void* arg, void* stack_space){
    80001850:	fd010113          	addi	sp,sp,-48
    80001854:	02113423          	sd	ra,40(sp)
    80001858:	02813023          	sd	s0,32(sp)
    8000185c:	00913c23          	sd	s1,24(sp)
    80001860:	01213823          	sd	s2,16(sp)
    80001864:	01313423          	sd	s3,8(sp)
    80001868:	01413023          	sd	s4,0(sp)
    8000186c:	03010413          	addi	s0,sp,48
    80001870:	00050913          	mv	s2,a0
    80001874:	00058993          	mv	s3,a1
    80001878:	00060a13          	mv	s4,a2
        return memoryAllocator::allocate(blocks);
    8000187c:	00200513          	li	a0,2
    80001880:	00000097          	auipc	ra,0x0
    80001884:	47c080e7          	jalr	1148(ra) # 80001cfc <_ZN15memoryAllocator8allocateEm>
    80001888:	00050493          	mv	s1,a0
    TCB* newThread = new TCB(start_routine, arg, stack_space);
    8000188c:	000a0693          	mv	a3,s4
    80001890:	00098613          	mv	a2,s3
    80001894:	00090593          	mv	a1,s2
    80001898:	00000097          	auipc	ra,0x0
    8000189c:	ee0080e7          	jalr	-288(ra) # 80001778 <_ZN3TCBC1EPFvPvES0_S0_>
    800018a0:	0200006f          	j	800018c0 <_ZN3TCB13thread_createEPFvPvES0_S0_+0x70>
    800018a4:	00050913          	mv	s2,a0
        memoryAllocator::deallocate(ptr);
    800018a8:	00048513          	mv	a0,s1
    800018ac:	00000097          	auipc	ra,0x0
    800018b0:	510080e7          	jalr	1296(ra) # 80001dbc <_ZN15memoryAllocator10deallocateEPv>
    800018b4:	00090513          	mv	a0,s2
    800018b8:	0000b097          	auipc	ra,0xb
    800018bc:	120080e7          	jalr	288(ra) # 8000c9d8 <_Unwind_Resume>
}
    800018c0:	00048513          	mv	a0,s1
    800018c4:	02813083          	ld	ra,40(sp)
    800018c8:	02013403          	ld	s0,32(sp)
    800018cc:	01813483          	ld	s1,24(sp)
    800018d0:	01013903          	ld	s2,16(sp)
    800018d4:	00813983          	ld	s3,8(sp)
    800018d8:	00013a03          	ld	s4,0(sp)
    800018dc:	03010113          	addi	sp,sp,48
    800018e0:	00008067          	ret

00000000800018e4 <_ZN3TCB5yieldEv>:
{
    800018e4:	ff010113          	addi	sp,sp,-16
    800018e8:	00813423          	sd	s0,8(sp)
    800018ec:	01010413          	addi	s0,sp,16
    __asm__ volatile("mv a0, %0" : : "r"(SyscallCodes::THREAD_DISPATCH));
    800018f0:	01300793          	li	a5,19
    800018f4:	00078513          	mv	a0,a5
    __asm__ volatile("ecall");
    800018f8:	00000073          	ecall
}
    800018fc:	00813403          	ld	s0,8(sp)
    80001900:	01010113          	addi	sp,sp,16
    80001904:	00008067          	ret

0000000080001908 <_ZN3TCB15thread_dispatchEv>:
{
    80001908:	fe010113          	addi	sp,sp,-32
    8000190c:	00113c23          	sd	ra,24(sp)
    80001910:	00813823          	sd	s0,16(sp)
    80001914:	00913423          	sd	s1,8(sp)
    80001918:	01213023          	sd	s2,0(sp)
    8000191c:	02010413          	addi	s0,sp,32
    TCB *old = running;
    80001920:	0000a497          	auipc	s1,0xa
    80001924:	f584b483          	ld	s1,-168(s1) # 8000b878 <_ZN3TCB7runningE>
    bool isFinished() const { return finished; }
    80001928:	0304c783          	lbu	a5,48(s1)
    if (!old->isFinished() && !old->isBlocked() && !old->isSuspended() && !old->isBarriered()) {
    8000192c:	00079e63          	bnez	a5,80001948 <_ZN3TCB15thread_dispatchEv+0x40>
    bool isBlocked() const { return blocked; }
    80001930:	0314c783          	lbu	a5,49(s1)
    80001934:	00079a63          	bnez	a5,80001948 <_ZN3TCB15thread_dispatchEv+0x40>
    bool isSuspended() const { return suspended; }
    80001938:	0324c783          	lbu	a5,50(s1)
    8000193c:	00079663          	bnez	a5,80001948 <_ZN3TCB15thread_dispatchEv+0x40>
    bool isBarriered() const { return barriered; }
    80001940:	0334c783          	lbu	a5,51(s1)
    80001944:	0a078263          	beqz	a5,800019e8 <_ZN3TCB15thread_dispatchEv+0xe0>
    bool isFinished() const { return finished; }
    80001948:	0304c783          	lbu	a5,48(s1)
    if(old->isFinished()) {
    8000194c:	06078263          	beqz	a5,800019b0 <_ZN3TCB15thread_dispatchEv+0xa8>
    static int getActive() { return active; }
    80001950:	0000a717          	auipc	a4,0xa
    80001954:	c7070713          	addi	a4,a4,-912 # 8000b5c0 <_ZN3TCB6activeE>
    80001958:	00072783          	lw	a5,0(a4)
        TCB::setActive(TCB::getActive()-1);
    8000195c:	fff7879b          	addiw	a5,a5,-1
    80001960:	0007869b          	sext.w	a3,a5
    static void setActive(int value) { active = value; }
    80001964:	00f72023          	sw	a5,0(a4)
    static int getMax() { return max; }
    80001968:	0000a797          	auipc	a5,0xa
    8000196c:	f187a783          	lw	a5,-232(a5) # 8000b880 <_ZN3TCB3maxE>
        if(TCB::getActive()<TCB::getMax() && capacity.peekFirst()) {
    80001970:	04f6d063          	bge	a3,a5,800019b0 <_ZN3TCB15thread_dispatchEv+0xa8>
        return ret;
    }

    T *peekFirst()
    {
        if (!head) { return 0; }
    80001974:	0000a517          	auipc	a0,0xa
    80001978:	eec53503          	ld	a0,-276(a0) # 8000b860 <_ZN3TCB8capacityE>
    8000197c:	02050a63          	beqz	a0,800019b0 <_ZN3TCB15thread_dispatchEv+0xa8>
        return head->data;
    80001980:	00053783          	ld	a5,0(a0)
    80001984:	02078663          	beqz	a5,800019b0 <_ZN3TCB15thread_dispatchEv+0xa8>
        head = head->next;
    80001988:	00853783          	ld	a5,8(a0)
    8000198c:	0000a717          	auipc	a4,0xa
    80001990:	ecf73a23          	sd	a5,-300(a4) # 8000b860 <_ZN3TCB8capacityE>
        if (!head) { tail = 0; }
    80001994:	06078263          	beqz	a5,800019f8 <_ZN3TCB15thread_dispatchEv+0xf0>
        T *ret = elem->data;
    80001998:	00053903          	ld	s2,0(a0)
            memoryAllocator::deallocate(ptr);
    8000199c:	00000097          	auipc	ra,0x0
    800019a0:	420080e7          	jalr	1056(ra) # 80001dbc <_ZN15memoryAllocator10deallocateEPv>
            Scheduler::put(TCB::capacity.removeFirst());
    800019a4:	00090513          	mv	a0,s2
    800019a8:	00001097          	auipc	ra,0x1
    800019ac:	148080e7          	jalr	328(ra) # 80002af0 <_ZN9Scheduler3putEP3TCB>
    running = Scheduler::get();
    800019b0:	00001097          	auipc	ra,0x1
    800019b4:	0c8080e7          	jalr	200(ra) # 80002a78 <_ZN9Scheduler3getEv>
    800019b8:	0000a797          	auipc	a5,0xa
    800019bc:	eca7b023          	sd	a0,-320(a5) # 8000b878 <_ZN3TCB7runningE>
    TCB::contextSwitch(&old->context, &running->context);
    800019c0:	02050593          	addi	a1,a0,32
    800019c4:	02048513          	addi	a0,s1,32
    800019c8:	fffff097          	auipc	ra,0xfffff
    800019cc:	748080e7          	jalr	1864(ra) # 80001110 <_ZN3TCB13contextSwitchEPNS_7ContextES1_>
}
    800019d0:	01813083          	ld	ra,24(sp)
    800019d4:	01013403          	ld	s0,16(sp)
    800019d8:	00813483          	ld	s1,8(sp)
    800019dc:	00013903          	ld	s2,0(sp)
    800019e0:	02010113          	addi	sp,sp,32
    800019e4:	00008067          	ret
        Scheduler::put(old);
    800019e8:	00048513          	mv	a0,s1
    800019ec:	00001097          	auipc	ra,0x1
    800019f0:	104080e7          	jalr	260(ra) # 80002af0 <_ZN9Scheduler3putEP3TCB>
    800019f4:	f55ff06f          	j	80001948 <_ZN3TCB15thread_dispatchEv+0x40>
        if (!head) { tail = 0; }
    800019f8:	0000a797          	auipc	a5,0xa
    800019fc:	e607b823          	sd	zero,-400(a5) # 8000b868 <_ZN3TCB8capacityE+0x8>
    80001a00:	f99ff06f          	j	80001998 <_ZN3TCB15thread_dispatchEv+0x90>

0000000080001a04 <_ZN3TCB11thread_exitEv>:
int TCB::thread_exit(){
    80001a04:	fe010113          	addi	sp,sp,-32
    80001a08:	00113c23          	sd	ra,24(sp)
    80001a0c:	00813823          	sd	s0,16(sp)
    80001a10:	00913423          	sd	s1,8(sp)
    80001a14:	02010413          	addi	s0,sp,32
    running->setFinished(true);
    80001a18:	0000a497          	auipc	s1,0xa
    80001a1c:	e4848493          	addi	s1,s1,-440 # 8000b860 <_ZN3TCB8capacityE>
    80001a20:	0184b783          	ld	a5,24(s1)
    void setFinished(bool value) { finished = value; }
    80001a24:	00100713          	li	a4,1
    80001a28:	02e78823          	sb	a4,48(a5)
    memoryAllocator::deallocate(TCB::running->stack_space);
    80001a2c:	0187b503          	ld	a0,24(a5)
    80001a30:	00000097          	auipc	ra,0x0
    80001a34:	38c080e7          	jalr	908(ra) # 80001dbc <_ZN15memoryAllocator10deallocateEPv>
    memoryAllocator::deallocate(TCB::running);
    80001a38:	0184b503          	ld	a0,24(s1)
    80001a3c:	00000097          	auipc	ra,0x0
    80001a40:	380080e7          	jalr	896(ra) # 80001dbc <_ZN15memoryAllocator10deallocateEPv>
    TCB::thread_dispatch();
    80001a44:	00000097          	auipc	ra,0x0
    80001a48:	ec4080e7          	jalr	-316(ra) # 80001908 <_ZN3TCB15thread_dispatchEv>
}
    80001a4c:	00000513          	li	a0,0
    80001a50:	01813083          	ld	ra,24(sp)
    80001a54:	01013403          	ld	s0,16(sp)
    80001a58:	00813483          	ld	s1,8(sp)
    80001a5c:	02010113          	addi	sp,sp,32
    80001a60:	00008067          	ret

0000000080001a64 <_ZN3TCB11getThreadIdEv>:
int TCB::getThreadId() {
    80001a64:	ff010113          	addi	sp,sp,-16
    80001a68:	00813423          	sd	s0,8(sp)
    80001a6c:	01010413          	addi	s0,sp,16
}
    80001a70:	0000a797          	auipc	a5,0xa
    80001a74:	e087b783          	ld	a5,-504(a5) # 8000b878 <_ZN3TCB7runningE>
    80001a78:	0347a503          	lw	a0,52(a5)
    80001a7c:	00813403          	ld	s0,8(sp)
    80001a80:	01010113          	addi	sp,sp,16
    80001a84:	00008067          	ret

0000000080001a88 <_ZN3TCB11thread_joinEPS_>:
    bool isFinished() const { return finished; }
    80001a88:	03054783          	lbu	a5,48(a0)
    if(!handle->isFinished()) {
    80001a8c:	00078463          	beqz	a5,80001a94 <_ZN3TCB11thread_joinEPS_+0xc>
    80001a90:	00008067          	ret
void TCB::thread_join(TCB* handle) {
    80001a94:	fe010113          	addi	sp,sp,-32
    80001a98:	00113c23          	sd	ra,24(sp)
    80001a9c:	00813823          	sd	s0,16(sp)
    80001aa0:	00913423          	sd	s1,8(sp)
    80001aa4:	01213023          	sd	s2,0(sp)
    80001aa8:	02010413          	addi	s0,sp,32
    80001aac:	00050493          	mv	s1,a0
        handle->suspendedList.addLast(running);
    80001ab0:	0000a917          	auipc	s2,0xa
    80001ab4:	dc893903          	ld	s2,-568(s2) # 8000b878 <_ZN3TCB7runningE>
            return memoryAllocator::allocate(blocks);
    80001ab8:	00100513          	li	a0,1
    80001abc:	00000097          	auipc	ra,0x0
    80001ac0:	240080e7          	jalr	576(ra) # 80001cfc <_ZN15memoryAllocator8allocateEm>
        Elem(T *data, Elem *next) : data(data), next(next) {}
    80001ac4:	01253023          	sd	s2,0(a0)
    80001ac8:	00053423          	sd	zero,8(a0)
        if (tail) {
    80001acc:	0404b783          	ld	a5,64(s1)
    80001ad0:	02078e63          	beqz	a5,80001b0c <_ZN3TCB11thread_joinEPS_+0x84>
            tail->next = elem;
    80001ad4:	00a7b423          	sd	a0,8(a5)
            tail = elem;
    80001ad8:	04a4b023          	sd	a0,64(s1)
    void setSuspended(bool value) { suspended = value; }
    80001adc:	0000a797          	auipc	a5,0xa
    80001ae0:	d9c7b783          	ld	a5,-612(a5) # 8000b878 <_ZN3TCB7runningE>
    80001ae4:	00100713          	li	a4,1
    80001ae8:	02e78923          	sb	a4,50(a5)
        TCB::thread_dispatch();
    80001aec:	00000097          	auipc	ra,0x0
    80001af0:	e1c080e7          	jalr	-484(ra) # 80001908 <_ZN3TCB15thread_dispatchEv>
}
    80001af4:	01813083          	ld	ra,24(sp)
    80001af8:	01013403          	ld	s0,16(sp)
    80001afc:	00813483          	ld	s1,8(sp)
    80001b00:	00013903          	ld	s2,0(sp)
    80001b04:	02010113          	addi	sp,sp,32
    80001b08:	00008067          	ret
            head = tail = elem;
    80001b0c:	04a4b023          	sd	a0,64(s1)
    80001b10:	02a4bc23          	sd	a0,56(s1)
    80001b14:	fc9ff06f          	j	80001adc <_ZN3TCB11thread_joinEPS_+0x54>

0000000080001b18 <_ZN3TCB6reliseEv>:
void TCB::relise() {
    80001b18:	fe010113          	addi	sp,sp,-32
    80001b1c:	00113c23          	sd	ra,24(sp)
    80001b20:	00813823          	sd	s0,16(sp)
    80001b24:	00913423          	sd	s1,8(sp)
    80001b28:	01213023          	sd	s2,0(sp)
    80001b2c:	02010413          	addi	s0,sp,32
    80001b30:	00050913          	mv	s2,a0
    80001b34:	0240006f          	j	80001b58 <_ZN3TCB6reliseEv+0x40>
        if (!head) { tail = 0; }
    80001b38:	04093023          	sd	zero,64(s2)
        T *ret = elem->data;
    80001b3c:	00053483          	ld	s1,0(a0)
            memoryAllocator::deallocate(ptr);
    80001b40:	00000097          	auipc	ra,0x0
    80001b44:	27c080e7          	jalr	636(ra) # 80001dbc <_ZN15memoryAllocator10deallocateEPv>
    80001b48:	02048923          	sb	zero,50(s1)
        Scheduler::put(un);
    80001b4c:	00048513          	mv	a0,s1
    80001b50:	00001097          	auipc	ra,0x1
    80001b54:	fa0080e7          	jalr	-96(ra) # 80002af0 <_ZN9Scheduler3putEP3TCB>
        if (!head) { return 0; }
    80001b58:	03893503          	ld	a0,56(s2)
    80001b5c:	00050e63          	beqz	a0,80001b78 <_ZN3TCB6reliseEv+0x60>
        return head->data;
    80001b60:	00053783          	ld	a5,0(a0)
    while(this->suspendedList.peekFirst()) {
    80001b64:	00078a63          	beqz	a5,80001b78 <_ZN3TCB6reliseEv+0x60>
        head = head->next;
    80001b68:	00853783          	ld	a5,8(a0)
    80001b6c:	02f93c23          	sd	a5,56(s2)
        if (!head) { tail = 0; }
    80001b70:	fc0796e3          	bnez	a5,80001b3c <_ZN3TCB6reliseEv+0x24>
    80001b74:	fc5ff06f          	j	80001b38 <_ZN3TCB6reliseEv+0x20>
}
    80001b78:	01813083          	ld	ra,24(sp)
    80001b7c:	01013403          	ld	s0,16(sp)
    80001b80:	00813483          	ld	s1,8(sp)
    80001b84:	00013903          	ld	s2,0(sp)
    80001b88:	02010113          	addi	sp,sp,32
    80001b8c:	00008067          	ret

0000000080001b90 <_ZN3TCB13threadWrapperEv>:
void TCB::threadWrapper() {
    80001b90:	fe010113          	addi	sp,sp,-32
    80001b94:	00113c23          	sd	ra,24(sp)
    80001b98:	00813823          	sd	s0,16(sp)
    80001b9c:	00913423          	sd	s1,8(sp)
    80001ba0:	02010413          	addi	s0,sp,32
    Riscv::popSppSpie();
    80001ba4:	00000097          	auipc	ra,0x0
    80001ba8:	7f0080e7          	jalr	2032(ra) # 80002394 <_ZN5Riscv10popSppSpieEv>
    running->start_routine(running->arg);
    80001bac:	0000a497          	auipc	s1,0xa
    80001bb0:	cb448493          	addi	s1,s1,-844 # 8000b860 <_ZN3TCB8capacityE>
    80001bb4:	0184b783          	ld	a5,24(s1)
    80001bb8:	0087b703          	ld	a4,8(a5)
    80001bbc:	0107b503          	ld	a0,16(a5)
    80001bc0:	000700e7          	jalr	a4
    running->setFinished(true);
    80001bc4:	0184b503          	ld	a0,24(s1)
    void setFinished(bool value) { finished = value; }
    80001bc8:	00100793          	li	a5,1
    80001bcc:	02f50823          	sb	a5,48(a0)
    running->relise();
    80001bd0:	00000097          	auipc	ra,0x0
    80001bd4:	f48080e7          	jalr	-184(ra) # 80001b18 <_ZN3TCB6reliseEv>
    memoryAllocator::deallocate(TCB::running->stack_space);
    80001bd8:	0184b783          	ld	a5,24(s1)
    80001bdc:	0187b503          	ld	a0,24(a5)
    80001be0:	00000097          	auipc	ra,0x0
    80001be4:	1dc080e7          	jalr	476(ra) # 80001dbc <_ZN15memoryAllocator10deallocateEPv>
    memoryAllocator::deallocate(TCB::running);
    80001be8:	0184b503          	ld	a0,24(s1)
    80001bec:	00000097          	auipc	ra,0x0
    80001bf0:	1d0080e7          	jalr	464(ra) # 80001dbc <_ZN15memoryAllocator10deallocateEPv>
    TCB::thread_dispatch();
    80001bf4:	00000097          	auipc	ra,0x0
    80001bf8:	d14080e7          	jalr	-748(ra) # 80001908 <_ZN3TCB15thread_dispatchEv>
}
    80001bfc:	01813083          	ld	ra,24(sp)
    80001c00:	01013403          	ld	s0,16(sp)
    80001c04:	00813483          	ld	s1,8(sp)
    80001c08:	02010113          	addi	sp,sp,32
    80001c0c:	00008067          	ret

0000000080001c10 <_ZN7Barrier4openEv>:
    key = 1; if(owner->isBarriered()) {
    80001c10:	00100793          	li	a5,1
    80001c14:	00f52423          	sw	a5,8(a0)
    80001c18:	00053783          	ld	a5,0(a0)
    bool isBarriered() const { return barriered; }
    80001c1c:	0337c703          	lbu	a4,51(a5)
    80001c20:	00071463          	bnez	a4,80001c28 <_ZN7Barrier4openEv+0x18>
    80001c24:	00008067          	ret
void Barrier::open() {
    80001c28:	ff010113          	addi	sp,sp,-16
    80001c2c:	00113423          	sd	ra,8(sp)
    80001c30:	00813023          	sd	s0,0(sp)
    80001c34:	01010413          	addi	s0,sp,16
    void setBarriered(bool value) { barriered = value; }
    80001c38:	020789a3          	sb	zero,51(a5)
        Scheduler::put(owner);
    80001c3c:	00053503          	ld	a0,0(a0)
    80001c40:	00001097          	auipc	ra,0x1
    80001c44:	eb0080e7          	jalr	-336(ra) # 80002af0 <_ZN9Scheduler3putEP3TCB>
    80001c48:	00813083          	ld	ra,8(sp)
    80001c4c:	00013403          	ld	s0,0(sp)
    80001c50:	01010113          	addi	sp,sp,16
    80001c54:	00008067          	ret

0000000080001c58 <_GLOBAL__sub_I__ZN3TCB7runningE>:
    80001c58:	ff010113          	addi	sp,sp,-16
    80001c5c:	00113423          	sd	ra,8(sp)
    80001c60:	00813023          	sd	s0,0(sp)
    80001c64:	01010413          	addi	s0,sp,16
    80001c68:	000105b7          	lui	a1,0x10
    80001c6c:	fff58593          	addi	a1,a1,-1 # ffff <_entry-0x7fff0001>
    80001c70:	00100513          	li	a0,1
    80001c74:	00000097          	auipc	ra,0x0
    80001c78:	ac4080e7          	jalr	-1340(ra) # 80001738 <_Z41__static_initialization_and_destruction_0ii>
    80001c7c:	00813083          	ld	ra,8(sp)
    80001c80:	00013403          	ld	s0,0(sp)
    80001c84:	01010113          	addi	sp,sp,16
    80001c88:	00008067          	ret

0000000080001c8c <_Z10roundUpDivmm>:
//

#include "../h/memoryAllocator.hpp"
#include "../h/print.hpp"

size_t roundUpDiv(size_t numerator, size_t denominator) {
    80001c8c:	ff010113          	addi	sp,sp,-16
    80001c90:	00813423          	sd	s0,8(sp)
    80001c94:	01010413          	addi	s0,sp,16
	return (numerator + denominator - 1) / denominator;
    80001c98:	00b50533          	add	a0,a0,a1
    80001c9c:	fff50513          	addi	a0,a0,-1
}
    80001ca0:	02b55533          	divu	a0,a0,a1
    80001ca4:	00813403          	ld	s0,8(sp)
    80001ca8:	01010113          	addi	sp,sp,16
    80001cac:	00008067          	ret

0000000080001cb0 <_ZN15memoryAllocator5startEv>:

memoryAllocator::FreeMem* memoryAllocator::fmem_head = nullptr;

void memoryAllocator::start(){
    80001cb0:	ff010113          	addi	sp,sp,-16
    80001cb4:	00813423          	sd	s0,8(sp)
    80001cb8:	01010413          	addi	s0,sp,16

	FreeMem* fm = (FreeMem*)(HEAP_START_ADDR);
    80001cbc:	0000a797          	auipc	a5,0xa
    80001cc0:	b147b783          	ld	a5,-1260(a5) # 8000b7d0 <_GLOBAL_OFFSET_TABLE_+0x10>
    80001cc4:	0007b783          	ld	a5,0(a5)
	fm->next = nullptr;
    80001cc8:	0007b423          	sd	zero,8(a5)
	fm->prev = nullptr;
    80001ccc:	0007b823          	sd	zero,16(a5)
	fm->size = ((char*)HEAP_END_ADDR - (char*)HEAP_START_ADDR)/MEM_BLOCK_SIZE;
    80001cd0:	0000a717          	auipc	a4,0xa
    80001cd4:	b3073703          	ld	a4,-1232(a4) # 8000b800 <_GLOBAL_OFFSET_TABLE_+0x40>
    80001cd8:	00073703          	ld	a4,0(a4)
    80001cdc:	40f70733          	sub	a4,a4,a5
    80001ce0:	00675713          	srli	a4,a4,0x6
    80001ce4:	00e7b023          	sd	a4,0(a5)
	fmem_head = fm;
    80001ce8:	0000a717          	auipc	a4,0xa
    80001cec:	baf73023          	sd	a5,-1120(a4) # 8000b888 <_ZN15memoryAllocator9fmem_headE>

}
    80001cf0:	00813403          	ld	s0,8(sp)
    80001cf4:	01010113          	addi	sp,sp,16
    80001cf8:	00008067          	ret

0000000080001cfc <_ZN15memoryAllocator8allocateEm>:

void* memoryAllocator::allocate(size_t blocks){
    80001cfc:	ff010113          	addi	sp,sp,-16
    80001d00:	00813423          	sd	s0,8(sp)
    80001d04:	01010413          	addi	s0,sp,16
    80001d08:	00050793          	mv	a5,a0

	for(FreeMem* cur= fmem_head;cur!=nullptr;cur=cur->next){
    80001d0c:	0000a517          	auipc	a0,0xa
    80001d10:	b7c53503          	ld	a0,-1156(a0) # 8000b888 <_ZN15memoryAllocator9fmem_headE>
    80001d14:	04050a63          	beqz	a0,80001d68 <_ZN15memoryAllocator8allocateEm+0x6c>

		if(cur->size < blocks)continue;
    80001d18:	00053703          	ld	a4,0(a0)
    80001d1c:	04f76c63          	bltu	a4,a5,80001d74 <_ZN15memoryAllocator8allocateEm+0x78>
		//Found!

		//ako je uzet ceo fragment slobodne
		if(cur-> size - blocks == 0){
    80001d20:	04f70e63          	beq	a4,a5,80001d7c <_ZN15memoryAllocator8allocateEm+0x80>

		}
		else{


			FreeMem* newfrgm = (FreeMem*)((char*)cur+MEM_BLOCK_SIZE * blocks);
    80001d24:	00679713          	slli	a4,a5,0x6
    80001d28:	00e50733          	add	a4,a0,a4


			if(cur->prev) cur->prev->next = newfrgm;
    80001d2c:	01053683          	ld	a3,16(a0)
    80001d30:	08068063          	beqz	a3,80001db0 <_ZN15memoryAllocator8allocateEm+0xb4>
    80001d34:	00e6b423          	sd	a4,8(a3) # 1008 <_entry-0x7fffeff8>
			else fmem_head = newfrgm;

			if(cur->next) cur->next->prev = newfrgm;
    80001d38:	00853683          	ld	a3,8(a0)
    80001d3c:	00068463          	beqz	a3,80001d44 <_ZN15memoryAllocator8allocateEm+0x48>
    80001d40:	00e6b823          	sd	a4,16(a3)

			newfrgm-> prev = cur->prev;
    80001d44:	01053683          	ld	a3,16(a0)
    80001d48:	00d73823          	sd	a3,16(a4)
			newfrgm->next = cur->next;
    80001d4c:	00853683          	ld	a3,8(a0)
    80001d50:	00d73423          	sd	a3,8(a4)
			newfrgm-> size = cur -> size - blocks;
    80001d54:	00053683          	ld	a3,0(a0)
    80001d58:	40f686b3          	sub	a3,a3,a5
    80001d5c:	00d73023          	sd	a3,0(a4)
		}



		uint32* header = (uint32*)cur;
		*header = blocks;
    80001d60:	00f52023          	sw	a5,0(a0)

		return (void*)(header + 1);
    80001d64:	00450513          	addi	a0,a0,4
	}
	return nullptr;
}
    80001d68:	00813403          	ld	s0,8(sp)
    80001d6c:	01010113          	addi	sp,sp,16
    80001d70:	00008067          	ret
	for(FreeMem* cur= fmem_head;cur!=nullptr;cur=cur->next){
    80001d74:	00853503          	ld	a0,8(a0)
    80001d78:	f9dff06f          	j	80001d14 <_ZN15memoryAllocator8allocateEm+0x18>
			if(cur->prev) cur->prev->next = cur->next;
    80001d7c:	01053703          	ld	a4,16(a0)
    80001d80:	02070063          	beqz	a4,80001da0 <_ZN15memoryAllocator8allocateEm+0xa4>
    80001d84:	00853683          	ld	a3,8(a0)
    80001d88:	00d73423          	sd	a3,8(a4)
			if(cur->next) cur->next->prev = cur->prev;
    80001d8c:	00853703          	ld	a4,8(a0)
    80001d90:	fc0708e3          	beqz	a4,80001d60 <_ZN15memoryAllocator8allocateEm+0x64>
    80001d94:	01053683          	ld	a3,16(a0)
    80001d98:	00d73823          	sd	a3,16(a4)
    80001d9c:	fc5ff06f          	j	80001d60 <_ZN15memoryAllocator8allocateEm+0x64>
			else fmem_head = cur -> next;
    80001da0:	00853703          	ld	a4,8(a0)
    80001da4:	0000a697          	auipc	a3,0xa
    80001da8:	aee6b223          	sd	a4,-1308(a3) # 8000b888 <_ZN15memoryAllocator9fmem_headE>
    80001dac:	fe1ff06f          	j	80001d8c <_ZN15memoryAllocator8allocateEm+0x90>
			else fmem_head = newfrgm;
    80001db0:	0000a697          	auipc	a3,0xa
    80001db4:	ace6bc23          	sd	a4,-1320(a3) # 8000b888 <_ZN15memoryAllocator9fmem_headE>
    80001db8:	f81ff06f          	j	80001d38 <_ZN15memoryAllocator8allocateEm+0x3c>

0000000080001dbc <_ZN15memoryAllocator10deallocateEPv>:

int memoryAllocator::deallocate(void* ptr) {
    80001dbc:	ff010113          	addi	sp,sp,-16
    80001dc0:	00813423          	sd	s0,8(sp)
    80001dc4:	01010413          	addi	s0,sp,16
    if(!ptr) return -21;
    80001dc8:	0c050e63          	beqz	a0,80001ea4 <_ZN15memoryAllocator10deallocateEPv+0xe8>

    FreeMem* blockToFree = (FreeMem*)((char*)ptr - sizeof(uint32));
    80001dcc:	ffc50693          	addi	a3,a0,-4
    blockToFree->size = *((uint32*)blockToFree);
    80001dd0:	ffc56783          	lwu	a5,-4(a0)
    80001dd4:	fef53e23          	sd	a5,-4(a0)

    FreeMem* cur = fmem_head;
    80001dd8:	0000a797          	auipc	a5,0xa
    80001ddc:	ab07b783          	ld	a5,-1360(a5) # 8000b888 <_ZN15memoryAllocator9fmem_headE>
    FreeMem* prev = nullptr;
    80001de0:	00000713          	li	a4,0

    while(cur && cur < blockToFree) {
    80001de4:	00078a63          	beqz	a5,80001df8 <_ZN15memoryAllocator10deallocateEPv+0x3c>
    80001de8:	00d7f863          	bgeu	a5,a3,80001df8 <_ZN15memoryAllocator10deallocateEPv+0x3c>

        prev = cur;
    80001dec:	00078713          	mv	a4,a5
        cur = cur->next;
    80001df0:	0087b783          	ld	a5,8(a5)
    while(cur && cur < blockToFree) {
    80001df4:	ff1ff06f          	j	80001de4 <_ZN15memoryAllocator10deallocateEPv+0x28>
    }

    blockToFree->next = cur;
    80001df8:	00f53223          	sd	a5,4(a0)
    blockToFree->prev = prev;
    80001dfc:	00e53623          	sd	a4,12(a0)


    if(prev) {
    80001e00:	04070463          	beqz	a4,80001e48 <_ZN15memoryAllocator10deallocateEPv+0x8c>
        prev->next = blockToFree;
    80001e04:	00d73423          	sd	a3,8(a4)
    } else {
        fmem_head = blockToFree;
    }

    if(cur) {
    80001e08:	00078463          	beqz	a5,80001e10 <_ZN15memoryAllocator10deallocateEPv+0x54>
        cur->prev = blockToFree;
    80001e0c:	00d7b823          	sd	a3,16(a5)
    }

    if(prev && (char*)prev + prev->size * MEM_BLOCK_SIZE == (char*)blockToFree) {
    80001e10:	00070a63          	beqz	a4,80001e24 <_ZN15memoryAllocator10deallocateEPv+0x68>
    80001e14:	00073583          	ld	a1,0(a4)
    80001e18:	00659613          	slli	a2,a1,0x6
    80001e1c:	00c70633          	add	a2,a4,a2
    80001e20:	02d60a63          	beq	a2,a3,80001e54 <_ZN15memoryAllocator10deallocateEPv+0x98>
        }
        blockToFree = prev;
    }


    if(cur && (char*)blockToFree + blockToFree->size * MEM_BLOCK_SIZE == (char*)cur) {
    80001e24:	08078463          	beqz	a5,80001eac <_ZN15memoryAllocator10deallocateEPv+0xf0>
    80001e28:	0006b603          	ld	a2,0(a3)
    80001e2c:	00661713          	slli	a4,a2,0x6
    80001e30:	00e68733          	add	a4,a3,a4
    80001e34:	04f70663          	beq	a4,a5,80001e80 <_ZN15memoryAllocator10deallocateEPv+0xc4>
        if(cur->next) {
            cur->next->prev = blockToFree;
        }
    }

    return 0;
    80001e38:	00000513          	li	a0,0
}
    80001e3c:	00813403          	ld	s0,8(sp)
    80001e40:	01010113          	addi	sp,sp,16
    80001e44:	00008067          	ret
        fmem_head = blockToFree;
    80001e48:	0000a617          	auipc	a2,0xa
    80001e4c:	a4d63023          	sd	a3,-1472(a2) # 8000b888 <_ZN15memoryAllocator9fmem_headE>
    80001e50:	fb9ff06f          	j	80001e08 <_ZN15memoryAllocator10deallocateEPv+0x4c>
        prev->size += blockToFree->size;
    80001e54:	ffc53683          	ld	a3,-4(a0)
    80001e58:	00d585b3          	add	a1,a1,a3
    80001e5c:	00b73023          	sd	a1,0(a4)
        prev->next = blockToFree->next;
    80001e60:	00453683          	ld	a3,4(a0)
    80001e64:	00d73423          	sd	a3,8(a4)
        if(blockToFree->next) {
    80001e68:	00068863          	beqz	a3,80001e78 <_ZN15memoryAllocator10deallocateEPv+0xbc>
            blockToFree->next->prev = prev;
    80001e6c:	00e6b823          	sd	a4,16(a3)
        blockToFree = prev;
    80001e70:	00070693          	mv	a3,a4
    80001e74:	fb1ff06f          	j	80001e24 <_ZN15memoryAllocator10deallocateEPv+0x68>
    80001e78:	00070693          	mv	a3,a4
    80001e7c:	fa9ff06f          	j	80001e24 <_ZN15memoryAllocator10deallocateEPv+0x68>
        blockToFree->size += cur->size;
    80001e80:	0007b703          	ld	a4,0(a5)
    80001e84:	00e60633          	add	a2,a2,a4
    80001e88:	00c6b023          	sd	a2,0(a3)
        blockToFree->next = cur->next;
    80001e8c:	0087b783          	ld	a5,8(a5)
    80001e90:	00f6b423          	sd	a5,8(a3)
        if(cur->next) {
    80001e94:	02078063          	beqz	a5,80001eb4 <_ZN15memoryAllocator10deallocateEPv+0xf8>
            cur->next->prev = blockToFree;
    80001e98:	00d7b823          	sd	a3,16(a5)
    return 0;
    80001e9c:	00000513          	li	a0,0
    80001ea0:	f9dff06f          	j	80001e3c <_ZN15memoryAllocator10deallocateEPv+0x80>
    if(!ptr) return -21;
    80001ea4:	feb00513          	li	a0,-21
    80001ea8:	f95ff06f          	j	80001e3c <_ZN15memoryAllocator10deallocateEPv+0x80>
    return 0;
    80001eac:	00000513          	li	a0,0
    80001eb0:	f8dff06f          	j	80001e3c <_ZN15memoryAllocator10deallocateEPv+0x80>
    80001eb4:	00000513          	li	a0,0
    80001eb8:	f85ff06f          	j	80001e3c <_ZN15memoryAllocator10deallocateEPv+0x80>

0000000080001ebc <_Znwm>:


using size_t = decltype(sizeof(0));

void *operator new(size_t n)
{
    80001ebc:	ff010113          	addi	sp,sp,-16
    80001ec0:	00113423          	sd	ra,8(sp)
    80001ec4:	00813023          	sd	s0,0(sp)
    80001ec8:	01010413          	addi	s0,sp,16
    return mem_alloc(n);
    80001ecc:	fffff097          	auipc	ra,0xfffff
    80001ed0:	278080e7          	jalr	632(ra) # 80001144 <_Z9mem_allocm>
}
    80001ed4:	00813083          	ld	ra,8(sp)
    80001ed8:	00013403          	ld	s0,0(sp)
    80001edc:	01010113          	addi	sp,sp,16
    80001ee0:	00008067          	ret

0000000080001ee4 <_Znam>:

void *operator new[](size_t n)
{
    80001ee4:	ff010113          	addi	sp,sp,-16
    80001ee8:	00113423          	sd	ra,8(sp)
    80001eec:	00813023          	sd	s0,0(sp)
    80001ef0:	01010413          	addi	s0,sp,16
    return mem_alloc(n);
    80001ef4:	fffff097          	auipc	ra,0xfffff
    80001ef8:	250080e7          	jalr	592(ra) # 80001144 <_Z9mem_allocm>
}
    80001efc:	00813083          	ld	ra,8(sp)
    80001f00:	00013403          	ld	s0,0(sp)
    80001f04:	01010113          	addi	sp,sp,16
    80001f08:	00008067          	ret

0000000080001f0c <_ZdlPv>:

void operator delete(void *p) noexcept
{
    80001f0c:	ff010113          	addi	sp,sp,-16
    80001f10:	00113423          	sd	ra,8(sp)
    80001f14:	00813023          	sd	s0,0(sp)
    80001f18:	01010413          	addi	s0,sp,16
    mem_free(p);
    80001f1c:	fffff097          	auipc	ra,0xfffff
    80001f20:	270080e7          	jalr	624(ra) # 8000118c <_Z8mem_freePv>
}
    80001f24:	00813083          	ld	ra,8(sp)
    80001f28:	00013403          	ld	s0,0(sp)
    80001f2c:	01010113          	addi	sp,sp,16
    80001f30:	00008067          	ret

0000000080001f34 <_ZdaPv>:

void operator delete[](void *p) noexcept
{
    80001f34:	ff010113          	addi	sp,sp,-16
    80001f38:	00113423          	sd	ra,8(sp)
    80001f3c:	00813023          	sd	s0,0(sp)
    80001f40:	01010413          	addi	s0,sp,16
    mem_free(p);
    80001f44:	fffff097          	auipc	ra,0xfffff
    80001f48:	248080e7          	jalr	584(ra) # 8000118c <_Z8mem_freePv>
    80001f4c:	00813083          	ld	ra,8(sp)
    80001f50:	00013403          	ld	s0,0(sp)
    80001f54:	01010113          	addi	sp,sp,16
    80001f58:	00008067          	ret

0000000080001f5c <_ZN6Thread10runWrapperEPv>:
	this->body = runWrapper;
	this->arg = nullptr;
	thread_create_but_dont_start(&this->myHandle, runWrapper, this);
}

void Thread::runWrapper(void *torun) {
    80001f5c:	ff010113          	addi	sp,sp,-16
    80001f60:	00113423          	sd	ra,8(sp)
    80001f64:	00813023          	sd	s0,0(sp)
    80001f68:	01010413          	addi	s0,sp,16
	((Thread*)torun)->run();
    80001f6c:	00053783          	ld	a5,0(a0)
    80001f70:	0107b783          	ld	a5,16(a5)
    80001f74:	000780e7          	jalr	a5
}
    80001f78:	00813083          	ld	ra,8(sp)
    80001f7c:	00013403          	ld	s0,0(sp)
    80001f80:	01010113          	addi	sp,sp,16
    80001f84:	00008067          	ret

0000000080001f88 <_ZN6ThreadD1Ev>:
Thread::~Thread(){
    80001f88:	00009797          	auipc	a5,0x9
    80001f8c:	65878793          	addi	a5,a5,1624 # 8000b5e0 <_ZTV6Thread+0x10>
    80001f90:	00f53023          	sd	a5,0(a0)
	delete myHandle;
    80001f94:	00853503          	ld	a0,8(a0)
    80001f98:	02050663          	beqz	a0,80001fc4 <_ZN6ThreadD1Ev+0x3c>
Thread::~Thread(){
    80001f9c:	ff010113          	addi	sp,sp,-16
    80001fa0:	00113423          	sd	ra,8(sp)
    80001fa4:	00813023          	sd	s0,0(sp)
    80001fa8:	01010413          	addi	s0,sp,16
        memoryAllocator::deallocate(ptr);
    80001fac:	00000097          	auipc	ra,0x0
    80001fb0:	e10080e7          	jalr	-496(ra) # 80001dbc <_ZN15memoryAllocator10deallocateEPv>
}
    80001fb4:	00813083          	ld	ra,8(sp)
    80001fb8:	00013403          	ld	s0,0(sp)
    80001fbc:	01010113          	addi	sp,sp,16
    80001fc0:	00008067          	ret
    80001fc4:	00008067          	ret

0000000080001fc8 <_ZN9SemaphoreD1Ev>:

Semaphore::Semaphore(unsigned init) {
	sem_open(&this->myHandle, init);
}

Semaphore::~Semaphore() {
    80001fc8:	00009797          	auipc	a5,0x9
    80001fcc:	64078793          	addi	a5,a5,1600 # 8000b608 <_ZTV9Semaphore+0x10>
    80001fd0:	00f53023          	sd	a5,0(a0)

	delete myHandle;
    80001fd4:	00853503          	ld	a0,8(a0)
    80001fd8:	02050663          	beqz	a0,80002004 <_ZN9SemaphoreD1Ev+0x3c>
Semaphore::~Semaphore() {
    80001fdc:	ff010113          	addi	sp,sp,-16
    80001fe0:	00113423          	sd	ra,8(sp)
    80001fe4:	00813023          	sd	s0,0(sp)
    80001fe8:	01010413          	addi	s0,sp,16
        }
        return memoryAllocator::allocate(blocks);
    }

    void operator delete(void *ptr) {
        memoryAllocator::deallocate(ptr);
    80001fec:	00000097          	auipc	ra,0x0
    80001ff0:	dd0080e7          	jalr	-560(ra) # 80001dbc <_ZN15memoryAllocator10deallocateEPv>

}
    80001ff4:	00813083          	ld	ra,8(sp)
    80001ff8:	00013403          	ld	s0,0(sp)
    80001ffc:	01010113          	addi	sp,sp,16
    80002000:	00008067          	ret
    80002004:	00008067          	ret

0000000080002008 <_ZN6ThreadD0Ev>:
Thread::~Thread(){
    80002008:	fe010113          	addi	sp,sp,-32
    8000200c:	00113c23          	sd	ra,24(sp)
    80002010:	00813823          	sd	s0,16(sp)
    80002014:	00913423          	sd	s1,8(sp)
    80002018:	02010413          	addi	s0,sp,32
    8000201c:	00050493          	mv	s1,a0
}
    80002020:	00000097          	auipc	ra,0x0
    80002024:	f68080e7          	jalr	-152(ra) # 80001f88 <_ZN6ThreadD1Ev>
    80002028:	00048513          	mv	a0,s1
    8000202c:	00000097          	auipc	ra,0x0
    80002030:	ee0080e7          	jalr	-288(ra) # 80001f0c <_ZdlPv>
    80002034:	01813083          	ld	ra,24(sp)
    80002038:	01013403          	ld	s0,16(sp)
    8000203c:	00813483          	ld	s1,8(sp)
    80002040:	02010113          	addi	sp,sp,32
    80002044:	00008067          	ret

0000000080002048 <_ZN9SemaphoreD0Ev>:
Semaphore::~Semaphore() {
    80002048:	fe010113          	addi	sp,sp,-32
    8000204c:	00113c23          	sd	ra,24(sp)
    80002050:	00813823          	sd	s0,16(sp)
    80002054:	00913423          	sd	s1,8(sp)
    80002058:	02010413          	addi	s0,sp,32
    8000205c:	00050493          	mv	s1,a0
}
    80002060:	00000097          	auipc	ra,0x0
    80002064:	f68080e7          	jalr	-152(ra) # 80001fc8 <_ZN9SemaphoreD1Ev>
    80002068:	00048513          	mv	a0,s1
    8000206c:	00000097          	auipc	ra,0x0
    80002070:	ea0080e7          	jalr	-352(ra) # 80001f0c <_ZdlPv>
    80002074:	01813083          	ld	ra,24(sp)
    80002078:	01013403          	ld	s0,16(sp)
    8000207c:	00813483          	ld	s1,8(sp)
    80002080:	02010113          	addi	sp,sp,32
    80002084:	00008067          	ret

0000000080002088 <_ZN6ThreadC1EPFvPvES0_>:
Thread::Thread (void (*body)(void*), void* arg) {
    80002088:	ff010113          	addi	sp,sp,-16
    8000208c:	00113423          	sd	ra,8(sp)
    80002090:	00813023          	sd	s0,0(sp)
    80002094:	01010413          	addi	s0,sp,16
    80002098:	00009797          	auipc	a5,0x9
    8000209c:	54878793          	addi	a5,a5,1352 # 8000b5e0 <_ZTV6Thread+0x10>
    800020a0:	00f53023          	sd	a5,0(a0)
	this->arg=arg;
    800020a4:	00c53c23          	sd	a2,24(a0)
	this->body=body;
    800020a8:	00b53823          	sd	a1,16(a0)
	thread_create(&this->myHandle, body, arg);
    800020ac:	00850513          	addi	a0,a0,8
    800020b0:	fffff097          	auipc	ra,0xfffff
    800020b4:	10c080e7          	jalr	268(ra) # 800011bc <_Z13thread_createPP3TCBPFvPvES2_>
}
    800020b8:	00813083          	ld	ra,8(sp)
    800020bc:	00013403          	ld	s0,0(sp)
    800020c0:	01010113          	addi	sp,sp,16
    800020c4:	00008067          	ret

00000000800020c8 <_ZN6Thread5startEv>:
int Thread::start() {
    800020c8:	ff010113          	addi	sp,sp,-16
    800020cc:	00113423          	sd	ra,8(sp)
    800020d0:	00813023          	sd	s0,0(sp)
    800020d4:	01010413          	addi	s0,sp,16
	thread_start(myHandle);
    800020d8:	00853503          	ld	a0,8(a0)
    800020dc:	fffff097          	auipc	ra,0xfffff
    800020e0:	230080e7          	jalr	560(ra) # 8000130c <_Z12thread_startP3TCB>
}
    800020e4:	00000513          	li	a0,0
    800020e8:	00813083          	ld	ra,8(sp)
    800020ec:	00013403          	ld	s0,0(sp)
    800020f0:	01010113          	addi	sp,sp,16
    800020f4:	00008067          	ret

00000000800020f8 <_ZN6ThreadC1Ev>:
Thread::Thread() {
    800020f8:	ff010113          	addi	sp,sp,-16
    800020fc:	00113423          	sd	ra,8(sp)
    80002100:	00813023          	sd	s0,0(sp)
    80002104:	01010413          	addi	s0,sp,16
    80002108:	00009797          	auipc	a5,0x9
    8000210c:	4d878793          	addi	a5,a5,1240 # 8000b5e0 <_ZTV6Thread+0x10>
    80002110:	00f53023          	sd	a5,0(a0)
	this->body = runWrapper;
    80002114:	00000597          	auipc	a1,0x0
    80002118:	e4858593          	addi	a1,a1,-440 # 80001f5c <_ZN6Thread10runWrapperEPv>
    8000211c:	00b53823          	sd	a1,16(a0)
	this->arg = nullptr;
    80002120:	00053c23          	sd	zero,24(a0)
	thread_create_but_dont_start(&this->myHandle, runWrapper, this);
    80002124:	00050613          	mv	a2,a0
    80002128:	00850513          	addi	a0,a0,8
    8000212c:	fffff097          	auipc	ra,0xfffff
    80002130:	138080e7          	jalr	312(ra) # 80001264 <_Z28thread_create_but_dont_startPP3TCBPFvPvES2_>
}
    80002134:	00813083          	ld	ra,8(sp)
    80002138:	00013403          	ld	s0,0(sp)
    8000213c:	01010113          	addi	sp,sp,16
    80002140:	00008067          	ret

0000000080002144 <_ZN6Thread8dispatchEv>:
void Thread::dispatch() {
    80002144:	ff010113          	addi	sp,sp,-16
    80002148:	00113423          	sd	ra,8(sp)
    8000214c:	00813023          	sd	s0,0(sp)
    80002150:	01010413          	addi	s0,sp,16
	thread_dispatch();
    80002154:	fffff097          	auipc	ra,0xfffff
    80002158:	1e0080e7          	jalr	480(ra) # 80001334 <_Z15thread_dispatchv>
}
    8000215c:	00813083          	ld	ra,8(sp)
    80002160:	00013403          	ld	s0,0(sp)
    80002164:	01010113          	addi	sp,sp,16
    80002168:	00008067          	ret

000000008000216c <_ZN6Thread5getIdEv>:
int Thread::getId() {
    8000216c:	ff010113          	addi	sp,sp,-16
    80002170:	00113423          	sd	ra,8(sp)
    80002174:	00813023          	sd	s0,0(sp)
    80002178:	01010413          	addi	s0,sp,16
	return getThreadId();
    8000217c:	fffff097          	auipc	ra,0xfffff
    80002180:	208080e7          	jalr	520(ra) # 80001384 <_Z11getThreadIdv>
}
    80002184:	00813083          	ld	ra,8(sp)
    80002188:	00013403          	ld	s0,0(sp)
    8000218c:	01010113          	addi	sp,sp,16
    80002190:	00008067          	ret

0000000080002194 <_ZN6Thread6setMaxEi>:
void Thread::setMax(int max){
    80002194:	ff010113          	addi	sp,sp,-16
    80002198:	00113423          	sd	ra,8(sp)
    8000219c:	00813023          	sd	s0,0(sp)
    800021a0:	01010413          	addi	s0,sp,16
	setMaxThreads(max);
    800021a4:	fffff097          	auipc	ra,0xfffff
    800021a8:	20c080e7          	jalr	524(ra) # 800013b0 <_Z13setMaxThreadsi>
}
    800021ac:	00813083          	ld	ra,8(sp)
    800021b0:	00013403          	ld	s0,0(sp)
    800021b4:	01010113          	addi	sp,sp,16
    800021b8:	00008067          	ret

00000000800021bc <_ZN6Thread4joinEv>:
void Thread::join() {
    800021bc:	ff010113          	addi	sp,sp,-16
    800021c0:	00113423          	sd	ra,8(sp)
    800021c4:	00813023          	sd	s0,0(sp)
    800021c8:	01010413          	addi	s0,sp,16
	thread_join(myHandle);
    800021cc:	00853503          	ld	a0,8(a0)
    800021d0:	fffff097          	auipc	ra,0xfffff
    800021d4:	208080e7          	jalr	520(ra) # 800013d8 <_Z11thread_joinP3TCB>
}
    800021d8:	00813083          	ld	ra,8(sp)
    800021dc:	00013403          	ld	s0,0(sp)
    800021e0:	01010113          	addi	sp,sp,16
    800021e4:	00008067          	ret

00000000800021e8 <_ZN6Thread4openEv>:
void Thread::open() {
    800021e8:	ff010113          	addi	sp,sp,-16
    800021ec:	00113423          	sd	ra,8(sp)
    800021f0:	00813023          	sd	s0,0(sp)
    800021f4:	01010413          	addi	s0,sp,16
	barrier_open(myHandle);
    800021f8:	00853503          	ld	a0,8(a0)
    800021fc:	fffff097          	auipc	ra,0xfffff
    80002200:	204080e7          	jalr	516(ra) # 80001400 <_Z12barrier_openP3TCB>
}
    80002204:	00813083          	ld	ra,8(sp)
    80002208:	00013403          	ld	s0,0(sp)
    8000220c:	01010113          	addi	sp,sp,16
    80002210:	00008067          	ret

0000000080002214 <_ZN6Thread4passEv>:
void Thread::pass() {
    80002214:	ff010113          	addi	sp,sp,-16
    80002218:	00113423          	sd	ra,8(sp)
    8000221c:	00813023          	sd	s0,0(sp)
    80002220:	01010413          	addi	s0,sp,16
	barrier_pass(myHandle);
    80002224:	00853503          	ld	a0,8(a0)
    80002228:	fffff097          	auipc	ra,0xfffff
    8000222c:	228080e7          	jalr	552(ra) # 80001450 <_Z12barrier_passP3TCB>
}
    80002230:	00813083          	ld	ra,8(sp)
    80002234:	00013403          	ld	s0,0(sp)
    80002238:	01010113          	addi	sp,sp,16
    8000223c:	00008067          	ret

0000000080002240 <_ZN6Thread5closeEv>:
void Thread::close() {
    80002240:	ff010113          	addi	sp,sp,-16
    80002244:	00113423          	sd	ra,8(sp)
    80002248:	00813023          	sd	s0,0(sp)
    8000224c:	01010413          	addi	s0,sp,16
	barrier_close(myHandle);
    80002250:	00853503          	ld	a0,8(a0)
    80002254:	fffff097          	auipc	ra,0xfffff
    80002258:	1d4080e7          	jalr	468(ra) # 80001428 <_Z13barrier_closeP3TCB>
}
    8000225c:	00813083          	ld	ra,8(sp)
    80002260:	00013403          	ld	s0,0(sp)
    80002264:	01010113          	addi	sp,sp,16
    80002268:	00008067          	ret

000000008000226c <_ZN9SemaphoreC1Ej>:
Semaphore::Semaphore(unsigned init) {
    8000226c:	ff010113          	addi	sp,sp,-16
    80002270:	00113423          	sd	ra,8(sp)
    80002274:	00813023          	sd	s0,0(sp)
    80002278:	01010413          	addi	s0,sp,16
    8000227c:	00009797          	auipc	a5,0x9
    80002280:	38c78793          	addi	a5,a5,908 # 8000b608 <_ZTV9Semaphore+0x10>
    80002284:	00f53023          	sd	a5,0(a0)
	sem_open(&this->myHandle, init);
    80002288:	00850513          	addi	a0,a0,8
    8000228c:	fffff097          	auipc	ra,0xfffff
    80002290:	1ec080e7          	jalr	492(ra) # 80001478 <_Z8sem_openPP3semj>
}
    80002294:	00813083          	ld	ra,8(sp)
    80002298:	00013403          	ld	s0,0(sp)
    8000229c:	01010113          	addi	sp,sp,16
    800022a0:	00008067          	ret

00000000800022a4 <_ZN9Semaphore4waitEv>:


int Semaphore::wait() {
    800022a4:	ff010113          	addi	sp,sp,-16
    800022a8:	00113423          	sd	ra,8(sp)
    800022ac:	00813023          	sd	s0,0(sp)
    800022b0:	01010413          	addi	s0,sp,16
	return sem_wait(myHandle);
    800022b4:	00853503          	ld	a0,8(a0)
    800022b8:	fffff097          	auipc	ra,0xfffff
    800022bc:	224080e7          	jalr	548(ra) # 800014dc <_Z8sem_waitP3sem>
}
    800022c0:	00813083          	ld	ra,8(sp)
    800022c4:	00013403          	ld	s0,0(sp)
    800022c8:	01010113          	addi	sp,sp,16
    800022cc:	00008067          	ret

00000000800022d0 <_ZN9Semaphore6signalEv>:
int Semaphore::signal() {
    800022d0:	ff010113          	addi	sp,sp,-16
    800022d4:	00113423          	sd	ra,8(sp)
    800022d8:	00813023          	sd	s0,0(sp)
    800022dc:	01010413          	addi	s0,sp,16
	return sem_signal(myHandle);
    800022e0:	00853503          	ld	a0,8(a0)
    800022e4:	fffff097          	auipc	ra,0xfffff
    800022e8:	228080e7          	jalr	552(ra) # 8000150c <_Z10sem_signalP3sem>
}
    800022ec:	00813083          	ld	ra,8(sp)
    800022f0:	00013403          	ld	s0,0(sp)
    800022f4:	01010113          	addi	sp,sp,16
    800022f8:	00008067          	ret

00000000800022fc <_ZN9Semaphore7tryWaitEv>:
int Semaphore::tryWait() {
    800022fc:	ff010113          	addi	sp,sp,-16
    80002300:	00113423          	sd	ra,8(sp)
    80002304:	00813023          	sd	s0,0(sp)
    80002308:	01010413          	addi	s0,sp,16
	return sem_trywait(myHandle);
    8000230c:	00853503          	ld	a0,8(a0)
    80002310:	fffff097          	auipc	ra,0xfffff
    80002314:	22c080e7          	jalr	556(ra) # 8000153c <_Z11sem_trywaitP3sem>
}
    80002318:	00813083          	ld	ra,8(sp)
    8000231c:	00013403          	ld	s0,0(sp)
    80002320:	01010113          	addi	sp,sp,16
    80002324:	00008067          	ret

0000000080002328 <_ZN7Console4getcEv>:

char Console::getc () {
    80002328:	ff010113          	addi	sp,sp,-16
    8000232c:	00813423          	sd	s0,8(sp)
    80002330:	01010413          	addi	s0,sp,16
	__asm__ volatile("mv a0, %0" : : "r" (SyscallCodes::GET_C));
    80002334:	04100793          	li	a5,65
    80002338:	00078513          	mv	a0,a5

	__asm__ volatile("ecall");
    8000233c:	00000073          	ecall

	char res;
	__asm__ volatile ("mv %0, a0" : "=r" (res));
    80002340:	00050513          	mv	a0,a0
	return res;
}
    80002344:	0ff57513          	andi	a0,a0,255
    80002348:	00813403          	ld	s0,8(sp)
    8000234c:	01010113          	addi	sp,sp,16
    80002350:	00008067          	ret

0000000080002354 <_ZN7Console4putcEc>:

void Console::putc(char c) {
    80002354:	ff010113          	addi	sp,sp,-16
    80002358:	00813423          	sd	s0,8(sp)
    8000235c:	01010413          	addi	s0,sp,16
	__asm__ volatile("mv a1, %0" : : "r" (c));
    80002360:	00050593          	mv	a1,a0

	__asm__ volatile("mv a0, %0" : : "r" (SyscallCodes::PUT_C));
    80002364:	04200793          	li	a5,66
    80002368:	00078513          	mv	a0,a5

	__asm__ volatile("ecall");
    8000236c:	00000073          	ecall
}
    80002370:	00813403          	ld	s0,8(sp)
    80002374:	01010113          	addi	sp,sp,16
    80002378:	00008067          	ret

000000008000237c <_ZN6Thread3runEv>:
    void pass();
    void close();

protected:
    Thread();
    virtual void run(){};
    8000237c:	ff010113          	addi	sp,sp,-16
    80002380:	00813423          	sd	s0,8(sp)
    80002384:	01010413          	addi	s0,sp,16
    80002388:	00813403          	ld	s0,8(sp)
    8000238c:	01010113          	addi	sp,sp,16
    80002390:	00008067          	ret

0000000080002394 <_ZN5Riscv10popSppSpieEv>:
#include "../lib/console.h"
#include "../h/sem.hpp"
#include "../h/scheduler.hpp"

void Riscv::popSppSpie()
{
    80002394:	ff010113          	addi	sp,sp,-16
    80002398:	00813423          	sd	s0,8(sp)
    8000239c:	01010413          	addi	s0,sp,16
    __asm__ volatile ("csrs sstatus, %[mask]" : : [mask] "r"(mask));
}

inline void Riscv::mc_sstatus(uint64 mask)
{
    __asm__ volatile ("csrc sstatus, %[mask]" : : [mask] "r"(mask));
    800023a0:	10000793          	li	a5,256
    800023a4:	1007b073          	csrc	sstatus,a5
    mc_sstatus(SSTATUS_SPP);
    __asm__ volatile ("csrw sepc, ra");
    800023a8:	14109073          	csrw	sepc,ra
    __asm__ volatile ("sret");
    800023ac:	10200073          	sret

}
    800023b0:	00813403          	ld	s0,8(sp)
    800023b4:	01010113          	addi	sp,sp,16
    800023b8:	00008067          	ret

00000000800023bc <_ZN5Riscv20handleSupervisorTrapEv>:

void Riscv::handleSupervisorTrap(){
    800023bc:	fb010113          	addi	sp,sp,-80
    800023c0:	04113423          	sd	ra,72(sp)
    800023c4:	04813023          	sd	s0,64(sp)
    800023c8:	02913c23          	sd	s1,56(sp)
    800023cc:	03213823          	sd	s2,48(sp)
    800023d0:	05010413          	addi	s0,sp,80
    __asm__ volatile ("csrr %[scause], scause" : [scause] "=r"(scause));
    800023d4:	142027f3          	csrr	a5,scause
    800023d8:	fcf43023          	sd	a5,-64(s0)
    return scause;
    800023dc:	fc043783          	ld	a5,-64(s0)

    uint64 volatile scause = r_scause();
    800023e0:	fcf43c23          	sd	a5,-40(s0)
    __asm__ volatile ("csrr %[sepc], sepc" : [sepc] "=r"(sepc));
    800023e4:	141027f3          	csrr	a5,sepc
    800023e8:	faf43c23          	sd	a5,-72(s0)
    return sepc;
    800023ec:	fb843783          	ld	a5,-72(s0)
    uint64 volatile sepc = r_sepc() + 4;
    800023f0:	00478793          	addi	a5,a5,4
    800023f4:	fcf43823          	sd	a5,-48(s0)
}

inline uint64 Riscv::r_sstatus()
{
    uint64 volatile sstatus;
    __asm__ volatile ("csrr %[sstatus], sstatus" : [sstatus] "=r"(sstatus));
    800023f8:	100027f3          	csrr	a5,sstatus
    800023fc:	faf43823          	sd	a5,-80(s0)
    return sstatus;
    80002400:	fb043783          	ld	a5,-80(s0)
    uint64 volatile sstatus = r_sstatus();
    80002404:	fcf43423          	sd	a5,-56(s0)


    if(scause == 0x0000000000000008UL || scause == 0x0000000000000009UL){
    80002408:	fd843703          	ld	a4,-40(s0)
    8000240c:	00800793          	li	a5,8
    80002410:	04f70463          	beq	a4,a5,80002458 <_ZN5Riscv20handleSupervisorTrapEv+0x9c>
    80002414:	fd843703          	ld	a4,-40(s0)
    80002418:	00900793          	li	a5,9
    8000241c:	02f70e63          	beq	a4,a5,80002458 <_ZN5Riscv20handleSupervisorTrapEv+0x9c>

        w_sstatus(sstatus);
        w_sepc(sepc);

    }
    else if(scause == 0x8000000000000001UL)
    80002420:	fd843703          	ld	a4,-40(s0)
    80002424:	fff00793          	li	a5,-1
    80002428:	03f79793          	slli	a5,a5,0x3f
    8000242c:	00178793          	addi	a5,a5,1
    80002430:	36f70263          	beq	a4,a5,80002794 <_ZN5Riscv20handleSupervisorTrapEv+0x3d8>
    {
        mc_sip(SIP_SSIE);
    }
    else if (scause == 0x8000000000000009UL)
    80002434:	fd843703          	ld	a4,-40(s0)
    80002438:	fff00793          	li	a5,-1
    8000243c:	03f79793          	slli	a5,a5,0x3f
    80002440:	00978793          	addi	a5,a5,9
    80002444:	34f70e63          	beq	a4,a5,800027a0 <_ZN5Riscv20handleSupervisorTrapEv+0x3e4>
        // interrupt: yes; cause code: supervisor external interrupt (PLIC; could be keyboard)
        console_handler();
    }
    else
    {
        printInteger1(scause);
    80002448:	fd843503          	ld	a0,-40(s0)
    8000244c:	00001097          	auipc	ra,0x1
    80002450:	8a4080e7          	jalr	-1884(ra) # 80002cf0 <_Z13printInteger1m>
    }

    80002454:	0dc0006f          	j	80002530 <_ZN5Riscv20handleSupervisorTrapEv+0x174>
        __asm__ volatile("mv %0, a0" : "=r"(syscall_code));
    80002458:	00050793          	mv	a5,a0
        if(syscall_code == SyscallCodes::MEM_ALLOC)
    8000245c:	00100713          	li	a4,1
    80002460:	0ae78863          	beq	a5,a4,80002510 <_ZN5Riscv20handleSupervisorTrapEv+0x154>
        else if(syscall_code == SyscallCodes::MEM_FREE)
    80002464:	00200713          	li	a4,2
    80002468:	0ee78063          	beq	a5,a4,80002548 <_ZN5Riscv20handleSupervisorTrapEv+0x18c>
        else if(syscall_code == SyscallCodes::THREAD_CREATE)
    8000246c:	01100713          	li	a4,17
    80002470:	0ee78663          	beq	a5,a4,8000255c <_ZN5Riscv20handleSupervisorTrapEv+0x1a0>
        else if(syscall_code == SyscallCodes::THREAD_CREATE_BUT_NO_START)
    80002474:	01000713          	li	a4,16
    80002478:	10e78e63          	beq	a5,a4,80002594 <_ZN5Riscv20handleSupervisorTrapEv+0x1d8>
        else if(syscall_code == SyscallCodes::THREAD_START)
    8000247c:	01400713          	li	a4,20
    80002480:	12e78e63          	beq	a5,a4,800025bc <_ZN5Riscv20handleSupervisorTrapEv+0x200>
        else if(syscall_code == SyscallCodes::THREAD_DISPATCH) {
    80002484:	01300713          	li	a4,19
    80002488:	1ce78a63          	beq	a5,a4,8000265c <_ZN5Riscv20handleSupervisorTrapEv+0x2a0>
        else if(syscall_code == SyscallCodes::THREAD_EXIT) {
    8000248c:	01200713          	li	a4,18
    80002490:	1ce78c63          	beq	a5,a4,80002668 <_ZN5Riscv20handleSupervisorTrapEv+0x2ac>
        else if(syscall_code == SyscallCodes::THREAD_GET_ID) {
    80002494:	01500713          	li	a4,21
    80002498:	1ee78063          	beq	a5,a4,80002678 <_ZN5Riscv20handleSupervisorTrapEv+0x2bc>
        else if(syscall_code == SyscallCodes::THREAD_SET_MAX) {
    8000249c:	01600713          	li	a4,22
    800024a0:	1ee78863          	beq	a5,a4,80002690 <_ZN5Riscv20handleSupervisorTrapEv+0x2d4>
        else if(syscall_code == SyscallCodes::THREAD_JOIN) {
    800024a4:	01700713          	li	a4,23
    800024a8:	1ee78e63          	beq	a5,a4,800026a4 <_ZN5Riscv20handleSupervisorTrapEv+0x2e8>
        else if(syscall_code == SyscallCodes::BARRIER_OPEN) {
    800024ac:	01800713          	li	a4,24
    800024b0:	20e78263          	beq	a5,a4,800026b4 <_ZN5Riscv20handleSupervisorTrapEv+0x2f8>
        else if(syscall_code == SyscallCodes::BARRIER_PASS) {
    800024b4:	01900713          	li	a4,25
    800024b8:	20e78863          	beq	a5,a4,800026c8 <_ZN5Riscv20handleSupervisorTrapEv+0x30c>
        else if(syscall_code == SyscallCodes::BARRIER_CLOSE) {
    800024bc:	02000713          	li	a4,32
    800024c0:	24e78063          	beq	a5,a4,80002700 <_ZN5Riscv20handleSupervisorTrapEv+0x344>
        else if(syscall_code == SyscallCodes::SEM_OPEN) {
    800024c4:	02100713          	li	a4,33
    800024c8:	24e78463          	beq	a5,a4,80002710 <_ZN5Riscv20handleSupervisorTrapEv+0x354>
        else if(syscall_code == SyscallCodes::SEM_CLOSE) {
    800024cc:	02200713          	li	a4,34
    800024d0:	26e78263          	beq	a5,a4,80002734 <_ZN5Riscv20handleSupervisorTrapEv+0x378>
        else if(syscall_code== SyscallCodes::SEM_WAIT) {
    800024d4:	02300713          	li	a4,35
    800024d8:	26e78863          	beq	a5,a4,80002748 <_ZN5Riscv20handleSupervisorTrapEv+0x38c>
        else if(syscall_code== SyscallCodes::SEM_SIGNAL) {
    800024dc:	02400713          	li	a4,36
    800024e0:	26e78e63          	beq	a5,a4,8000275c <_ZN5Riscv20handleSupervisorTrapEv+0x3a0>
        else if(syscall_code== SyscallCodes::SEM_TRYWAIT) {
    800024e4:	02600713          	li	a4,38
    800024e8:	28e78463          	beq	a5,a4,80002770 <_ZN5Riscv20handleSupervisorTrapEv+0x3b4>
        else if(syscall_code == SyscallCodes::GET_C) {
    800024ec:	04100713          	li	a4,65
    800024f0:	28e78a63          	beq	a5,a4,80002784 <_ZN5Riscv20handleSupervisorTrapEv+0x3c8>
        else if(syscall_code == SyscallCodes::PUT_C) {
    800024f4:	04200713          	li	a4,66
    800024f8:	02e79463          	bne	a5,a4,80002520 <_ZN5Riscv20handleSupervisorTrapEv+0x164>
            __asm__ volatile("mv %0, a1" : "=r" (c));
    800024fc:	00058513          	mv	a0,a1
            __putc(c);
    80002500:	0ff57513          	andi	a0,a0,255
    80002504:	00006097          	auipc	ra,0x6
    80002508:	008080e7          	jalr	8(ra) # 8000850c <__putc>
    8000250c:	0140006f          	j	80002520 <_ZN5Riscv20handleSupervisorTrapEv+0x164>
            __asm__ volatile("mv %0, a1" : "=r"(blocks));
    80002510:	00058513          	mv	a0,a1
            void* allocated_mem = memoryAllocator::allocate(blocks);
    80002514:	fffff097          	auipc	ra,0xfffff
    80002518:	7e8080e7          	jalr	2024(ra) # 80001cfc <_ZN15memoryAllocator8allocateEm>
            __asm__ volatile("sd %0, 80(x8)": : "r"(allocated_mem));
    8000251c:	04a43823          	sd	a0,80(s0)
        w_sstatus(sstatus);
    80002520:	fc843783          	ld	a5,-56(s0)
}

inline void Riscv::w_sstatus(uint64 sstatus)
{
    __asm__ volatile ("csrw sstatus, %[sstatus]" : : [sstatus] "r"(sstatus));
    80002524:	10079073          	csrw	sstatus,a5
        w_sepc(sepc);
    80002528:	fd043783          	ld	a5,-48(s0)
    __asm__ volatile ("csrw sepc, %[sepc]" : : [sepc] "r"(sepc));
    8000252c:	14179073          	csrw	sepc,a5
    80002530:	04813083          	ld	ra,72(sp)
    80002534:	04013403          	ld	s0,64(sp)
    80002538:	03813483          	ld	s1,56(sp)
    8000253c:	03013903          	ld	s2,48(sp)
    80002540:	05010113          	addi	sp,sp,80
    80002544:	00008067          	ret
            __asm__ volatile("mv %0, a1" : "=r" (ptr));
    80002548:	00058513          	mv	a0,a1
            int code = memoryAllocator::deallocate((void*)ptr);
    8000254c:	00000097          	auipc	ra,0x0
    80002550:	870080e7          	jalr	-1936(ra) # 80001dbc <_ZN15memoryAllocator10deallocateEPv>
            __asm__ volatile("sd %0, 80(x8)": : "r" (code));
    80002554:	04a43823          	sd	a0,80(s0)
    80002558:	fc9ff06f          	j	80002520 <_ZN5Riscv20handleSupervisorTrapEv+0x164>
            __asm__ volatile("ld %0, 88(x8)" : "=r" (handle));
    8000255c:	05843903          	ld	s2,88(s0)
            __asm__ volatile("ld %0, 96(x8)" : "=r" (start_routine));
    80002560:	06043483          	ld	s1,96(s0)
            __asm__ volatile("ld %0, 104(x8)" : "=r" (arg));
    80002564:	06843583          	ld	a1,104(s0)
            __asm__ volatile("ld %0, 112(x8)" : "=r" (stack_space));
    80002568:	07043603          	ld	a2,112(s0)
            *handle = TCB::thread_create(start_routine, arg, stack_space);
    8000256c:	00048513          	mv	a0,s1
    80002570:	fffff097          	auipc	ra,0xfffff
    80002574:	2e0080e7          	jalr	736(ra) # 80001850 <_ZN3TCB13thread_createEPFvPvES0_S0_>
    80002578:	00a93023          	sd	a0,0(s2)
            if (start_routine != nullptr) { Scheduler::put(*handle); }
    8000257c:	00048663          	beqz	s1,80002588 <_ZN5Riscv20handleSupervisorTrapEv+0x1cc>
    80002580:	00000097          	auipc	ra,0x0
    80002584:	570080e7          	jalr	1392(ra) # 80002af0 <_ZN9Scheduler3putEP3TCB>
            __asm__ volatile("sd %0, 80(x8)" : : "r"(0));
    80002588:	00000793          	li	a5,0
    8000258c:	04f43823          	sd	a5,80(s0)
    80002590:	f91ff06f          	j	80002520 <_ZN5Riscv20handleSupervisorTrapEv+0x164>
            __asm__ volatile("ld %0, 88(x8)" : "=r" (handle));
    80002594:	05843483          	ld	s1,88(s0)
            __asm__ volatile("ld %0, 96(x8)" : "=r" (start_routine));
    80002598:	06043503          	ld	a0,96(s0)
            __asm__ volatile("ld %0, 104(x8)" : "=r" (arg));
    8000259c:	06843583          	ld	a1,104(s0)
            __asm__ volatile("ld %0, 112(x8)" : "=r" (stack_space));
    800025a0:	07043603          	ld	a2,112(s0)
            *handle = TCB::thread_create(start_routine, arg, stack_space);
    800025a4:	fffff097          	auipc	ra,0xfffff
    800025a8:	2ac080e7          	jalr	684(ra) # 80001850 <_ZN3TCB13thread_createEPFvPvES0_S0_>
    800025ac:	00a4b023          	sd	a0,0(s1)
            __asm__ volatile("sd %0, 80(x8)" : : "r"(0));
    800025b0:	00000793          	li	a5,0
    800025b4:	04f43823          	sd	a5,80(s0)
    800025b8:	f69ff06f          	j	80002520 <_ZN5Riscv20handleSupervisorTrapEv+0x164>
            __asm__ volatile("mv %0, a1" : "=r" (handle));
    800025bc:	00058493          	mv	s1,a1
    static int getActive() { return active; }
    800025c0:	00009797          	auipc	a5,0x9
    800025c4:	2087b783          	ld	a5,520(a5) # 8000b7c8 <_GLOBAL_OFFSET_TABLE_+0x8>
    800025c8:	0007a783          	lw	a5,0(a5)
    static int getMax() { return max; }
    800025cc:	00009717          	auipc	a4,0x9
    800025d0:	21c73703          	ld	a4,540(a4) # 8000b7e8 <_GLOBAL_OFFSET_TABLE_+0x28>
    800025d4:	00072703          	lw	a4,0(a4)
            if(TCB::getActive()>=TCB::getMax()) {
    800025d8:	04e7c863          	blt	a5,a4,80002628 <_ZN5Riscv20handleSupervisorTrapEv+0x26c>
            return memoryAllocator::allocate(blocks);
    800025dc:	00100513          	li	a0,1
    800025e0:	fffff097          	auipc	ra,0xfffff
    800025e4:	71c080e7          	jalr	1820(ra) # 80001cfc <_ZN15memoryAllocator8allocateEm>
        Elem(T *data, Elem *next) : data(data), next(next) {}
    800025e8:	00953023          	sd	s1,0(a0)
    800025ec:	00053423          	sd	zero,8(a0)
        if (tail) {
    800025f0:	00009797          	auipc	a5,0x9
    800025f4:	2007b783          	ld	a5,512(a5) # 8000b7f0 <_GLOBAL_OFFSET_TABLE_+0x30>
    800025f8:	0087b783          	ld	a5,8(a5)
    800025fc:	00078c63          	beqz	a5,80002614 <_ZN5Riscv20handleSupervisorTrapEv+0x258>
            tail->next = elem;
    80002600:	00a7b423          	sd	a0,8(a5)
            tail = elem;
    80002604:	00009797          	auipc	a5,0x9
    80002608:	1ec7b783          	ld	a5,492(a5) # 8000b7f0 <_GLOBAL_OFFSET_TABLE_+0x30>
    8000260c:	00a7b423          	sd	a0,8(a5)
    80002610:	f11ff06f          	j	80002520 <_ZN5Riscv20handleSupervisorTrapEv+0x164>
            head = tail = elem;
    80002614:	00009797          	auipc	a5,0x9
    80002618:	1dc7b783          	ld	a5,476(a5) # 8000b7f0 <_GLOBAL_OFFSET_TABLE_+0x30>
    8000261c:	00a7b423          	sd	a0,8(a5)
    80002620:	00a7b023          	sd	a0,0(a5)
    80002624:	efdff06f          	j	80002520 <_ZN5Riscv20handleSupervisorTrapEv+0x164>
                printString1("pustio jednu\n");
    80002628:	00007517          	auipc	a0,0x7
    8000262c:	c8050513          	addi	a0,a0,-896 # 800092a8 <CONSOLE_STATUS+0x298>
    80002630:	00000097          	auipc	ra,0x0
    80002634:	67c080e7          	jalr	1660(ra) # 80002cac <_Z12printString1PKc>
    static int getActive() { return active; }
    80002638:	00009717          	auipc	a4,0x9
    8000263c:	19073703          	ld	a4,400(a4) # 8000b7c8 <_GLOBAL_OFFSET_TABLE_+0x8>
    80002640:	00072783          	lw	a5,0(a4)
                TCB::setActive(TCB::getActive()+1);
    80002644:	0017879b          	addiw	a5,a5,1
    static void setActive(int value) { active = value; }
    80002648:	00f72023          	sw	a5,0(a4)
                Scheduler::put(handle);
    8000264c:	00048513          	mv	a0,s1
    80002650:	00000097          	auipc	ra,0x0
    80002654:	4a0080e7          	jalr	1184(ra) # 80002af0 <_ZN9Scheduler3putEP3TCB>
    80002658:	ec9ff06f          	j	80002520 <_ZN5Riscv20handleSupervisorTrapEv+0x164>
            TCB::thread_dispatch();
    8000265c:	fffff097          	auipc	ra,0xfffff
    80002660:	2ac080e7          	jalr	684(ra) # 80001908 <_ZN3TCB15thread_dispatchEv>
    80002664:	ebdff06f          	j	80002520 <_ZN5Riscv20handleSupervisorTrapEv+0x164>
            int res = TCB::thread_exit();
    80002668:	fffff097          	auipc	ra,0xfffff
    8000266c:	39c080e7          	jalr	924(ra) # 80001a04 <_ZN3TCB11thread_exitEv>
            __asm__ volatile("sd %0, 80(x8)" : : "r"(res));
    80002670:	04a43823          	sd	a0,80(s0)
    80002674:	eadff06f          	j	80002520 <_ZN5Riscv20handleSupervisorTrapEv+0x164>
            int res = TCB::getThreadId();
    80002678:	fffff097          	auipc	ra,0xfffff
    8000267c:	3ec080e7          	jalr	1004(ra) # 80001a64 <_ZN3TCB11getThreadIdEv>
            __asm__ volatile("sd %0, 80(x8)" : : "r"(res));
    80002680:	04a43823          	sd	a0,80(s0)
            TCB::thread_dispatch();
    80002684:	fffff097          	auipc	ra,0xfffff
    80002688:	284080e7          	jalr	644(ra) # 80001908 <_ZN3TCB15thread_dispatchEv>
    8000268c:	e95ff06f          	j	80002520 <_ZN5Riscv20handleSupervisorTrapEv+0x164>
            __asm__ volatile("mv %0, a1" : "=r" (max));
    80002690:	00058713          	mv	a4,a1
    static void SetMaximumThreads(int num_of_threads){ max = num_of_threads; };
    80002694:	00009797          	auipc	a5,0x9
    80002698:	1547b783          	ld	a5,340(a5) # 8000b7e8 <_GLOBAL_OFFSET_TABLE_+0x28>
    8000269c:	00e7a023          	sw	a4,0(a5)
    800026a0:	e81ff06f          	j	80002520 <_ZN5Riscv20handleSupervisorTrapEv+0x164>
            __asm__ volatile("mv %0, a1" : "=r" (handle));
    800026a4:	00058513          	mv	a0,a1
            TCB::thread_join(handle);
    800026a8:	fffff097          	auipc	ra,0xfffff
    800026ac:	3e0080e7          	jalr	992(ra) # 80001a88 <_ZN3TCB11thread_joinEPS_>
    800026b0:	e71ff06f          	j	80002520 <_ZN5Riscv20handleSupervisorTrapEv+0x164>
            __asm__ volatile("mv %0, a1" : "=r" (handle));
    800026b4:	00058793          	mv	a5,a1
            handle->barrier->open();
    800026b8:	0007b503          	ld	a0,0(a5)
    800026bc:	fffff097          	auipc	ra,0xfffff
    800026c0:	554080e7          	jalr	1364(ra) # 80001c10 <_ZN7Barrier4openEv>
    800026c4:	e5dff06f          	j	80002520 <_ZN5Riscv20handleSupervisorTrapEv+0x164>
            __asm__ volatile("mv %0, a1" : "=r" (handle));
    800026c8:	00058793          	mv	a5,a1
            handle->barrier->pass();
    800026cc:	0007b783          	ld	a5,0(a5)
    void open();
    void close() {
        key = 0;
    };
    void pass() {
        if(owner->running==owner) {
    800026d0:	0007b703          	ld	a4,0(a5)
    800026d4:	00009697          	auipc	a3,0x9
    800026d8:	1246b683          	ld	a3,292(a3) # 8000b7f8 <_GLOBAL_OFFSET_TABLE_+0x38>
    800026dc:	0006b683          	ld	a3,0(a3)
    800026e0:	e4d710e3          	bne	a4,a3,80002520 <_ZN5Riscv20handleSupervisorTrapEv+0x164>
            if(key==0) {
    800026e4:	0087a783          	lw	a5,8(a5)
    800026e8:	e2079ce3          	bnez	a5,80002520 <_ZN5Riscv20handleSupervisorTrapEv+0x164>
    void setBarriered(bool value) { barriered = value; }
    800026ec:	00100793          	li	a5,1
    800026f0:	02f709a3          	sb	a5,51(a4)
                owner->setBarriered(true);
                owner->thread_dispatch();
    800026f4:	fffff097          	auipc	ra,0xfffff
    800026f8:	214080e7          	jalr	532(ra) # 80001908 <_ZN3TCB15thread_dispatchEv>
    800026fc:	e25ff06f          	j	80002520 <_ZN5Riscv20handleSupervisorTrapEv+0x164>
            __asm__ volatile("mv %0, a1" : "=r" (handle));
    80002700:	00058793          	mv	a5,a1
            handle->barrier->close();
    80002704:	0007b783          	ld	a5,0(a5)
        key = 0;
    80002708:	0007a423          	sw	zero,8(a5)
    };
    8000270c:	e15ff06f          	j	80002520 <_ZN5Riscv20handleSupervisorTrapEv+0x164>
            __asm__ volatile("mv %0, a1" : "=r" (handle));
    80002710:	00058493          	mv	s1,a1
            __asm__ volatile("mv %0, a2" : "=r" (init));
    80002714:	00060513          	mv	a0,a2
            *handle = sem::sem_open(init);
    80002718:	0005051b          	sext.w	a0,a0
    8000271c:	00000097          	auipc	ra,0x0
    80002720:	090080e7          	jalr	144(ra) # 800027ac <_ZN3sem8sem_openEj>
    80002724:	00a4b023          	sd	a0,0(s1)
            __asm__ volatile("sd %0, 80(x8)" : : "r"(0));
    80002728:	00000793          	li	a5,0
    8000272c:	04f43823          	sd	a5,80(s0)
    80002730:	df1ff06f          	j	80002520 <_ZN5Riscv20handleSupervisorTrapEv+0x164>
            __asm__ volatile("mv %0, a1" : "=r" (handle));
    80002734:	00058513          	mv	a0,a1
            int res = handle->sem_close();
    80002738:	00000097          	auipc	ra,0x0
    8000273c:	0bc080e7          	jalr	188(ra) # 800027f4 <_ZN3sem9sem_closeEv>
            __asm__ volatile("sd %0, 80(x8)" : : "r"(res));
    80002740:	04a43823          	sd	a0,80(s0)
    80002744:	dddff06f          	j	80002520 <_ZN5Riscv20handleSupervisorTrapEv+0x164>
            __asm__ volatile("mv %0, a1" : "=r" (id));
    80002748:	00058513          	mv	a0,a1
            int res = id->sem_wait();
    8000274c:	00000097          	auipc	ra,0x0
    80002750:	144080e7          	jalr	324(ra) # 80002890 <_ZN3sem8sem_waitEv>
            __asm__ volatile("sd %0, 80(x8)" : : "r"(res));
    80002754:	04a43823          	sd	a0,80(s0)
    80002758:	dc9ff06f          	j	80002520 <_ZN5Riscv20handleSupervisorTrapEv+0x164>
            __asm__ volatile("mv %0, a1" : "=r" (id));
    8000275c:	00058513          	mv	a0,a1
            int res = id->sem_signal();
    80002760:	00000097          	auipc	ra,0x0
    80002764:	1ec080e7          	jalr	492(ra) # 8000294c <_ZN3sem10sem_signalEv>
            __asm__ volatile("sd %0, 80(x8)" : : "r"(res));
    80002768:	04a43823          	sd	a0,80(s0)
    8000276c:	db5ff06f          	j	80002520 <_ZN5Riscv20handleSupervisorTrapEv+0x164>
            __asm__ volatile("mv %0, a1" : "=r" (id));
    80002770:	00058513          	mv	a0,a1
            int res = id->sem_trywait();
    80002774:	00000097          	auipc	ra,0x0
    80002778:	274080e7          	jalr	628(ra) # 800029e8 <_ZN3sem11sem_trywaitEv>
            __asm__ volatile("sd %0, 80(x8)" : : "r"(res));
    8000277c:	04a43823          	sd	a0,80(s0)
    80002780:	da1ff06f          	j	80002520 <_ZN5Riscv20handleSupervisorTrapEv+0x164>
            c = __getc();
    80002784:	00006097          	auipc	ra,0x6
    80002788:	dc4080e7          	jalr	-572(ra) # 80008548 <__getc>
            __asm__ volatile("sd %0, 80(x8)" : : "r"(c));
    8000278c:	04a43823          	sd	a0,80(s0)
    80002790:	d91ff06f          	j	80002520 <_ZN5Riscv20handleSupervisorTrapEv+0x164>
    __asm__ volatile ("csrc sip, %[mask]" : : [mask] "r"(mask));
    80002794:	00200793          	li	a5,2
    80002798:	1447b073          	csrc	sip,a5
}
    8000279c:	d95ff06f          	j	80002530 <_ZN5Riscv20handleSupervisorTrapEv+0x174>
        console_handler();
    800027a0:	00006097          	auipc	ra,0x6
    800027a4:	de0080e7          	jalr	-544(ra) # 80008580 <console_handler>
    800027a8:	d89ff06f          	j	80002530 <_ZN5Riscv20handleSupervisorTrapEv+0x174>

00000000800027ac <_ZN3sem8sem_openEj>:
#include "../h/tcb.hpp"
#include "../h/scheduler.hpp"
#include "../h/list.hpp"


sem* sem::sem_open(unsigned init) {
    800027ac:	fe010113          	addi	sp,sp,-32
    800027b0:	00113c23          	sd	ra,24(sp)
    800027b4:	00813823          	sd	s0,16(sp)
    800027b8:	00913423          	sd	s1,8(sp)
    800027bc:	02010413          	addi	s0,sp,32
    800027c0:	00050493          	mv	s1,a0
        return memoryAllocator::allocate(blocks);
    800027c4:	00100513          	li	a0,1
    800027c8:	fffff097          	auipc	ra,0xfffff
    800027cc:	534080e7          	jalr	1332(ra) # 80001cfc <_ZN15memoryAllocator8allocateEm>
    800027d0:	00050223          	sb	zero,4(a0)
    };

    Elem *head, *tail;


    List() : head(0), tail(0) {}
    800027d4:	00053423          	sd	zero,8(a0)
    800027d8:	00053823          	sd	zero,16(a0)
    sem* newSem = new sem();

    newSem->val = init;
    800027dc:	00952023          	sw	s1,0(a0)
    newSem->setClosed(false);

    return newSem;

}
    800027e0:	01813083          	ld	ra,24(sp)
    800027e4:	01013403          	ld	s0,16(sp)
    800027e8:	00813483          	ld	s1,8(sp)
    800027ec:	02010113          	addi	sp,sp,32
    800027f0:	00008067          	ret

00000000800027f4 <_ZN3sem9sem_closeEv>:
        memoryAllocator::deallocate(ptr);
    }

    void setClosed(bool value) { closed = value; }

    bool isClosed() const { return closed; }
    800027f4:	00454783          	lbu	a5,4(a0)

int sem::sem_close(){

    if(isClosed()) {
    800027f8:	06079663          	bnez	a5,80002864 <_ZN3sem9sem_closeEv+0x70>
int sem::sem_close(){
    800027fc:	fe010113          	addi	sp,sp,-32
    80002800:	00113c23          	sd	ra,24(sp)
    80002804:	00813823          	sd	s0,16(sp)
    80002808:	00913423          	sd	s1,8(sp)
    8000280c:	01213023          	sd	s2,0(sp)
    80002810:	02010413          	addi	s0,sp,32
    80002814:	00050493          	mv	s1,a0
    void setClosed(bool value) { closed = value; }
    80002818:	00100793          	li	a5,1
    8000281c:	00f50223          	sb	a5,4(a0)
    80002820:	0240006f          	j	80002844 <_ZN3sem9sem_closeEv+0x50>
    {
        if (!head) { return 0; }

        Elem *elem = head;
        head = head->next;
        if (!head) { tail = 0; }
    80002824:	0004b823          	sd	zero,16(s1)

        T *ret = elem->data;
    80002828:	00053903          	ld	s2,0(a0)
            memoryAllocator::deallocate(ptr);
    8000282c:	fffff097          	auipc	ra,0xfffff
    80002830:	590080e7          	jalr	1424(ra) # 80001dbc <_ZN15memoryAllocator10deallocateEPv>

    bool isBarriered() const { return barriered; }

    void setFinished(bool value) { finished = value; }

    void setBlocked(bool value) { blocked = value; }
    80002834:	020908a3          	sb	zero,49(s2)

    while(blocked.peekFirst()) {

        TCB* unblocked = blocked.removeFirst();
        unblocked->setBlocked(false);
        Scheduler::put(unblocked);
    80002838:	00090513          	mv	a0,s2
    8000283c:	00000097          	auipc	ra,0x0
    80002840:	2b4080e7          	jalr	692(ra) # 80002af0 <_ZN9Scheduler3putEP3TCB>
        return ret;
    }

    T *peekFirst()
    {
        if (!head) { return 0; }
    80002844:	0084b503          	ld	a0,8(s1)
    80002848:	02050263          	beqz	a0,8000286c <_ZN3sem9sem_closeEv+0x78>
        return head->data;
    8000284c:	00053783          	ld	a5,0(a0)
    while(blocked.peekFirst()) {
    80002850:	02078c63          	beqz	a5,80002888 <_ZN3sem9sem_closeEv+0x94>
        head = head->next;
    80002854:	00853783          	ld	a5,8(a0)
    80002858:	00f4b423          	sd	a5,8(s1)
        if (!head) { tail = 0; }
    8000285c:	fc0796e3          	bnez	a5,80002828 <_ZN3sem9sem_closeEv+0x34>
    80002860:	fc5ff06f          	j	80002824 <_ZN3sem9sem_closeEv+0x30>
        return -1;
    80002864:	fff00513          	li	a0,-1

    }

    return 0;

}
    80002868:	00008067          	ret
    return 0;
    8000286c:	00000513          	li	a0,0
}
    80002870:	01813083          	ld	ra,24(sp)
    80002874:	01013403          	ld	s0,16(sp)
    80002878:	00813483          	ld	s1,8(sp)
    8000287c:	00013903          	ld	s2,0(sp)
    80002880:	02010113          	addi	sp,sp,32
    80002884:	00008067          	ret
    return 0;
    80002888:	00000513          	li	a0,0
    8000288c:	fe5ff06f          	j	80002870 <_ZN3sem9sem_closeEv+0x7c>

0000000080002890 <_ZN3sem8sem_waitEv>:
    bool isClosed() const { return closed; }
    80002890:	00454783          	lbu	a5,4(a0)

int sem::sem_wait() {

    if(isClosed()) {
    80002894:	0a079463          	bnez	a5,8000293c <_ZN3sem8sem_waitEv+0xac>
int sem::sem_wait() {
    80002898:	fe010113          	addi	sp,sp,-32
    8000289c:	00113c23          	sd	ra,24(sp)
    800028a0:	00813823          	sd	s0,16(sp)
    800028a4:	00913423          	sd	s1,8(sp)
    800028a8:	01213023          	sd	s2,0(sp)
    800028ac:	02010413          	addi	s0,sp,32
    800028b0:	00050493          	mv	s1,a0
        return -1;
    }

    if (--val < 0) {
    800028b4:	00052783          	lw	a5,0(a0)
    800028b8:	fff7879b          	addiw	a5,a5,-1
    800028bc:	00f52023          	sw	a5,0(a0)
    800028c0:	02079713          	slli	a4,a5,0x20
    800028c4:	02074463          	bltz	a4,800028ec <_ZN3sem8sem_waitEv+0x5c>
    800028c8:	0044c783          	lbu	a5,4(s1)
        TCB::running->setBlocked(true);
        blocked.addLast(TCB::running);
        TCB::thread_dispatch();
    }

    if(isClosed()) {
    800028cc:	06079c63          	bnez	a5,80002944 <_ZN3sem8sem_waitEv+0xb4>
        return -1;
    }

    return 0;
    800028d0:	00000513          	li	a0,0
}
    800028d4:	01813083          	ld	ra,24(sp)
    800028d8:	01013403          	ld	s0,16(sp)
    800028dc:	00813483          	ld	s1,8(sp)
    800028e0:	00013903          	ld	s2,0(sp)
    800028e4:	02010113          	addi	sp,sp,32
    800028e8:	00008067          	ret
        TCB::running->setBlocked(true);
    800028ec:	00009797          	auipc	a5,0x9
    800028f0:	f0c7b783          	ld	a5,-244(a5) # 8000b7f8 <_GLOBAL_OFFSET_TABLE_+0x38>
    800028f4:	0007b903          	ld	s2,0(a5)
    800028f8:	00100793          	li	a5,1
    800028fc:	02f908a3          	sb	a5,49(s2)
            return memoryAllocator::allocate(blocks);
    80002900:	00100513          	li	a0,1
    80002904:	fffff097          	auipc	ra,0xfffff
    80002908:	3f8080e7          	jalr	1016(ra) # 80001cfc <_ZN15memoryAllocator8allocateEm>
        Elem(T *data, Elem *next) : data(data), next(next) {}
    8000290c:	01253023          	sd	s2,0(a0)
    80002910:	00053423          	sd	zero,8(a0)
        if (tail) {
    80002914:	0104b783          	ld	a5,16(s1)
    80002918:	00078c63          	beqz	a5,80002930 <_ZN3sem8sem_waitEv+0xa0>
            tail->next = elem;
    8000291c:	00a7b423          	sd	a0,8(a5)
            tail = elem;
    80002920:	00a4b823          	sd	a0,16(s1)
        TCB::thread_dispatch();
    80002924:	fffff097          	auipc	ra,0xfffff
    80002928:	fe4080e7          	jalr	-28(ra) # 80001908 <_ZN3TCB15thread_dispatchEv>
    8000292c:	f9dff06f          	j	800028c8 <_ZN3sem8sem_waitEv+0x38>
            head = tail = elem;
    80002930:	00a4b823          	sd	a0,16(s1)
    80002934:	00a4b423          	sd	a0,8(s1)
    80002938:	fedff06f          	j	80002924 <_ZN3sem8sem_waitEv+0x94>
        return -1;
    8000293c:	fff00513          	li	a0,-1
}
    80002940:	00008067          	ret
        return -1;
    80002944:	fff00513          	li	a0,-1
    80002948:	f8dff06f          	j	800028d4 <_ZN3sem8sem_waitEv+0x44>

000000008000294c <_ZN3sem10sem_signalEv>:
    8000294c:	00454703          	lbu	a4,4(a0)

int sem::sem_signal() {

    if(isClosed()) {
    80002950:	08071863          	bnez	a4,800029e0 <_ZN3sem10sem_signalEv+0x94>
    80002954:	00050793          	mv	a5,a0
        return -1;
    }

    if (++val <= 0) {
    80002958:	00052703          	lw	a4,0(a0)
    8000295c:	0017071b          	addiw	a4,a4,1
    80002960:	0007069b          	sext.w	a3,a4
    80002964:	00e52023          	sw	a4,0(a0)
    80002968:	00d05663          	blez	a3,80002974 <_ZN3sem10sem_signalEv+0x28>
        unblocked->setBlocked(false);
        Scheduler::put(unblocked);

    }

    return 0;
    8000296c:	00000513          	li	a0,0
}
    80002970:	00008067          	ret
int sem::sem_signal() {
    80002974:	fe010113          	addi	sp,sp,-32
    80002978:	00113c23          	sd	ra,24(sp)
    8000297c:	00813823          	sd	s0,16(sp)
    80002980:	00913423          	sd	s1,8(sp)
    80002984:	02010413          	addi	s0,sp,32
        if (!head) { return 0; }
    80002988:	00853503          	ld	a0,8(a0)
    8000298c:	04050663          	beqz	a0,800029d8 <_ZN3sem10sem_signalEv+0x8c>
        head = head->next;
    80002990:	00853703          	ld	a4,8(a0)
    80002994:	00e7b423          	sd	a4,8(a5)
        if (!head) { tail = 0; }
    80002998:	02070c63          	beqz	a4,800029d0 <_ZN3sem10sem_signalEv+0x84>
        T *ret = elem->data;
    8000299c:	00053483          	ld	s1,0(a0)
            memoryAllocator::deallocate(ptr);
    800029a0:	fffff097          	auipc	ra,0xfffff
    800029a4:	41c080e7          	jalr	1052(ra) # 80001dbc <_ZN15memoryAllocator10deallocateEPv>
    800029a8:	020488a3          	sb	zero,49(s1)
        Scheduler::put(unblocked);
    800029ac:	00048513          	mv	a0,s1
    800029b0:	00000097          	auipc	ra,0x0
    800029b4:	140080e7          	jalr	320(ra) # 80002af0 <_ZN9Scheduler3putEP3TCB>
    return 0;
    800029b8:	00000513          	li	a0,0
}
    800029bc:	01813083          	ld	ra,24(sp)
    800029c0:	01013403          	ld	s0,16(sp)
    800029c4:	00813483          	ld	s1,8(sp)
    800029c8:	02010113          	addi	sp,sp,32
    800029cc:	00008067          	ret
        if (!head) { tail = 0; }
    800029d0:	0007b823          	sd	zero,16(a5)
    800029d4:	fc9ff06f          	j	8000299c <_ZN3sem10sem_signalEv+0x50>
        if (!head) { return 0; }
    800029d8:	00050493          	mv	s1,a0
    800029dc:	fcdff06f          	j	800029a8 <_ZN3sem10sem_signalEv+0x5c>
        return -1;
    800029e0:	fff00513          	li	a0,-1
    800029e4:	00008067          	ret

00000000800029e8 <_ZN3sem11sem_trywaitEv>:

int sem::sem_trywait(){
    800029e8:	ff010113          	addi	sp,sp,-16
    800029ec:	00813423          	sd	s0,8(sp)
    800029f0:	01010413          	addi	s0,sp,16
    800029f4:	00454703          	lbu	a4,4(a0)

    if(isClosed()) {
    800029f8:	02071463          	bnez	a4,80002a20 <_ZN3sem11sem_trywaitEv+0x38>
    800029fc:	00050793          	mv	a5,a0
        return -1;
    }

    if(val>0){
    80002a00:	00052703          	lw	a4,0(a0)
    80002a04:	02e05663          	blez	a4,80002a30 <_ZN3sem11sem_trywaitEv+0x48>
        val--;
    80002a08:	fff7071b          	addiw	a4,a4,-1
    80002a0c:	0007051b          	sext.w	a0,a4
    80002a10:	00e7a023          	sw	a4,0(a5)

        if(val==0) {
    80002a14:	00050863          	beqz	a0,80002a24 <_ZN3sem11sem_trywaitEv+0x3c>
            return 0;
        }

        return 1;
    80002a18:	00100513          	li	a0,1
    80002a1c:	0080006f          	j	80002a24 <_ZN3sem11sem_trywaitEv+0x3c>
        return -1;
    80002a20:	fff00513          	li	a0,-1
    //semafor je zauzet

    return -1;


    80002a24:	00813403          	ld	s0,8(sp)
    80002a28:	01010113          	addi	sp,sp,16
    80002a2c:	00008067          	ret
    return -1;
    80002a30:	fff00513          	li	a0,-1
    80002a34:	ff1ff06f          	j	80002a24 <_ZN3sem11sem_trywaitEv+0x3c>

0000000080002a38 <_Z41__static_initialization_and_destruction_0ii>:
{

    threadcnt= threadcnt+1;

    readyCoroutineQueue.addLast(tcb);
    80002a38:	ff010113          	addi	sp,sp,-16
    80002a3c:	00813423          	sd	s0,8(sp)
    80002a40:	01010413          	addi	s0,sp,16
    80002a44:	00100793          	li	a5,1
    80002a48:	00f50863          	beq	a0,a5,80002a58 <_Z41__static_initialization_and_destruction_0ii+0x20>
    80002a4c:	00813403          	ld	s0,8(sp)
    80002a50:	01010113          	addi	sp,sp,16
    80002a54:	00008067          	ret
    80002a58:	000107b7          	lui	a5,0x10
    80002a5c:	fff78793          	addi	a5,a5,-1 # ffff <_entry-0x7fff0001>
    80002a60:	fef596e3          	bne	a1,a5,80002a4c <_Z41__static_initialization_and_destruction_0ii+0x14>
    List() : head(0), tail(0) {}
    80002a64:	00009797          	auipc	a5,0x9
    80002a68:	e2c78793          	addi	a5,a5,-468 # 8000b890 <_ZN9Scheduler19readyCoroutineQueueE>
    80002a6c:	0007b023          	sd	zero,0(a5)
    80002a70:	0007b423          	sd	zero,8(a5)
    80002a74:	fd9ff06f          	j	80002a4c <_Z41__static_initialization_and_destruction_0ii+0x14>

0000000080002a78 <_ZN9Scheduler3getEv>:
{
    80002a78:	fe010113          	addi	sp,sp,-32
    80002a7c:	00113c23          	sd	ra,24(sp)
    80002a80:	00813823          	sd	s0,16(sp)
    80002a84:	00913423          	sd	s1,8(sp)
    80002a88:	02010413          	addi	s0,sp,32
    threadcnt= threadcnt-1;
    80002a8c:	00009797          	auipc	a5,0x9
    80002a90:	e0478793          	addi	a5,a5,-508 # 8000b890 <_ZN9Scheduler19readyCoroutineQueueE>
    80002a94:	0107a703          	lw	a4,16(a5)
    80002a98:	fff7071b          	addiw	a4,a4,-1
    80002a9c:	00e7a823          	sw	a4,16(a5)
        if (!head) { return 0; }
    80002aa0:	0007b503          	ld	a0,0(a5)
    80002aa4:	04050263          	beqz	a0,80002ae8 <_ZN9Scheduler3getEv+0x70>
        head = head->next;
    80002aa8:	00853783          	ld	a5,8(a0)
    80002aac:	00009717          	auipc	a4,0x9
    80002ab0:	def73223          	sd	a5,-540(a4) # 8000b890 <_ZN9Scheduler19readyCoroutineQueueE>
        if (!head) { tail = 0; }
    80002ab4:	02078463          	beqz	a5,80002adc <_ZN9Scheduler3getEv+0x64>
        T *ret = elem->data;
    80002ab8:	00053483          	ld	s1,0(a0)
            memoryAllocator::deallocate(ptr);
    80002abc:	fffff097          	auipc	ra,0xfffff
    80002ac0:	300080e7          	jalr	768(ra) # 80001dbc <_ZN15memoryAllocator10deallocateEPv>
}
    80002ac4:	00048513          	mv	a0,s1
    80002ac8:	01813083          	ld	ra,24(sp)
    80002acc:	01013403          	ld	s0,16(sp)
    80002ad0:	00813483          	ld	s1,8(sp)
    80002ad4:	02010113          	addi	sp,sp,32
    80002ad8:	00008067          	ret
        if (!head) { tail = 0; }
    80002adc:	00009797          	auipc	a5,0x9
    80002ae0:	da07be23          	sd	zero,-580(a5) # 8000b898 <_ZN9Scheduler19readyCoroutineQueueE+0x8>
    80002ae4:	fd5ff06f          	j	80002ab8 <_ZN9Scheduler3getEv+0x40>
        if (!head) { return 0; }
    80002ae8:	00050493          	mv	s1,a0
    return readyCoroutineQueue.removeFirst();
    80002aec:	fd9ff06f          	j	80002ac4 <_ZN9Scheduler3getEv+0x4c>

0000000080002af0 <_ZN9Scheduler3putEP3TCB>:
{
    80002af0:	fe010113          	addi	sp,sp,-32
    80002af4:	00113c23          	sd	ra,24(sp)
    80002af8:	00813823          	sd	s0,16(sp)
    80002afc:	00913423          	sd	s1,8(sp)
    80002b00:	01213023          	sd	s2,0(sp)
    80002b04:	02010413          	addi	s0,sp,32
    80002b08:	00050913          	mv	s2,a0
    threadcnt= threadcnt+1;
    80002b0c:	00009497          	auipc	s1,0x9
    80002b10:	d8448493          	addi	s1,s1,-636 # 8000b890 <_ZN9Scheduler19readyCoroutineQueueE>
    80002b14:	0104a783          	lw	a5,16(s1)
    80002b18:	0017879b          	addiw	a5,a5,1
    80002b1c:	00f4a823          	sw	a5,16(s1)
            return memoryAllocator::allocate(blocks);
    80002b20:	00100513          	li	a0,1
    80002b24:	fffff097          	auipc	ra,0xfffff
    80002b28:	1d8080e7          	jalr	472(ra) # 80001cfc <_ZN15memoryAllocator8allocateEm>
        Elem(T *data, Elem *next) : data(data), next(next) {}
    80002b2c:	01253023          	sd	s2,0(a0)
    80002b30:	00053423          	sd	zero,8(a0)
        if (tail) {
    80002b34:	0084b783          	ld	a5,8(s1)
    80002b38:	02078463          	beqz	a5,80002b60 <_ZN9Scheduler3putEP3TCB+0x70>
            tail->next = elem;
    80002b3c:	00a7b423          	sd	a0,8(a5)
            tail = elem;
    80002b40:	00009797          	auipc	a5,0x9
    80002b44:	d4a7bc23          	sd	a0,-680(a5) # 8000b898 <_ZN9Scheduler19readyCoroutineQueueE+0x8>
    80002b48:	01813083          	ld	ra,24(sp)
    80002b4c:	01013403          	ld	s0,16(sp)
    80002b50:	00813483          	ld	s1,8(sp)
    80002b54:	00013903          	ld	s2,0(sp)
    80002b58:	02010113          	addi	sp,sp,32
    80002b5c:	00008067          	ret
            head = tail = elem;
    80002b60:	00009797          	auipc	a5,0x9
    80002b64:	d3078793          	addi	a5,a5,-720 # 8000b890 <_ZN9Scheduler19readyCoroutineQueueE>
    80002b68:	00a7b423          	sd	a0,8(a5)
    80002b6c:	00a7b023          	sd	a0,0(a5)
    80002b70:	fd9ff06f          	j	80002b48 <_ZN9Scheduler3putEP3TCB+0x58>

0000000080002b74 <_GLOBAL__sub_I__ZN9Scheduler19readyCoroutineQueueE>:
    80002b74:	ff010113          	addi	sp,sp,-16
    80002b78:	00113423          	sd	ra,8(sp)
    80002b7c:	00813023          	sd	s0,0(sp)
    80002b80:	01010413          	addi	s0,sp,16
    80002b84:	000105b7          	lui	a1,0x10
    80002b88:	fff58593          	addi	a1,a1,-1 # ffff <_entry-0x7fff0001>
    80002b8c:	00100513          	li	a0,1
    80002b90:	00000097          	auipc	ra,0x0
    80002b94:	ea8080e7          	jalr	-344(ra) # 80002a38 <_Z41__static_initialization_and_destruction_0ii>
    80002b98:	00813083          	ld	ra,8(sp)
    80002b9c:	00013403          	ld	s0,0(sp)
    80002ba0:	01010113          	addi	sp,sp,16
    80002ba4:	00008067          	ret

0000000080002ba8 <_Z11mainWrapperPv>:
#include "../h/riscv.hpp"
#include "../h/scheduler.hpp"

void userMain();

void mainWrapper(void* arg) {
    80002ba8:	ff010113          	addi	sp,sp,-16
    80002bac:	00113423          	sd	ra,8(sp)
    80002bb0:	00813023          	sd	s0,0(sp)
    80002bb4:	01010413          	addi	s0,sp,16

    userMain();
    80002bb8:	fffff097          	auipc	ra,0xfffff
    80002bbc:	a08080e7          	jalr	-1528(ra) # 800015c0 <_Z8userMainv>

    printString1("userMain je gotov\n");
    80002bc0:	00006517          	auipc	a0,0x6
    80002bc4:	6f850513          	addi	a0,a0,1784 # 800092b8 <CONSOLE_STATUS+0x2a8>
    80002bc8:	00000097          	auipc	ra,0x0
    80002bcc:	0e4080e7          	jalr	228(ra) # 80002cac <_Z12printString1PKc>

}
    80002bd0:	00813083          	ld	ra,8(sp)
    80002bd4:	00013403          	ld	s0,0(sp)
    80002bd8:	01010113          	addi	sp,sp,16
    80002bdc:	00008067          	ret

0000000080002be0 <main>:

int main(){
    80002be0:	fe010113          	addi	sp,sp,-32
    80002be4:	00113c23          	sd	ra,24(sp)
    80002be8:	00813823          	sd	s0,16(sp)
    80002bec:	02010413          	addi	s0,sp,32

    memoryAllocator::start();
    80002bf0:	fffff097          	auipc	ra,0xfffff
    80002bf4:	0c0080e7          	jalr	192(ra) # 80001cb0 <_ZN15memoryAllocator5startEv>

    Riscv::w_stvec((uint64) &Riscv::supervisorTrap);
    80002bf8:	00009797          	auipc	a5,0x9
    80002bfc:	be07b783          	ld	a5,-1056(a5) # 8000b7d8 <_GLOBAL_OFFSET_TABLE_+0x18>
    __asm__ volatile ("csrw stvec, %[stvec]" : : [stvec] "r"(stvec));
    80002c00:	10579073          	csrw	stvec,a5
    __asm__ volatile ("csrs sstatus, %[mask]" : : [mask] "r"(mask));
    80002c04:	00200793          	li	a5,2
    80002c08:	1007a073          	csrs	sstatus,a5
    Riscv::ms_sstatus(Riscv::SSTATUS_SIE);

    TCB* main_thread = nullptr;
    80002c0c:	fe043423          	sd	zero,-24(s0)

    thread_create(&main_thread, nullptr, nullptr);
    80002c10:	00000613          	li	a2,0
    80002c14:	00000593          	li	a1,0
    80002c18:	fe840513          	addi	a0,s0,-24
    80002c1c:	ffffe097          	auipc	ra,0xffffe
    80002c20:	5a0080e7          	jalr	1440(ra) # 800011bc <_Z13thread_createPP3TCBPFvPvES2_>

    TCB::running = main_thread;
    80002c24:	00009797          	auipc	a5,0x9
    80002c28:	bd47b783          	ld	a5,-1068(a5) # 8000b7f8 <_GLOBAL_OFFSET_TABLE_+0x38>
    80002c2c:	fe843703          	ld	a4,-24(s0)
    80002c30:	00e7b023          	sd	a4,0(a5)
    static void SetMaximumThreads(int num_of_threads){ max = num_of_threads; };
    80002c34:	00009797          	auipc	a5,0x9
    80002c38:	bb47b783          	ld	a5,-1100(a5) # 8000b7e8 <_GLOBAL_OFFSET_TABLE_+0x28>
    80002c3c:	00a00713          	li	a4,10
    80002c40:	00e7a023          	sw	a4,0(a5)

    TCB::SetMaximumThreads(10);

    TCB* threadHandle1 = nullptr;
    80002c44:	fe043023          	sd	zero,-32(s0)


    thread_create(&threadHandle1, mainWrapper, nullptr);
    80002c48:	00000613          	li	a2,0
    80002c4c:	00000597          	auipc	a1,0x0
    80002c50:	f5c58593          	addi	a1,a1,-164 # 80002ba8 <_Z11mainWrapperPv>
    80002c54:	fe040513          	addi	a0,s0,-32
    80002c58:	ffffe097          	auipc	ra,0xffffe
    80002c5c:	564080e7          	jalr	1380(ra) # 800011bc <_Z13thread_createPP3TCBPFvPvES2_>



    printString1("Thread created successfully.\n");
    80002c60:	00006517          	auipc	a0,0x6
    80002c64:	67050513          	addi	a0,a0,1648 # 800092d0 <CONSOLE_STATUS+0x2c0>
    80002c68:	00000097          	auipc	ra,0x0
    80002c6c:	044080e7          	jalr	68(ra) # 80002cac <_Z12printString1PKc>

    while(!threadHandle1->isFinished()) {
    80002c70:	fe043783          	ld	a5,-32(s0)
    bool isFinished() const { return finished; }
    80002c74:	0307c783          	lbu	a5,48(a5)
    80002c78:	00079863          	bnez	a5,80002c88 <main+0xa8>
        thread_dispatch();
    80002c7c:	ffffe097          	auipc	ra,0xffffe
    80002c80:	6b8080e7          	jalr	1720(ra) # 80001334 <_Z15thread_dispatchv>
    80002c84:	fedff06f          	j	80002c70 <main+0x90>
    }

    // Glavna nit se vraća nakon što se sve niti završe
    printString1("Main thread finished.\n");
    80002c88:	00006517          	auipc	a0,0x6
    80002c8c:	66850513          	addi	a0,a0,1640 # 800092f0 <CONSOLE_STATUS+0x2e0>
    80002c90:	00000097          	auipc	ra,0x0
    80002c94:	01c080e7          	jalr	28(ra) # 80002cac <_Z12printString1PKc>



    return 0;
    80002c98:	00000513          	li	a0,0
    80002c9c:	01813083          	ld	ra,24(sp)
    80002ca0:	01013403          	ld	s0,16(sp)
    80002ca4:	02010113          	addi	sp,sp,32
    80002ca8:	00008067          	ret

0000000080002cac <_Z12printString1PKc>:

#include "../h/print.hpp"
#include "../lib/console.h"

void printString1(char const *string)
{
    80002cac:	fe010113          	addi	sp,sp,-32
    80002cb0:	00113c23          	sd	ra,24(sp)
    80002cb4:	00813823          	sd	s0,16(sp)
    80002cb8:	00913423          	sd	s1,8(sp)
    80002cbc:	02010413          	addi	s0,sp,32
    80002cc0:	00050493          	mv	s1,a0
    while (*string != '\0')
    80002cc4:	0004c503          	lbu	a0,0(s1)
    80002cc8:	00050a63          	beqz	a0,80002cdc <_Z12printString1PKc+0x30>
    {
        __putc(*string);
    80002ccc:	00006097          	auipc	ra,0x6
    80002cd0:	840080e7          	jalr	-1984(ra) # 8000850c <__putc>
        string++;
    80002cd4:	00148493          	addi	s1,s1,1
    while (*string != '\0')
    80002cd8:	fedff06f          	j	80002cc4 <_Z12printString1PKc+0x18>
    }
}
    80002cdc:	01813083          	ld	ra,24(sp)
    80002ce0:	01013403          	ld	s0,16(sp)
    80002ce4:	00813483          	ld	s1,8(sp)
    80002ce8:	02010113          	addi	sp,sp,32
    80002cec:	00008067          	ret

0000000080002cf0 <_Z13printInteger1m>:

void printInteger1(uint64 integer)
{
    80002cf0:	fd010113          	addi	sp,sp,-48
    80002cf4:	02113423          	sd	ra,40(sp)
    80002cf8:	02813023          	sd	s0,32(sp)
    80002cfc:	00913c23          	sd	s1,24(sp)
    80002d00:	03010413          	addi	s0,sp,48
    {
        neg = 1;
        x = -integer;
    } else
    {
        x = integer;
    80002d04:	0005051b          	sext.w	a0,a0
    }

    i = 0;
    80002d08:	00000493          	li	s1,0
    do
    {
        buf[i++] = digits[x % 10];
    80002d0c:	00a00613          	li	a2,10
    80002d10:	02c5773b          	remuw	a4,a0,a2
    80002d14:	02071693          	slli	a3,a4,0x20
    80002d18:	0206d693          	srli	a3,a3,0x20
    80002d1c:	00006717          	auipc	a4,0x6
    80002d20:	5ec70713          	addi	a4,a4,1516 # 80009308 <_ZZ13printInteger1mE6digits>
    80002d24:	00d70733          	add	a4,a4,a3
    80002d28:	00074703          	lbu	a4,0(a4)
    80002d2c:	fe040693          	addi	a3,s0,-32
    80002d30:	009687b3          	add	a5,a3,s1
    80002d34:	0014849b          	addiw	s1,s1,1
    80002d38:	fee78823          	sb	a4,-16(a5)
    } while ((x /= 10) != 0);
    80002d3c:	0005071b          	sext.w	a4,a0
    80002d40:	02c5553b          	divuw	a0,a0,a2
    80002d44:	00900793          	li	a5,9
    80002d48:	fce7e2e3          	bltu	a5,a4,80002d0c <_Z13printInteger1m+0x1c>
    if (neg)
        buf[i++] = '-';

    while (--i >= 0)
    80002d4c:	fff4849b          	addiw	s1,s1,-1
    80002d50:	0004ce63          	bltz	s1,80002d6c <_Z13printInteger1m+0x7c>
        __putc(buf[i]);
    80002d54:	fe040793          	addi	a5,s0,-32
    80002d58:	009787b3          	add	a5,a5,s1
    80002d5c:	ff07c503          	lbu	a0,-16(a5)
    80002d60:	00005097          	auipc	ra,0x5
    80002d64:	7ac080e7          	jalr	1964(ra) # 8000850c <__putc>
    80002d68:	fe5ff06f          	j	80002d4c <_Z13printInteger1m+0x5c>
    80002d6c:	02813083          	ld	ra,40(sp)
    80002d70:	02013403          	ld	s0,32(sp)
    80002d74:	01813483          	ld	s1,24(sp)
    80002d78:	03010113          	addi	sp,sp,48
    80002d7c:	00008067          	ret

0000000080002d80 <_ZL16producerKeyboardPv>:
    sem_t wait;
};

static volatile int threadEnd = 0;

static void producerKeyboard(void *arg) {
    80002d80:	fd010113          	addi	sp,sp,-48
    80002d84:	02113423          	sd	ra,40(sp)
    80002d88:	02813023          	sd	s0,32(sp)
    80002d8c:	00913c23          	sd	s1,24(sp)
    80002d90:	01213823          	sd	s2,16(sp)
    80002d94:	01313423          	sd	s3,8(sp)
    80002d98:	03010413          	addi	s0,sp,48
    80002d9c:	00050993          	mv	s3,a0
    struct thread_data *data = (struct thread_data *) arg;

    int key;
    int i = 0;
    80002da0:	00000913          	li	s2,0
    80002da4:	00c0006f          	j	80002db0 <_ZL16producerKeyboardPv+0x30>
        printString("MOj PRoducer = ");
        printInt(i);
        printString("\n");

        if (i % (10 * data->id) == 0) {
            thread_dispatch();
    80002da8:	ffffe097          	auipc	ra,0xffffe
    80002dac:	58c080e7          	jalr	1420(ra) # 80001334 <_Z15thread_dispatchv>
    while ((key = getc()) != 0x1b) {
    80002db0:	ffffe097          	auipc	ra,0xffffe
    80002db4:	7bc080e7          	jalr	1980(ra) # 8000156c <_Z4getcv>
    80002db8:	0005059b          	sext.w	a1,a0
    80002dbc:	01b00793          	li	a5,27
    80002dc0:	06f58463          	beq	a1,a5,80002e28 <_ZL16producerKeyboardPv+0xa8>
        data->buffer->put(key);
    80002dc4:	0089b503          	ld	a0,8(s3)
    80002dc8:	00003097          	auipc	ra,0x3
    80002dcc:	404080e7          	jalr	1028(ra) # 800061cc <_ZN6Buffer3putEi>
        i++;
    80002dd0:	0019049b          	addiw	s1,s2,1
    80002dd4:	0004891b          	sext.w	s2,s1
        printString("MOj PRoducer = ");
    80002dd8:	00006517          	auipc	a0,0x6
    80002ddc:	54050513          	addi	a0,a0,1344 # 80009318 <_ZZ13printInteger1mE6digits+0x10>
    80002de0:	00002097          	auipc	ra,0x2
    80002de4:	6a0080e7          	jalr	1696(ra) # 80005480 <_Z11printStringPKc>
        printInt(i);
    80002de8:	00000613          	li	a2,0
    80002dec:	00a00593          	li	a1,10
    80002df0:	00090513          	mv	a0,s2
    80002df4:	00003097          	auipc	ra,0x3
    80002df8:	83c080e7          	jalr	-1988(ra) # 80005630 <_Z8printIntiii>
        printString("\n");
    80002dfc:	00006517          	auipc	a0,0x6
    80002e00:	39450513          	addi	a0,a0,916 # 80009190 <CONSOLE_STATUS+0x180>
    80002e04:	00002097          	auipc	ra,0x2
    80002e08:	67c080e7          	jalr	1660(ra) # 80005480 <_Z11printStringPKc>
        if (i % (10 * data->id) == 0) {
    80002e0c:	0009a703          	lw	a4,0(s3)
    80002e10:	0027179b          	slliw	a5,a4,0x2
    80002e14:	00e787bb          	addw	a5,a5,a4
    80002e18:	0017979b          	slliw	a5,a5,0x1
    80002e1c:	02f4e7bb          	remw	a5,s1,a5
    80002e20:	f80798e3          	bnez	a5,80002db0 <_ZL16producerKeyboardPv+0x30>
    80002e24:	f85ff06f          	j	80002da8 <_ZL16producerKeyboardPv+0x28>
        }
    }

    threadEnd = 1;
    80002e28:	00100793          	li	a5,1
    80002e2c:	00009717          	auipc	a4,0x9
    80002e30:	a6f72e23          	sw	a5,-1412(a4) # 8000b8a8 <_ZL9threadEnd>
    data->buffer->put('!');
    80002e34:	02100593          	li	a1,33
    80002e38:	0089b503          	ld	a0,8(s3)
    80002e3c:	00003097          	auipc	ra,0x3
    80002e40:	390080e7          	jalr	912(ra) # 800061cc <_ZN6Buffer3putEi>

    sem_signal(data->wait);
    80002e44:	0109b503          	ld	a0,16(s3)
    80002e48:	ffffe097          	auipc	ra,0xffffe
    80002e4c:	6c4080e7          	jalr	1732(ra) # 8000150c <_Z10sem_signalP3sem>
}
    80002e50:	02813083          	ld	ra,40(sp)
    80002e54:	02013403          	ld	s0,32(sp)
    80002e58:	01813483          	ld	s1,24(sp)
    80002e5c:	01013903          	ld	s2,16(sp)
    80002e60:	00813983          	ld	s3,8(sp)
    80002e64:	03010113          	addi	sp,sp,48
    80002e68:	00008067          	ret

0000000080002e6c <_ZL8producerPv>:

static void producer(void *arg) {
    80002e6c:	fe010113          	addi	sp,sp,-32
    80002e70:	00113c23          	sd	ra,24(sp)
    80002e74:	00813823          	sd	s0,16(sp)
    80002e78:	00913423          	sd	s1,8(sp)
    80002e7c:	01213023          	sd	s2,0(sp)
    80002e80:	02010413          	addi	s0,sp,32
    80002e84:	00050493          	mv	s1,a0
    struct thread_data *data = (struct thread_data *) arg;

    int i = 0;
    80002e88:	00000913          	li	s2,0
    80002e8c:	00c0006f          	j	80002e98 <_ZL8producerPv+0x2c>
    while (!threadEnd) {
        data->buffer->put(data->id + '0');
        i++;

        if (i % (10 * data->id) == 0) {
            thread_dispatch();
    80002e90:	ffffe097          	auipc	ra,0xffffe
    80002e94:	4a4080e7          	jalr	1188(ra) # 80001334 <_Z15thread_dispatchv>
    while (!threadEnd) {
    80002e98:	00009797          	auipc	a5,0x9
    80002e9c:	a107a783          	lw	a5,-1520(a5) # 8000b8a8 <_ZL9threadEnd>
    80002ea0:	02079e63          	bnez	a5,80002edc <_ZL8producerPv+0x70>
        data->buffer->put(data->id + '0');
    80002ea4:	0004a583          	lw	a1,0(s1)
    80002ea8:	0305859b          	addiw	a1,a1,48
    80002eac:	0084b503          	ld	a0,8(s1)
    80002eb0:	00003097          	auipc	ra,0x3
    80002eb4:	31c080e7          	jalr	796(ra) # 800061cc <_ZN6Buffer3putEi>
        i++;
    80002eb8:	0019071b          	addiw	a4,s2,1
    80002ebc:	0007091b          	sext.w	s2,a4
        if (i % (10 * data->id) == 0) {
    80002ec0:	0004a683          	lw	a3,0(s1)
    80002ec4:	0026979b          	slliw	a5,a3,0x2
    80002ec8:	00d787bb          	addw	a5,a5,a3
    80002ecc:	0017979b          	slliw	a5,a5,0x1
    80002ed0:	02f767bb          	remw	a5,a4,a5
    80002ed4:	fc0792e3          	bnez	a5,80002e98 <_ZL8producerPv+0x2c>
    80002ed8:	fb9ff06f          	j	80002e90 <_ZL8producerPv+0x24>
        }
    }

    sem_signal(data->wait);
    80002edc:	0104b503          	ld	a0,16(s1)
    80002ee0:	ffffe097          	auipc	ra,0xffffe
    80002ee4:	62c080e7          	jalr	1580(ra) # 8000150c <_Z10sem_signalP3sem>
}
    80002ee8:	01813083          	ld	ra,24(sp)
    80002eec:	01013403          	ld	s0,16(sp)
    80002ef0:	00813483          	ld	s1,8(sp)
    80002ef4:	00013903          	ld	s2,0(sp)
    80002ef8:	02010113          	addi	sp,sp,32
    80002efc:	00008067          	ret

0000000080002f00 <_ZL8consumerPv>:

static void consumer(void *arg) {
    80002f00:	fd010113          	addi	sp,sp,-48
    80002f04:	02113423          	sd	ra,40(sp)
    80002f08:	02813023          	sd	s0,32(sp)
    80002f0c:	00913c23          	sd	s1,24(sp)
    80002f10:	01213823          	sd	s2,16(sp)
    80002f14:	01313423          	sd	s3,8(sp)
    80002f18:	03010413          	addi	s0,sp,48
    80002f1c:	00050913          	mv	s2,a0
    struct thread_data *data = (struct thread_data *) arg;

    int i = 0;
    80002f20:	00000993          	li	s3,0
    80002f24:	01c0006f          	j	80002f40 <_ZL8consumerPv+0x40>
        printInt(i);
        printString("\n");


        if (i % (5 * data->id) == 0) {
            thread_dispatch();
    80002f28:	ffffe097          	auipc	ra,0xffffe
    80002f2c:	40c080e7          	jalr	1036(ra) # 80001334 <_Z15thread_dispatchv>
    80002f30:	0840006f          	j	80002fb4 <_ZL8consumerPv+0xb4>
        }

        if (i % 80 == 0) {
            putc('\n');
    80002f34:	00a00513          	li	a0,10
    80002f38:	ffffe097          	auipc	ra,0xffffe
    80002f3c:	660080e7          	jalr	1632(ra) # 80001598 <_Z4putcc>
    while (!threadEnd) {
    80002f40:	00009797          	auipc	a5,0x9
    80002f44:	9687a783          	lw	a5,-1688(a5) # 8000b8a8 <_ZL9threadEnd>
    80002f48:	08079a63          	bnez	a5,80002fdc <_ZL8consumerPv+0xdc>
        int key = data->buffer->get();
    80002f4c:	00893503          	ld	a0,8(s2)
    80002f50:	00003097          	auipc	ra,0x3
    80002f54:	30c080e7          	jalr	780(ra) # 8000625c <_ZN6Buffer3getEv>
        i++;
    80002f58:	0019849b          	addiw	s1,s3,1
    80002f5c:	0004899b          	sext.w	s3,s1
        putc(key);
    80002f60:	0ff57513          	andi	a0,a0,255
    80002f64:	ffffe097          	auipc	ra,0xffffe
    80002f68:	634080e7          	jalr	1588(ra) # 80001598 <_Z4putcc>
        printString("Consumer i = ");
    80002f6c:	00006517          	auipc	a0,0x6
    80002f70:	3bc50513          	addi	a0,a0,956 # 80009328 <_ZZ13printInteger1mE6digits+0x20>
    80002f74:	00002097          	auipc	ra,0x2
    80002f78:	50c080e7          	jalr	1292(ra) # 80005480 <_Z11printStringPKc>
        printInt(i);
    80002f7c:	00000613          	li	a2,0
    80002f80:	00a00593          	li	a1,10
    80002f84:	00098513          	mv	a0,s3
    80002f88:	00002097          	auipc	ra,0x2
    80002f8c:	6a8080e7          	jalr	1704(ra) # 80005630 <_Z8printIntiii>
        printString("\n");
    80002f90:	00006517          	auipc	a0,0x6
    80002f94:	20050513          	addi	a0,a0,512 # 80009190 <CONSOLE_STATUS+0x180>
    80002f98:	00002097          	auipc	ra,0x2
    80002f9c:	4e8080e7          	jalr	1256(ra) # 80005480 <_Z11printStringPKc>
        if (i % (5 * data->id) == 0) {
    80002fa0:	00092703          	lw	a4,0(s2)
    80002fa4:	0027179b          	slliw	a5,a4,0x2
    80002fa8:	00e787bb          	addw	a5,a5,a4
    80002fac:	02f4e7bb          	remw	a5,s1,a5
    80002fb0:	f6078ce3          	beqz	a5,80002f28 <_ZL8consumerPv+0x28>
        if (i % 80 == 0) {
    80002fb4:	05000793          	li	a5,80
    80002fb8:	02f4e4bb          	remw	s1,s1,a5
    80002fbc:	f80492e3          	bnez	s1,80002f40 <_ZL8consumerPv+0x40>
    80002fc0:	f75ff06f          	j	80002f34 <_ZL8consumerPv+0x34>
        }
    }

    while (data->buffer->getCnt() > 0) {
        int key = data->buffer->get();
    80002fc4:	00893503          	ld	a0,8(s2)
    80002fc8:	00003097          	auipc	ra,0x3
    80002fcc:	294080e7          	jalr	660(ra) # 8000625c <_ZN6Buffer3getEv>
        putc(key);
    80002fd0:	0ff57513          	andi	a0,a0,255
    80002fd4:	ffffe097          	auipc	ra,0xffffe
    80002fd8:	5c4080e7          	jalr	1476(ra) # 80001598 <_Z4putcc>
    while (data->buffer->getCnt() > 0) {
    80002fdc:	00893503          	ld	a0,8(s2)
    80002fe0:	00003097          	auipc	ra,0x3
    80002fe4:	308080e7          	jalr	776(ra) # 800062e8 <_ZN6Buffer6getCntEv>
    80002fe8:	fca04ee3          	bgtz	a0,80002fc4 <_ZL8consumerPv+0xc4>
    }

    sem_signal(data->wait);
    80002fec:	01093503          	ld	a0,16(s2)
    80002ff0:	ffffe097          	auipc	ra,0xffffe
    80002ff4:	51c080e7          	jalr	1308(ra) # 8000150c <_Z10sem_signalP3sem>
}
    80002ff8:	02813083          	ld	ra,40(sp)
    80002ffc:	02013403          	ld	s0,32(sp)
    80003000:	01813483          	ld	s1,24(sp)
    80003004:	01013903          	ld	s2,16(sp)
    80003008:	00813983          	ld	s3,8(sp)
    8000300c:	03010113          	addi	sp,sp,48
    80003010:	00008067          	ret

0000000080003014 <_Z22producerConsumer_C_APIv>:

void producerConsumer_C_API() {
    80003014:	f9010113          	addi	sp,sp,-112
    80003018:	06113423          	sd	ra,104(sp)
    8000301c:	06813023          	sd	s0,96(sp)
    80003020:	04913c23          	sd	s1,88(sp)
    80003024:	05213823          	sd	s2,80(sp)
    80003028:	05313423          	sd	s3,72(sp)
    8000302c:	05413023          	sd	s4,64(sp)
    80003030:	03513c23          	sd	s5,56(sp)
    80003034:	03613823          	sd	s6,48(sp)
    80003038:	07010413          	addi	s0,sp,112
        sem_wait(waitForAll);
    }

    sem_close(waitForAll);

    delete buffer;
    8000303c:	00010b13          	mv	s6,sp
    printString("Unesite broj proizvodjaca?\n");
    80003040:	00006517          	auipc	a0,0x6
    80003044:	2f850513          	addi	a0,a0,760 # 80009338 <_ZZ13printInteger1mE6digits+0x30>
    80003048:	00002097          	auipc	ra,0x2
    8000304c:	438080e7          	jalr	1080(ra) # 80005480 <_Z11printStringPKc>
    getString(input, 30);
    80003050:	01e00593          	li	a1,30
    80003054:	fa040493          	addi	s1,s0,-96
    80003058:	00048513          	mv	a0,s1
    8000305c:	00002097          	auipc	ra,0x2
    80003060:	4ac080e7          	jalr	1196(ra) # 80005508 <_Z9getStringPci>
    threadNum = stringToInt(input);
    80003064:	00048513          	mv	a0,s1
    80003068:	00002097          	auipc	ra,0x2
    8000306c:	578080e7          	jalr	1400(ra) # 800055e0 <_Z11stringToIntPKc>
    80003070:	00050913          	mv	s2,a0
    printString("Unesite velicinu bafera?\n");
    80003074:	00006517          	auipc	a0,0x6
    80003078:	2e450513          	addi	a0,a0,740 # 80009358 <_ZZ13printInteger1mE6digits+0x50>
    8000307c:	00002097          	auipc	ra,0x2
    80003080:	404080e7          	jalr	1028(ra) # 80005480 <_Z11printStringPKc>
    getString(input, 30);
    80003084:	01e00593          	li	a1,30
    80003088:	00048513          	mv	a0,s1
    8000308c:	00002097          	auipc	ra,0x2
    80003090:	47c080e7          	jalr	1148(ra) # 80005508 <_Z9getStringPci>
    n = stringToInt(input);
    80003094:	00048513          	mv	a0,s1
    80003098:	00002097          	auipc	ra,0x2
    8000309c:	548080e7          	jalr	1352(ra) # 800055e0 <_Z11stringToIntPKc>
    800030a0:	00050493          	mv	s1,a0
    printString("Broj proizvodjaca "); printInt(threadNum);
    800030a4:	00006517          	auipc	a0,0x6
    800030a8:	2d450513          	addi	a0,a0,724 # 80009378 <_ZZ13printInteger1mE6digits+0x70>
    800030ac:	00002097          	auipc	ra,0x2
    800030b0:	3d4080e7          	jalr	980(ra) # 80005480 <_Z11printStringPKc>
    800030b4:	00000613          	li	a2,0
    800030b8:	00a00593          	li	a1,10
    800030bc:	00090513          	mv	a0,s2
    800030c0:	00002097          	auipc	ra,0x2
    800030c4:	570080e7          	jalr	1392(ra) # 80005630 <_Z8printIntiii>
    printString(" i velicina bafera "); printInt(n);
    800030c8:	00006517          	auipc	a0,0x6
    800030cc:	2c850513          	addi	a0,a0,712 # 80009390 <_ZZ13printInteger1mE6digits+0x88>
    800030d0:	00002097          	auipc	ra,0x2
    800030d4:	3b0080e7          	jalr	944(ra) # 80005480 <_Z11printStringPKc>
    800030d8:	00000613          	li	a2,0
    800030dc:	00a00593          	li	a1,10
    800030e0:	00048513          	mv	a0,s1
    800030e4:	00002097          	auipc	ra,0x2
    800030e8:	54c080e7          	jalr	1356(ra) # 80005630 <_Z8printIntiii>
    printString(".\n");
    800030ec:	00006517          	auipc	a0,0x6
    800030f0:	2bc50513          	addi	a0,a0,700 # 800093a8 <_ZZ13printInteger1mE6digits+0xa0>
    800030f4:	00002097          	auipc	ra,0x2
    800030f8:	38c080e7          	jalr	908(ra) # 80005480 <_Z11printStringPKc>
    if(threadNum > n) {
    800030fc:	0324c463          	blt	s1,s2,80003124 <_Z22producerConsumer_C_APIv+0x110>
    } else if (threadNum < 1) {
    80003100:	03205c63          	blez	s2,80003138 <_Z22producerConsumer_C_APIv+0x124>
    Buffer *buffer = new Buffer(n);
    80003104:	03800513          	li	a0,56
    80003108:	fffff097          	auipc	ra,0xfffff
    8000310c:	db4080e7          	jalr	-588(ra) # 80001ebc <_Znwm>
    80003110:	00050a13          	mv	s4,a0
    80003114:	00048593          	mv	a1,s1
    80003118:	00003097          	auipc	ra,0x3
    8000311c:	018080e7          	jalr	24(ra) # 80006130 <_ZN6BufferC1Ei>
    80003120:	0300006f          	j	80003150 <_Z22producerConsumer_C_APIv+0x13c>
        printString("Broj proizvodjaca ne sme biti manji od velicine bafera!\n");
    80003124:	00006517          	auipc	a0,0x6
    80003128:	28c50513          	addi	a0,a0,652 # 800093b0 <_ZZ13printInteger1mE6digits+0xa8>
    8000312c:	00002097          	auipc	ra,0x2
    80003130:	354080e7          	jalr	852(ra) # 80005480 <_Z11printStringPKc>
        return;
    80003134:	0140006f          	j	80003148 <_Z22producerConsumer_C_APIv+0x134>
        printString("Broj proizvodjaca mora biti veci od nula!\n");
    80003138:	00006517          	auipc	a0,0x6
    8000313c:	2b850513          	addi	a0,a0,696 # 800093f0 <_ZZ13printInteger1mE6digits+0xe8>
    80003140:	00002097          	auipc	ra,0x2
    80003144:	340080e7          	jalr	832(ra) # 80005480 <_Z11printStringPKc>
        return;
    80003148:	000b0113          	mv	sp,s6
    8000314c:	1500006f          	j	8000329c <_Z22producerConsumer_C_APIv+0x288>
    sem_open(&waitForAll, 0);
    80003150:	00000593          	li	a1,0
    80003154:	00008517          	auipc	a0,0x8
    80003158:	75c50513          	addi	a0,a0,1884 # 8000b8b0 <_ZL10waitForAll>
    8000315c:	ffffe097          	auipc	ra,0xffffe
    80003160:	31c080e7          	jalr	796(ra) # 80001478 <_Z8sem_openPP3semj>
    thread_t threads[threadNum];
    80003164:	00391793          	slli	a5,s2,0x3
    80003168:	00f78793          	addi	a5,a5,15
    8000316c:	ff07f793          	andi	a5,a5,-16
    80003170:	40f10133          	sub	sp,sp,a5
    80003174:	00010a93          	mv	s5,sp
    struct thread_data data[threadNum + 1];
    80003178:	0019071b          	addiw	a4,s2,1
    8000317c:	00171793          	slli	a5,a4,0x1
    80003180:	00e787b3          	add	a5,a5,a4
    80003184:	00379793          	slli	a5,a5,0x3
    80003188:	00f78793          	addi	a5,a5,15
    8000318c:	ff07f793          	andi	a5,a5,-16
    80003190:	40f10133          	sub	sp,sp,a5
    80003194:	00010993          	mv	s3,sp
    data[threadNum].id = threadNum;
    80003198:	00191613          	slli	a2,s2,0x1
    8000319c:	012607b3          	add	a5,a2,s2
    800031a0:	00379793          	slli	a5,a5,0x3
    800031a4:	00f987b3          	add	a5,s3,a5
    800031a8:	0127a023          	sw	s2,0(a5)
    data[threadNum].buffer = buffer;
    800031ac:	0147b423          	sd	s4,8(a5)
    data[threadNum].wait = waitForAll;
    800031b0:	00008717          	auipc	a4,0x8
    800031b4:	70073703          	ld	a4,1792(a4) # 8000b8b0 <_ZL10waitForAll>
    800031b8:	00e7b823          	sd	a4,16(a5)
    thread_create(&consumerThread, consumer, data + threadNum);
    800031bc:	00078613          	mv	a2,a5
    800031c0:	00000597          	auipc	a1,0x0
    800031c4:	d4058593          	addi	a1,a1,-704 # 80002f00 <_ZL8consumerPv>
    800031c8:	f9840513          	addi	a0,s0,-104
    800031cc:	ffffe097          	auipc	ra,0xffffe
    800031d0:	ff0080e7          	jalr	-16(ra) # 800011bc <_Z13thread_createPP3TCBPFvPvES2_>
    for (int i = 0; i < threadNum; i++) {
    800031d4:	00000493          	li	s1,0
    800031d8:	0280006f          	j	80003200 <_Z22producerConsumer_C_APIv+0x1ec>
        thread_create(threads + i,
    800031dc:	00000597          	auipc	a1,0x0
    800031e0:	ba458593          	addi	a1,a1,-1116 # 80002d80 <_ZL16producerKeyboardPv>
                      data + i);
    800031e4:	00179613          	slli	a2,a5,0x1
    800031e8:	00f60633          	add	a2,a2,a5
    800031ec:	00361613          	slli	a2,a2,0x3
        thread_create(threads + i,
    800031f0:	00c98633          	add	a2,s3,a2
    800031f4:	ffffe097          	auipc	ra,0xffffe
    800031f8:	fc8080e7          	jalr	-56(ra) # 800011bc <_Z13thread_createPP3TCBPFvPvES2_>
    for (int i = 0; i < threadNum; i++) {
    800031fc:	0014849b          	addiw	s1,s1,1
    80003200:	0524d263          	bge	s1,s2,80003244 <_Z22producerConsumer_C_APIv+0x230>
        data[i].id = i;
    80003204:	00149793          	slli	a5,s1,0x1
    80003208:	009787b3          	add	a5,a5,s1
    8000320c:	00379793          	slli	a5,a5,0x3
    80003210:	00f987b3          	add	a5,s3,a5
    80003214:	0097a023          	sw	s1,0(a5)
        data[i].buffer = buffer;
    80003218:	0147b423          	sd	s4,8(a5)
        data[i].wait = waitForAll;
    8000321c:	00008717          	auipc	a4,0x8
    80003220:	69473703          	ld	a4,1684(a4) # 8000b8b0 <_ZL10waitForAll>
    80003224:	00e7b823          	sd	a4,16(a5)
        thread_create(threads + i,
    80003228:	00048793          	mv	a5,s1
    8000322c:	00349513          	slli	a0,s1,0x3
    80003230:	00aa8533          	add	a0,s5,a0
    80003234:	fa9054e3          	blez	s1,800031dc <_Z22producerConsumer_C_APIv+0x1c8>
    80003238:	00000597          	auipc	a1,0x0
    8000323c:	c3458593          	addi	a1,a1,-972 # 80002e6c <_ZL8producerPv>
    80003240:	fa5ff06f          	j	800031e4 <_Z22producerConsumer_C_APIv+0x1d0>
    thread_dispatch();
    80003244:	ffffe097          	auipc	ra,0xffffe
    80003248:	0f0080e7          	jalr	240(ra) # 80001334 <_Z15thread_dispatchv>
    for (int i = 0; i <= threadNum; i++) {
    8000324c:	00000493          	li	s1,0
    80003250:	00994e63          	blt	s2,s1,8000326c <_Z22producerConsumer_C_APIv+0x258>
        sem_wait(waitForAll);
    80003254:	00008517          	auipc	a0,0x8
    80003258:	65c53503          	ld	a0,1628(a0) # 8000b8b0 <_ZL10waitForAll>
    8000325c:	ffffe097          	auipc	ra,0xffffe
    80003260:	280080e7          	jalr	640(ra) # 800014dc <_Z8sem_waitP3sem>
    for (int i = 0; i <= threadNum; i++) {
    80003264:	0014849b          	addiw	s1,s1,1
    80003268:	fe9ff06f          	j	80003250 <_Z22producerConsumer_C_APIv+0x23c>
    sem_close(waitForAll);
    8000326c:	00008517          	auipc	a0,0x8
    80003270:	64453503          	ld	a0,1604(a0) # 8000b8b0 <_ZL10waitForAll>
    80003274:	ffffe097          	auipc	ra,0xffffe
    80003278:	238080e7          	jalr	568(ra) # 800014ac <_Z9sem_closeP3sem>
    delete buffer;
    8000327c:	000a0e63          	beqz	s4,80003298 <_Z22producerConsumer_C_APIv+0x284>
    80003280:	000a0513          	mv	a0,s4
    80003284:	00003097          	auipc	ra,0x3
    80003288:	0ec080e7          	jalr	236(ra) # 80006370 <_ZN6BufferD1Ev>
    8000328c:	000a0513          	mv	a0,s4
    80003290:	fffff097          	auipc	ra,0xfffff
    80003294:	c7c080e7          	jalr	-900(ra) # 80001f0c <_ZdlPv>
    80003298:	000b0113          	mv	sp,s6

}
    8000329c:	f9040113          	addi	sp,s0,-112
    800032a0:	06813083          	ld	ra,104(sp)
    800032a4:	06013403          	ld	s0,96(sp)
    800032a8:	05813483          	ld	s1,88(sp)
    800032ac:	05013903          	ld	s2,80(sp)
    800032b0:	04813983          	ld	s3,72(sp)
    800032b4:	04013a03          	ld	s4,64(sp)
    800032b8:	03813a83          	ld	s5,56(sp)
    800032bc:	03013b03          	ld	s6,48(sp)
    800032c0:	07010113          	addi	sp,sp,112
    800032c4:	00008067          	ret
    800032c8:	00050493          	mv	s1,a0
    Buffer *buffer = new Buffer(n);
    800032cc:	000a0513          	mv	a0,s4
    800032d0:	fffff097          	auipc	ra,0xfffff
    800032d4:	c3c080e7          	jalr	-964(ra) # 80001f0c <_ZdlPv>
    800032d8:	00048513          	mv	a0,s1
    800032dc:	00009097          	auipc	ra,0x9
    800032e0:	6fc080e7          	jalr	1788(ra) # 8000c9d8 <_Unwind_Resume>

00000000800032e4 <_ZL9fibonaccim>:
static volatile bool finishedA = false;
static volatile bool finishedB = false;
static volatile bool finishedC = false;
static volatile bool finishedD = false;

static uint64 fibonacci(uint64 n) {
    800032e4:	fe010113          	addi	sp,sp,-32
    800032e8:	00113c23          	sd	ra,24(sp)
    800032ec:	00813823          	sd	s0,16(sp)
    800032f0:	00913423          	sd	s1,8(sp)
    800032f4:	01213023          	sd	s2,0(sp)
    800032f8:	02010413          	addi	s0,sp,32
    800032fc:	00050493          	mv	s1,a0
    if (n == 0 || n == 1) { return n; }
    80003300:	00100793          	li	a5,1
    80003304:	02a7f863          	bgeu	a5,a0,80003334 <_ZL9fibonaccim+0x50>
    if (n % 10 == 0) { thread_dispatch(); }
    80003308:	00a00793          	li	a5,10
    8000330c:	02f577b3          	remu	a5,a0,a5
    80003310:	02078e63          	beqz	a5,8000334c <_ZL9fibonaccim+0x68>
    return fibonacci(n - 1) + fibonacci(n - 2);
    80003314:	fff48513          	addi	a0,s1,-1
    80003318:	00000097          	auipc	ra,0x0
    8000331c:	fcc080e7          	jalr	-52(ra) # 800032e4 <_ZL9fibonaccim>
    80003320:	00050913          	mv	s2,a0
    80003324:	ffe48513          	addi	a0,s1,-2
    80003328:	00000097          	auipc	ra,0x0
    8000332c:	fbc080e7          	jalr	-68(ra) # 800032e4 <_ZL9fibonaccim>
    80003330:	00a90533          	add	a0,s2,a0
}
    80003334:	01813083          	ld	ra,24(sp)
    80003338:	01013403          	ld	s0,16(sp)
    8000333c:	00813483          	ld	s1,8(sp)
    80003340:	00013903          	ld	s2,0(sp)
    80003344:	02010113          	addi	sp,sp,32
    80003348:	00008067          	ret
    if (n % 10 == 0) { thread_dispatch(); }
    8000334c:	ffffe097          	auipc	ra,0xffffe
    80003350:	fe8080e7          	jalr	-24(ra) # 80001334 <_Z15thread_dispatchv>
    80003354:	fc1ff06f          	j	80003314 <_ZL9fibonaccim+0x30>

0000000080003358 <_ZN7WorkerA11workerBodyAEPv>:
    void run() override {
        workerBodyD(nullptr);
    }
};

void WorkerA::workerBodyA(void *arg) {
    80003358:	fe010113          	addi	sp,sp,-32
    8000335c:	00113c23          	sd	ra,24(sp)
    80003360:	00813823          	sd	s0,16(sp)
    80003364:	00913423          	sd	s1,8(sp)
    80003368:	01213023          	sd	s2,0(sp)
    8000336c:	02010413          	addi	s0,sp,32
    for (uint64 i = 0; i < 10; i++) {
    80003370:	00000913          	li	s2,0
    80003374:	0380006f          	j	800033ac <_ZN7WorkerA11workerBodyAEPv+0x54>
        printString("A: i="); printInt(i); printString("\n");
        for (uint64 j = 0; j < 10000; j++) {
            for (uint64 k = 0; k < 30000; k++) { /* busy wait */ }
            thread_dispatch();
    80003378:	ffffe097          	auipc	ra,0xffffe
    8000337c:	fbc080e7          	jalr	-68(ra) # 80001334 <_Z15thread_dispatchv>
        for (uint64 j = 0; j < 10000; j++) {
    80003380:	00148493          	addi	s1,s1,1
    80003384:	000027b7          	lui	a5,0x2
    80003388:	70f78793          	addi	a5,a5,1807 # 270f <_entry-0x7fffd8f1>
    8000338c:	0097ee63          	bltu	a5,s1,800033a8 <_ZN7WorkerA11workerBodyAEPv+0x50>
            for (uint64 k = 0; k < 30000; k++) { /* busy wait */ }
    80003390:	00000713          	li	a4,0
    80003394:	000077b7          	lui	a5,0x7
    80003398:	52f78793          	addi	a5,a5,1327 # 752f <_entry-0x7fff8ad1>
    8000339c:	fce7eee3          	bltu	a5,a4,80003378 <_ZN7WorkerA11workerBodyAEPv+0x20>
    800033a0:	00170713          	addi	a4,a4,1
    800033a4:	ff1ff06f          	j	80003394 <_ZN7WorkerA11workerBodyAEPv+0x3c>
    for (uint64 i = 0; i < 10; i++) {
    800033a8:	00190913          	addi	s2,s2,1
    800033ac:	00900793          	li	a5,9
    800033b0:	0527e063          	bltu	a5,s2,800033f0 <_ZN7WorkerA11workerBodyAEPv+0x98>
        printString("A: i="); printInt(i); printString("\n");
    800033b4:	00006517          	auipc	a0,0x6
    800033b8:	06c50513          	addi	a0,a0,108 # 80009420 <_ZZ13printInteger1mE6digits+0x118>
    800033bc:	00002097          	auipc	ra,0x2
    800033c0:	0c4080e7          	jalr	196(ra) # 80005480 <_Z11printStringPKc>
    800033c4:	00000613          	li	a2,0
    800033c8:	00a00593          	li	a1,10
    800033cc:	0009051b          	sext.w	a0,s2
    800033d0:	00002097          	auipc	ra,0x2
    800033d4:	260080e7          	jalr	608(ra) # 80005630 <_Z8printIntiii>
    800033d8:	00006517          	auipc	a0,0x6
    800033dc:	db850513          	addi	a0,a0,-584 # 80009190 <CONSOLE_STATUS+0x180>
    800033e0:	00002097          	auipc	ra,0x2
    800033e4:	0a0080e7          	jalr	160(ra) # 80005480 <_Z11printStringPKc>
        for (uint64 j = 0; j < 10000; j++) {
    800033e8:	00000493          	li	s1,0
    800033ec:	f99ff06f          	j	80003384 <_ZN7WorkerA11workerBodyAEPv+0x2c>
        }
    }
    printString("A finished!\n");
    800033f0:	00006517          	auipc	a0,0x6
    800033f4:	03850513          	addi	a0,a0,56 # 80009428 <_ZZ13printInteger1mE6digits+0x120>
    800033f8:	00002097          	auipc	ra,0x2
    800033fc:	088080e7          	jalr	136(ra) # 80005480 <_Z11printStringPKc>
    finishedA = true;
    80003400:	00100793          	li	a5,1
    80003404:	00008717          	auipc	a4,0x8
    80003408:	4af70a23          	sb	a5,1204(a4) # 8000b8b8 <_ZL9finishedA>
}
    8000340c:	01813083          	ld	ra,24(sp)
    80003410:	01013403          	ld	s0,16(sp)
    80003414:	00813483          	ld	s1,8(sp)
    80003418:	00013903          	ld	s2,0(sp)
    8000341c:	02010113          	addi	sp,sp,32
    80003420:	00008067          	ret

0000000080003424 <_ZN7WorkerB11workerBodyBEPv>:

void WorkerB::workerBodyB(void *arg) {
    80003424:	fe010113          	addi	sp,sp,-32
    80003428:	00113c23          	sd	ra,24(sp)
    8000342c:	00813823          	sd	s0,16(sp)
    80003430:	00913423          	sd	s1,8(sp)
    80003434:	01213023          	sd	s2,0(sp)
    80003438:	02010413          	addi	s0,sp,32
    for (uint64 i = 0; i < 16; i++) {
    8000343c:	00000913          	li	s2,0
    80003440:	0380006f          	j	80003478 <_ZN7WorkerB11workerBodyBEPv+0x54>
        printString("B: i="); printInt(i); printString("\n");
        for (uint64 j = 0; j < 10000; j++) {
            for (uint64 k = 0; k < 30000; k++) { /* busy wait */ }
            thread_dispatch();
    80003444:	ffffe097          	auipc	ra,0xffffe
    80003448:	ef0080e7          	jalr	-272(ra) # 80001334 <_Z15thread_dispatchv>
        for (uint64 j = 0; j < 10000; j++) {
    8000344c:	00148493          	addi	s1,s1,1
    80003450:	000027b7          	lui	a5,0x2
    80003454:	70f78793          	addi	a5,a5,1807 # 270f <_entry-0x7fffd8f1>
    80003458:	0097ee63          	bltu	a5,s1,80003474 <_ZN7WorkerB11workerBodyBEPv+0x50>
            for (uint64 k = 0; k < 30000; k++) { /* busy wait */ }
    8000345c:	00000713          	li	a4,0
    80003460:	000077b7          	lui	a5,0x7
    80003464:	52f78793          	addi	a5,a5,1327 # 752f <_entry-0x7fff8ad1>
    80003468:	fce7eee3          	bltu	a5,a4,80003444 <_ZN7WorkerB11workerBodyBEPv+0x20>
    8000346c:	00170713          	addi	a4,a4,1
    80003470:	ff1ff06f          	j	80003460 <_ZN7WorkerB11workerBodyBEPv+0x3c>
    for (uint64 i = 0; i < 16; i++) {
    80003474:	00190913          	addi	s2,s2,1
    80003478:	00f00793          	li	a5,15
    8000347c:	0527e063          	bltu	a5,s2,800034bc <_ZN7WorkerB11workerBodyBEPv+0x98>
        printString("B: i="); printInt(i); printString("\n");
    80003480:	00006517          	auipc	a0,0x6
    80003484:	fb850513          	addi	a0,a0,-72 # 80009438 <_ZZ13printInteger1mE6digits+0x130>
    80003488:	00002097          	auipc	ra,0x2
    8000348c:	ff8080e7          	jalr	-8(ra) # 80005480 <_Z11printStringPKc>
    80003490:	00000613          	li	a2,0
    80003494:	00a00593          	li	a1,10
    80003498:	0009051b          	sext.w	a0,s2
    8000349c:	00002097          	auipc	ra,0x2
    800034a0:	194080e7          	jalr	404(ra) # 80005630 <_Z8printIntiii>
    800034a4:	00006517          	auipc	a0,0x6
    800034a8:	cec50513          	addi	a0,a0,-788 # 80009190 <CONSOLE_STATUS+0x180>
    800034ac:	00002097          	auipc	ra,0x2
    800034b0:	fd4080e7          	jalr	-44(ra) # 80005480 <_Z11printStringPKc>
        for (uint64 j = 0; j < 10000; j++) {
    800034b4:	00000493          	li	s1,0
    800034b8:	f99ff06f          	j	80003450 <_ZN7WorkerB11workerBodyBEPv+0x2c>
        }
    }
    printString("B finished!\n");
    800034bc:	00006517          	auipc	a0,0x6
    800034c0:	f8450513          	addi	a0,a0,-124 # 80009440 <_ZZ13printInteger1mE6digits+0x138>
    800034c4:	00002097          	auipc	ra,0x2
    800034c8:	fbc080e7          	jalr	-68(ra) # 80005480 <_Z11printStringPKc>
    finishedB = true;
    800034cc:	00100793          	li	a5,1
    800034d0:	00008717          	auipc	a4,0x8
    800034d4:	3ef704a3          	sb	a5,1001(a4) # 8000b8b9 <_ZL9finishedB>
    thread_dispatch();
    800034d8:	ffffe097          	auipc	ra,0xffffe
    800034dc:	e5c080e7          	jalr	-420(ra) # 80001334 <_Z15thread_dispatchv>
}
    800034e0:	01813083          	ld	ra,24(sp)
    800034e4:	01013403          	ld	s0,16(sp)
    800034e8:	00813483          	ld	s1,8(sp)
    800034ec:	00013903          	ld	s2,0(sp)
    800034f0:	02010113          	addi	sp,sp,32
    800034f4:	00008067          	ret

00000000800034f8 <_ZN7WorkerC11workerBodyCEPv>:

void WorkerC::workerBodyC(void *arg) {
    800034f8:	fe010113          	addi	sp,sp,-32
    800034fc:	00113c23          	sd	ra,24(sp)
    80003500:	00813823          	sd	s0,16(sp)
    80003504:	00913423          	sd	s1,8(sp)
    80003508:	01213023          	sd	s2,0(sp)
    8000350c:	02010413          	addi	s0,sp,32
    uint8 i = 0;
    80003510:	00000493          	li	s1,0
    80003514:	0400006f          	j	80003554 <_ZN7WorkerC11workerBodyCEPv+0x5c>
    for (; i < 3; i++) {
        printString("C: i="); printInt(i); printString("\n");
    80003518:	00006517          	auipc	a0,0x6
    8000351c:	f3850513          	addi	a0,a0,-200 # 80009450 <_ZZ13printInteger1mE6digits+0x148>
    80003520:	00002097          	auipc	ra,0x2
    80003524:	f60080e7          	jalr	-160(ra) # 80005480 <_Z11printStringPKc>
    80003528:	00000613          	li	a2,0
    8000352c:	00a00593          	li	a1,10
    80003530:	00048513          	mv	a0,s1
    80003534:	00002097          	auipc	ra,0x2
    80003538:	0fc080e7          	jalr	252(ra) # 80005630 <_Z8printIntiii>
    8000353c:	00006517          	auipc	a0,0x6
    80003540:	c5450513          	addi	a0,a0,-940 # 80009190 <CONSOLE_STATUS+0x180>
    80003544:	00002097          	auipc	ra,0x2
    80003548:	f3c080e7          	jalr	-196(ra) # 80005480 <_Z11printStringPKc>
    for (; i < 3; i++) {
    8000354c:	0014849b          	addiw	s1,s1,1
    80003550:	0ff4f493          	andi	s1,s1,255
    80003554:	00200793          	li	a5,2
    80003558:	fc97f0e3          	bgeu	a5,s1,80003518 <_ZN7WorkerC11workerBodyCEPv+0x20>
    }

    printString("C: dispatch\n");
    8000355c:	00006517          	auipc	a0,0x6
    80003560:	efc50513          	addi	a0,a0,-260 # 80009458 <_ZZ13printInteger1mE6digits+0x150>
    80003564:	00002097          	auipc	ra,0x2
    80003568:	f1c080e7          	jalr	-228(ra) # 80005480 <_Z11printStringPKc>
    __asm__ ("li t1, 7");
    8000356c:	00700313          	li	t1,7
    thread_dispatch();
    80003570:	ffffe097          	auipc	ra,0xffffe
    80003574:	dc4080e7          	jalr	-572(ra) # 80001334 <_Z15thread_dispatchv>

    uint64 t1 = 0;
    __asm__ ("mv %[t1], t1" : [t1] "=r"(t1));
    80003578:	00030913          	mv	s2,t1

    printString("C: t1="); printInt(t1); printString("\n");
    8000357c:	00006517          	auipc	a0,0x6
    80003580:	eec50513          	addi	a0,a0,-276 # 80009468 <_ZZ13printInteger1mE6digits+0x160>
    80003584:	00002097          	auipc	ra,0x2
    80003588:	efc080e7          	jalr	-260(ra) # 80005480 <_Z11printStringPKc>
    8000358c:	00000613          	li	a2,0
    80003590:	00a00593          	li	a1,10
    80003594:	0009051b          	sext.w	a0,s2
    80003598:	00002097          	auipc	ra,0x2
    8000359c:	098080e7          	jalr	152(ra) # 80005630 <_Z8printIntiii>
    800035a0:	00006517          	auipc	a0,0x6
    800035a4:	bf050513          	addi	a0,a0,-1040 # 80009190 <CONSOLE_STATUS+0x180>
    800035a8:	00002097          	auipc	ra,0x2
    800035ac:	ed8080e7          	jalr	-296(ra) # 80005480 <_Z11printStringPKc>

    uint64 result = fibonacci(12);
    800035b0:	00c00513          	li	a0,12
    800035b4:	00000097          	auipc	ra,0x0
    800035b8:	d30080e7          	jalr	-720(ra) # 800032e4 <_ZL9fibonaccim>
    800035bc:	00050913          	mv	s2,a0
    printString("C: fibonaci="); printInt(result); printString("\n");
    800035c0:	00006517          	auipc	a0,0x6
    800035c4:	eb050513          	addi	a0,a0,-336 # 80009470 <_ZZ13printInteger1mE6digits+0x168>
    800035c8:	00002097          	auipc	ra,0x2
    800035cc:	eb8080e7          	jalr	-328(ra) # 80005480 <_Z11printStringPKc>
    800035d0:	00000613          	li	a2,0
    800035d4:	00a00593          	li	a1,10
    800035d8:	0009051b          	sext.w	a0,s2
    800035dc:	00002097          	auipc	ra,0x2
    800035e0:	054080e7          	jalr	84(ra) # 80005630 <_Z8printIntiii>
    800035e4:	00006517          	auipc	a0,0x6
    800035e8:	bac50513          	addi	a0,a0,-1108 # 80009190 <CONSOLE_STATUS+0x180>
    800035ec:	00002097          	auipc	ra,0x2
    800035f0:	e94080e7          	jalr	-364(ra) # 80005480 <_Z11printStringPKc>
    800035f4:	0400006f          	j	80003634 <_ZN7WorkerC11workerBodyCEPv+0x13c>

    for (; i < 6; i++) {
        printString("C: i="); printInt(i); printString("\n");
    800035f8:	00006517          	auipc	a0,0x6
    800035fc:	e5850513          	addi	a0,a0,-424 # 80009450 <_ZZ13printInteger1mE6digits+0x148>
    80003600:	00002097          	auipc	ra,0x2
    80003604:	e80080e7          	jalr	-384(ra) # 80005480 <_Z11printStringPKc>
    80003608:	00000613          	li	a2,0
    8000360c:	00a00593          	li	a1,10
    80003610:	00048513          	mv	a0,s1
    80003614:	00002097          	auipc	ra,0x2
    80003618:	01c080e7          	jalr	28(ra) # 80005630 <_Z8printIntiii>
    8000361c:	00006517          	auipc	a0,0x6
    80003620:	b7450513          	addi	a0,a0,-1164 # 80009190 <CONSOLE_STATUS+0x180>
    80003624:	00002097          	auipc	ra,0x2
    80003628:	e5c080e7          	jalr	-420(ra) # 80005480 <_Z11printStringPKc>
    for (; i < 6; i++) {
    8000362c:	0014849b          	addiw	s1,s1,1
    80003630:	0ff4f493          	andi	s1,s1,255
    80003634:	00500793          	li	a5,5
    80003638:	fc97f0e3          	bgeu	a5,s1,800035f8 <_ZN7WorkerC11workerBodyCEPv+0x100>
    }

    printString("C finished!\n");
    8000363c:	00006517          	auipc	a0,0x6
    80003640:	e4450513          	addi	a0,a0,-444 # 80009480 <_ZZ13printInteger1mE6digits+0x178>
    80003644:	00002097          	auipc	ra,0x2
    80003648:	e3c080e7          	jalr	-452(ra) # 80005480 <_Z11printStringPKc>
    finishedC = true;
    8000364c:	00100793          	li	a5,1
    80003650:	00008717          	auipc	a4,0x8
    80003654:	26f70523          	sb	a5,618(a4) # 8000b8ba <_ZL9finishedC>
    thread_dispatch();
    80003658:	ffffe097          	auipc	ra,0xffffe
    8000365c:	cdc080e7          	jalr	-804(ra) # 80001334 <_Z15thread_dispatchv>
}
    80003660:	01813083          	ld	ra,24(sp)
    80003664:	01013403          	ld	s0,16(sp)
    80003668:	00813483          	ld	s1,8(sp)
    8000366c:	00013903          	ld	s2,0(sp)
    80003670:	02010113          	addi	sp,sp,32
    80003674:	00008067          	ret

0000000080003678 <_ZN7WorkerD11workerBodyDEPv>:

void WorkerD::workerBodyD(void* arg) {
    80003678:	fe010113          	addi	sp,sp,-32
    8000367c:	00113c23          	sd	ra,24(sp)
    80003680:	00813823          	sd	s0,16(sp)
    80003684:	00913423          	sd	s1,8(sp)
    80003688:	01213023          	sd	s2,0(sp)
    8000368c:	02010413          	addi	s0,sp,32
    uint8 i = 10;
    80003690:	00a00493          	li	s1,10
    80003694:	0400006f          	j	800036d4 <_ZN7WorkerD11workerBodyDEPv+0x5c>
    for (; i < 13; i++) {
        printString("D: i="); printInt(i); printString("\n");
    80003698:	00006517          	auipc	a0,0x6
    8000369c:	df850513          	addi	a0,a0,-520 # 80009490 <_ZZ13printInteger1mE6digits+0x188>
    800036a0:	00002097          	auipc	ra,0x2
    800036a4:	de0080e7          	jalr	-544(ra) # 80005480 <_Z11printStringPKc>
    800036a8:	00000613          	li	a2,0
    800036ac:	00a00593          	li	a1,10
    800036b0:	00048513          	mv	a0,s1
    800036b4:	00002097          	auipc	ra,0x2
    800036b8:	f7c080e7          	jalr	-132(ra) # 80005630 <_Z8printIntiii>
    800036bc:	00006517          	auipc	a0,0x6
    800036c0:	ad450513          	addi	a0,a0,-1324 # 80009190 <CONSOLE_STATUS+0x180>
    800036c4:	00002097          	auipc	ra,0x2
    800036c8:	dbc080e7          	jalr	-580(ra) # 80005480 <_Z11printStringPKc>
    for (; i < 13; i++) {
    800036cc:	0014849b          	addiw	s1,s1,1
    800036d0:	0ff4f493          	andi	s1,s1,255
    800036d4:	00c00793          	li	a5,12
    800036d8:	fc97f0e3          	bgeu	a5,s1,80003698 <_ZN7WorkerD11workerBodyDEPv+0x20>
    }

    printString("D: dispatch\n");
    800036dc:	00006517          	auipc	a0,0x6
    800036e0:	dbc50513          	addi	a0,a0,-580 # 80009498 <_ZZ13printInteger1mE6digits+0x190>
    800036e4:	00002097          	auipc	ra,0x2
    800036e8:	d9c080e7          	jalr	-612(ra) # 80005480 <_Z11printStringPKc>
    __asm__ ("li t1, 5");
    800036ec:	00500313          	li	t1,5
    thread_dispatch();
    800036f0:	ffffe097          	auipc	ra,0xffffe
    800036f4:	c44080e7          	jalr	-956(ra) # 80001334 <_Z15thread_dispatchv>

    uint64 result = fibonacci(16);
    800036f8:	01000513          	li	a0,16
    800036fc:	00000097          	auipc	ra,0x0
    80003700:	be8080e7          	jalr	-1048(ra) # 800032e4 <_ZL9fibonaccim>
    80003704:	00050913          	mv	s2,a0
    printString("D: fibonaci="); printInt(result); printString("\n");
    80003708:	00006517          	auipc	a0,0x6
    8000370c:	da050513          	addi	a0,a0,-608 # 800094a8 <_ZZ13printInteger1mE6digits+0x1a0>
    80003710:	00002097          	auipc	ra,0x2
    80003714:	d70080e7          	jalr	-656(ra) # 80005480 <_Z11printStringPKc>
    80003718:	00000613          	li	a2,0
    8000371c:	00a00593          	li	a1,10
    80003720:	0009051b          	sext.w	a0,s2
    80003724:	00002097          	auipc	ra,0x2
    80003728:	f0c080e7          	jalr	-244(ra) # 80005630 <_Z8printIntiii>
    8000372c:	00006517          	auipc	a0,0x6
    80003730:	a6450513          	addi	a0,a0,-1436 # 80009190 <CONSOLE_STATUS+0x180>
    80003734:	00002097          	auipc	ra,0x2
    80003738:	d4c080e7          	jalr	-692(ra) # 80005480 <_Z11printStringPKc>
    8000373c:	0400006f          	j	8000377c <_ZN7WorkerD11workerBodyDEPv+0x104>

    for (; i < 16; i++) {
        printString("D: i="); printInt(i); printString("\n");
    80003740:	00006517          	auipc	a0,0x6
    80003744:	d5050513          	addi	a0,a0,-688 # 80009490 <_ZZ13printInteger1mE6digits+0x188>
    80003748:	00002097          	auipc	ra,0x2
    8000374c:	d38080e7          	jalr	-712(ra) # 80005480 <_Z11printStringPKc>
    80003750:	00000613          	li	a2,0
    80003754:	00a00593          	li	a1,10
    80003758:	00048513          	mv	a0,s1
    8000375c:	00002097          	auipc	ra,0x2
    80003760:	ed4080e7          	jalr	-300(ra) # 80005630 <_Z8printIntiii>
    80003764:	00006517          	auipc	a0,0x6
    80003768:	a2c50513          	addi	a0,a0,-1492 # 80009190 <CONSOLE_STATUS+0x180>
    8000376c:	00002097          	auipc	ra,0x2
    80003770:	d14080e7          	jalr	-748(ra) # 80005480 <_Z11printStringPKc>
    for (; i < 16; i++) {
    80003774:	0014849b          	addiw	s1,s1,1
    80003778:	0ff4f493          	andi	s1,s1,255
    8000377c:	00f00793          	li	a5,15
    80003780:	fc97f0e3          	bgeu	a5,s1,80003740 <_ZN7WorkerD11workerBodyDEPv+0xc8>
    }

    printString("D finished!\n");
    80003784:	00006517          	auipc	a0,0x6
    80003788:	d3450513          	addi	a0,a0,-716 # 800094b8 <_ZZ13printInteger1mE6digits+0x1b0>
    8000378c:	00002097          	auipc	ra,0x2
    80003790:	cf4080e7          	jalr	-780(ra) # 80005480 <_Z11printStringPKc>
    finishedD = true;
    80003794:	00100793          	li	a5,1
    80003798:	00008717          	auipc	a4,0x8
    8000379c:	12f701a3          	sb	a5,291(a4) # 8000b8bb <_ZL9finishedD>
    thread_dispatch();
    800037a0:	ffffe097          	auipc	ra,0xffffe
    800037a4:	b94080e7          	jalr	-1132(ra) # 80001334 <_Z15thread_dispatchv>
}
    800037a8:	01813083          	ld	ra,24(sp)
    800037ac:	01013403          	ld	s0,16(sp)
    800037b0:	00813483          	ld	s1,8(sp)
    800037b4:	00013903          	ld	s2,0(sp)
    800037b8:	02010113          	addi	sp,sp,32
    800037bc:	00008067          	ret

00000000800037c0 <_Z20Threads_CPP_API_testv>:


void Threads_CPP_API_test() {
    800037c0:	fc010113          	addi	sp,sp,-64
    800037c4:	02113c23          	sd	ra,56(sp)
    800037c8:	02813823          	sd	s0,48(sp)
    800037cc:	02913423          	sd	s1,40(sp)
    800037d0:	03213023          	sd	s2,32(sp)
    800037d4:	04010413          	addi	s0,sp,64
    Thread* threads[4];

    threads[0] = new WorkerA();
    800037d8:	02000513          	li	a0,32
    800037dc:	ffffe097          	auipc	ra,0xffffe
    800037e0:	6e0080e7          	jalr	1760(ra) # 80001ebc <_Znwm>
    800037e4:	00050493          	mv	s1,a0
    WorkerA():Thread() {}
    800037e8:	fffff097          	auipc	ra,0xfffff
    800037ec:	910080e7          	jalr	-1776(ra) # 800020f8 <_ZN6ThreadC1Ev>
    800037f0:	00008797          	auipc	a5,0x8
    800037f4:	e3878793          	addi	a5,a5,-456 # 8000b628 <_ZTV7WorkerA+0x10>
    800037f8:	00f4b023          	sd	a5,0(s1)
    threads[0] = new WorkerA();
    800037fc:	fc943023          	sd	s1,-64(s0)
    printString("ThreadA created\n");
    80003800:	00006517          	auipc	a0,0x6
    80003804:	cc850513          	addi	a0,a0,-824 # 800094c8 <_ZZ13printInteger1mE6digits+0x1c0>
    80003808:	00002097          	auipc	ra,0x2
    8000380c:	c78080e7          	jalr	-904(ra) # 80005480 <_Z11printStringPKc>

    threads[1] = new WorkerB();
    80003810:	02000513          	li	a0,32
    80003814:	ffffe097          	auipc	ra,0xffffe
    80003818:	6a8080e7          	jalr	1704(ra) # 80001ebc <_Znwm>
    8000381c:	00050493          	mv	s1,a0
    WorkerB():Thread() {}
    80003820:	fffff097          	auipc	ra,0xfffff
    80003824:	8d8080e7          	jalr	-1832(ra) # 800020f8 <_ZN6ThreadC1Ev>
    80003828:	00008797          	auipc	a5,0x8
    8000382c:	e2878793          	addi	a5,a5,-472 # 8000b650 <_ZTV7WorkerB+0x10>
    80003830:	00f4b023          	sd	a5,0(s1)
    threads[1] = new WorkerB();
    80003834:	fc943423          	sd	s1,-56(s0)
    printString("ThreadB created\n");
    80003838:	00006517          	auipc	a0,0x6
    8000383c:	ca850513          	addi	a0,a0,-856 # 800094e0 <_ZZ13printInteger1mE6digits+0x1d8>
    80003840:	00002097          	auipc	ra,0x2
    80003844:	c40080e7          	jalr	-960(ra) # 80005480 <_Z11printStringPKc>

    threads[2] = new WorkerC();
    80003848:	02000513          	li	a0,32
    8000384c:	ffffe097          	auipc	ra,0xffffe
    80003850:	670080e7          	jalr	1648(ra) # 80001ebc <_Znwm>
    80003854:	00050493          	mv	s1,a0
    WorkerC():Thread() {}
    80003858:	fffff097          	auipc	ra,0xfffff
    8000385c:	8a0080e7          	jalr	-1888(ra) # 800020f8 <_ZN6ThreadC1Ev>
    80003860:	00008797          	auipc	a5,0x8
    80003864:	e1878793          	addi	a5,a5,-488 # 8000b678 <_ZTV7WorkerC+0x10>
    80003868:	00f4b023          	sd	a5,0(s1)
    threads[2] = new WorkerC();
    8000386c:	fc943823          	sd	s1,-48(s0)
    printString("ThreadC created\n");
    80003870:	00006517          	auipc	a0,0x6
    80003874:	c8850513          	addi	a0,a0,-888 # 800094f8 <_ZZ13printInteger1mE6digits+0x1f0>
    80003878:	00002097          	auipc	ra,0x2
    8000387c:	c08080e7          	jalr	-1016(ra) # 80005480 <_Z11printStringPKc>

    threads[3] = new WorkerD();
    80003880:	02000513          	li	a0,32
    80003884:	ffffe097          	auipc	ra,0xffffe
    80003888:	638080e7          	jalr	1592(ra) # 80001ebc <_Znwm>
    8000388c:	00050493          	mv	s1,a0
    WorkerD():Thread() {}
    80003890:	fffff097          	auipc	ra,0xfffff
    80003894:	868080e7          	jalr	-1944(ra) # 800020f8 <_ZN6ThreadC1Ev>
    80003898:	00008797          	auipc	a5,0x8
    8000389c:	e0878793          	addi	a5,a5,-504 # 8000b6a0 <_ZTV7WorkerD+0x10>
    800038a0:	00f4b023          	sd	a5,0(s1)
    threads[3] = new WorkerD();
    800038a4:	fc943c23          	sd	s1,-40(s0)
    printString("ThreadD created\n");
    800038a8:	00006517          	auipc	a0,0x6
    800038ac:	c6850513          	addi	a0,a0,-920 # 80009510 <_ZZ13printInteger1mE6digits+0x208>
    800038b0:	00002097          	auipc	ra,0x2
    800038b4:	bd0080e7          	jalr	-1072(ra) # 80005480 <_Z11printStringPKc>

    for(int i=0; i<4; i++) {
    800038b8:	00000493          	li	s1,0
    800038bc:	00300793          	li	a5,3
    800038c0:	0297c663          	blt	a5,s1,800038ec <_Z20Threads_CPP_API_testv+0x12c>
        threads[i]->start();
    800038c4:	00349793          	slli	a5,s1,0x3
    800038c8:	fe040713          	addi	a4,s0,-32
    800038cc:	00f707b3          	add	a5,a4,a5
    800038d0:	fe07b503          	ld	a0,-32(a5)
    800038d4:	ffffe097          	auipc	ra,0xffffe
    800038d8:	7f4080e7          	jalr	2036(ra) # 800020c8 <_ZN6Thread5startEv>
    for(int i=0; i<4; i++) {
    800038dc:	0014849b          	addiw	s1,s1,1
    800038e0:	fddff06f          	j	800038bc <_Z20Threads_CPP_API_testv+0xfc>
    }

    while (!(finishedA && finishedB && finishedC && finishedD)) {
        Thread::dispatch();
    800038e4:	fffff097          	auipc	ra,0xfffff
    800038e8:	860080e7          	jalr	-1952(ra) # 80002144 <_ZN6Thread8dispatchEv>
    while (!(finishedA && finishedB && finishedC && finishedD)) {
    800038ec:	00008797          	auipc	a5,0x8
    800038f0:	fcc7c783          	lbu	a5,-52(a5) # 8000b8b8 <_ZL9finishedA>
    800038f4:	fe0788e3          	beqz	a5,800038e4 <_Z20Threads_CPP_API_testv+0x124>
    800038f8:	00008797          	auipc	a5,0x8
    800038fc:	fc17c783          	lbu	a5,-63(a5) # 8000b8b9 <_ZL9finishedB>
    80003900:	fe0782e3          	beqz	a5,800038e4 <_Z20Threads_CPP_API_testv+0x124>
    80003904:	00008797          	auipc	a5,0x8
    80003908:	fb67c783          	lbu	a5,-74(a5) # 8000b8ba <_ZL9finishedC>
    8000390c:	fc078ce3          	beqz	a5,800038e4 <_Z20Threads_CPP_API_testv+0x124>
    80003910:	00008797          	auipc	a5,0x8
    80003914:	fab7c783          	lbu	a5,-85(a5) # 8000b8bb <_ZL9finishedD>
    80003918:	fc0786e3          	beqz	a5,800038e4 <_Z20Threads_CPP_API_testv+0x124>
    8000391c:	fc040493          	addi	s1,s0,-64
    80003920:	0080006f          	j	80003928 <_Z20Threads_CPP_API_testv+0x168>
    }

    for (auto thread: threads) { delete thread; }
    80003924:	00848493          	addi	s1,s1,8
    80003928:	fe040793          	addi	a5,s0,-32
    8000392c:	08f48663          	beq	s1,a5,800039b8 <_Z20Threads_CPP_API_testv+0x1f8>
    80003930:	0004b503          	ld	a0,0(s1)
    80003934:	fe0508e3          	beqz	a0,80003924 <_Z20Threads_CPP_API_testv+0x164>
    80003938:	00053783          	ld	a5,0(a0)
    8000393c:	0087b783          	ld	a5,8(a5)
    80003940:	000780e7          	jalr	a5
    80003944:	fe1ff06f          	j	80003924 <_Z20Threads_CPP_API_testv+0x164>
    80003948:	00050913          	mv	s2,a0
    threads[0] = new WorkerA();
    8000394c:	00048513          	mv	a0,s1
    80003950:	ffffe097          	auipc	ra,0xffffe
    80003954:	5bc080e7          	jalr	1468(ra) # 80001f0c <_ZdlPv>
    80003958:	00090513          	mv	a0,s2
    8000395c:	00009097          	auipc	ra,0x9
    80003960:	07c080e7          	jalr	124(ra) # 8000c9d8 <_Unwind_Resume>
    80003964:	00050913          	mv	s2,a0
    threads[1] = new WorkerB();
    80003968:	00048513          	mv	a0,s1
    8000396c:	ffffe097          	auipc	ra,0xffffe
    80003970:	5a0080e7          	jalr	1440(ra) # 80001f0c <_ZdlPv>
    80003974:	00090513          	mv	a0,s2
    80003978:	00009097          	auipc	ra,0x9
    8000397c:	060080e7          	jalr	96(ra) # 8000c9d8 <_Unwind_Resume>
    80003980:	00050913          	mv	s2,a0
    threads[2] = new WorkerC();
    80003984:	00048513          	mv	a0,s1
    80003988:	ffffe097          	auipc	ra,0xffffe
    8000398c:	584080e7          	jalr	1412(ra) # 80001f0c <_ZdlPv>
    80003990:	00090513          	mv	a0,s2
    80003994:	00009097          	auipc	ra,0x9
    80003998:	044080e7          	jalr	68(ra) # 8000c9d8 <_Unwind_Resume>
    8000399c:	00050913          	mv	s2,a0
    threads[3] = new WorkerD();
    800039a0:	00048513          	mv	a0,s1
    800039a4:	ffffe097          	auipc	ra,0xffffe
    800039a8:	568080e7          	jalr	1384(ra) # 80001f0c <_ZdlPv>
    800039ac:	00090513          	mv	a0,s2
    800039b0:	00009097          	auipc	ra,0x9
    800039b4:	028080e7          	jalr	40(ra) # 8000c9d8 <_Unwind_Resume>
}
    800039b8:	03813083          	ld	ra,56(sp)
    800039bc:	03013403          	ld	s0,48(sp)
    800039c0:	02813483          	ld	s1,40(sp)
    800039c4:	02013903          	ld	s2,32(sp)
    800039c8:	04010113          	addi	sp,sp,64
    800039cc:	00008067          	ret

00000000800039d0 <_ZN7WorkerAD1Ev>:
class WorkerA: public Thread {
    800039d0:	ff010113          	addi	sp,sp,-16
    800039d4:	00113423          	sd	ra,8(sp)
    800039d8:	00813023          	sd	s0,0(sp)
    800039dc:	01010413          	addi	s0,sp,16
    800039e0:	00008797          	auipc	a5,0x8
    800039e4:	c4878793          	addi	a5,a5,-952 # 8000b628 <_ZTV7WorkerA+0x10>
    800039e8:	00f53023          	sd	a5,0(a0)
    800039ec:	ffffe097          	auipc	ra,0xffffe
    800039f0:	59c080e7          	jalr	1436(ra) # 80001f88 <_ZN6ThreadD1Ev>
    800039f4:	00813083          	ld	ra,8(sp)
    800039f8:	00013403          	ld	s0,0(sp)
    800039fc:	01010113          	addi	sp,sp,16
    80003a00:	00008067          	ret

0000000080003a04 <_ZN7WorkerAD0Ev>:
    80003a04:	fe010113          	addi	sp,sp,-32
    80003a08:	00113c23          	sd	ra,24(sp)
    80003a0c:	00813823          	sd	s0,16(sp)
    80003a10:	00913423          	sd	s1,8(sp)
    80003a14:	02010413          	addi	s0,sp,32
    80003a18:	00050493          	mv	s1,a0
    80003a1c:	00008797          	auipc	a5,0x8
    80003a20:	c0c78793          	addi	a5,a5,-1012 # 8000b628 <_ZTV7WorkerA+0x10>
    80003a24:	00f53023          	sd	a5,0(a0)
    80003a28:	ffffe097          	auipc	ra,0xffffe
    80003a2c:	560080e7          	jalr	1376(ra) # 80001f88 <_ZN6ThreadD1Ev>
    80003a30:	00048513          	mv	a0,s1
    80003a34:	ffffe097          	auipc	ra,0xffffe
    80003a38:	4d8080e7          	jalr	1240(ra) # 80001f0c <_ZdlPv>
    80003a3c:	01813083          	ld	ra,24(sp)
    80003a40:	01013403          	ld	s0,16(sp)
    80003a44:	00813483          	ld	s1,8(sp)
    80003a48:	02010113          	addi	sp,sp,32
    80003a4c:	00008067          	ret

0000000080003a50 <_ZN7WorkerBD1Ev>:
class WorkerB: public Thread {
    80003a50:	ff010113          	addi	sp,sp,-16
    80003a54:	00113423          	sd	ra,8(sp)
    80003a58:	00813023          	sd	s0,0(sp)
    80003a5c:	01010413          	addi	s0,sp,16
    80003a60:	00008797          	auipc	a5,0x8
    80003a64:	bf078793          	addi	a5,a5,-1040 # 8000b650 <_ZTV7WorkerB+0x10>
    80003a68:	00f53023          	sd	a5,0(a0)
    80003a6c:	ffffe097          	auipc	ra,0xffffe
    80003a70:	51c080e7          	jalr	1308(ra) # 80001f88 <_ZN6ThreadD1Ev>
    80003a74:	00813083          	ld	ra,8(sp)
    80003a78:	00013403          	ld	s0,0(sp)
    80003a7c:	01010113          	addi	sp,sp,16
    80003a80:	00008067          	ret

0000000080003a84 <_ZN7WorkerBD0Ev>:
    80003a84:	fe010113          	addi	sp,sp,-32
    80003a88:	00113c23          	sd	ra,24(sp)
    80003a8c:	00813823          	sd	s0,16(sp)
    80003a90:	00913423          	sd	s1,8(sp)
    80003a94:	02010413          	addi	s0,sp,32
    80003a98:	00050493          	mv	s1,a0
    80003a9c:	00008797          	auipc	a5,0x8
    80003aa0:	bb478793          	addi	a5,a5,-1100 # 8000b650 <_ZTV7WorkerB+0x10>
    80003aa4:	00f53023          	sd	a5,0(a0)
    80003aa8:	ffffe097          	auipc	ra,0xffffe
    80003aac:	4e0080e7          	jalr	1248(ra) # 80001f88 <_ZN6ThreadD1Ev>
    80003ab0:	00048513          	mv	a0,s1
    80003ab4:	ffffe097          	auipc	ra,0xffffe
    80003ab8:	458080e7          	jalr	1112(ra) # 80001f0c <_ZdlPv>
    80003abc:	01813083          	ld	ra,24(sp)
    80003ac0:	01013403          	ld	s0,16(sp)
    80003ac4:	00813483          	ld	s1,8(sp)
    80003ac8:	02010113          	addi	sp,sp,32
    80003acc:	00008067          	ret

0000000080003ad0 <_ZN7WorkerCD1Ev>:
class WorkerC: public Thread {
    80003ad0:	ff010113          	addi	sp,sp,-16
    80003ad4:	00113423          	sd	ra,8(sp)
    80003ad8:	00813023          	sd	s0,0(sp)
    80003adc:	01010413          	addi	s0,sp,16
    80003ae0:	00008797          	auipc	a5,0x8
    80003ae4:	b9878793          	addi	a5,a5,-1128 # 8000b678 <_ZTV7WorkerC+0x10>
    80003ae8:	00f53023          	sd	a5,0(a0)
    80003aec:	ffffe097          	auipc	ra,0xffffe
    80003af0:	49c080e7          	jalr	1180(ra) # 80001f88 <_ZN6ThreadD1Ev>
    80003af4:	00813083          	ld	ra,8(sp)
    80003af8:	00013403          	ld	s0,0(sp)
    80003afc:	01010113          	addi	sp,sp,16
    80003b00:	00008067          	ret

0000000080003b04 <_ZN7WorkerCD0Ev>:
    80003b04:	fe010113          	addi	sp,sp,-32
    80003b08:	00113c23          	sd	ra,24(sp)
    80003b0c:	00813823          	sd	s0,16(sp)
    80003b10:	00913423          	sd	s1,8(sp)
    80003b14:	02010413          	addi	s0,sp,32
    80003b18:	00050493          	mv	s1,a0
    80003b1c:	00008797          	auipc	a5,0x8
    80003b20:	b5c78793          	addi	a5,a5,-1188 # 8000b678 <_ZTV7WorkerC+0x10>
    80003b24:	00f53023          	sd	a5,0(a0)
    80003b28:	ffffe097          	auipc	ra,0xffffe
    80003b2c:	460080e7          	jalr	1120(ra) # 80001f88 <_ZN6ThreadD1Ev>
    80003b30:	00048513          	mv	a0,s1
    80003b34:	ffffe097          	auipc	ra,0xffffe
    80003b38:	3d8080e7          	jalr	984(ra) # 80001f0c <_ZdlPv>
    80003b3c:	01813083          	ld	ra,24(sp)
    80003b40:	01013403          	ld	s0,16(sp)
    80003b44:	00813483          	ld	s1,8(sp)
    80003b48:	02010113          	addi	sp,sp,32
    80003b4c:	00008067          	ret

0000000080003b50 <_ZN7WorkerDD1Ev>:
class WorkerD: public Thread {
    80003b50:	ff010113          	addi	sp,sp,-16
    80003b54:	00113423          	sd	ra,8(sp)
    80003b58:	00813023          	sd	s0,0(sp)
    80003b5c:	01010413          	addi	s0,sp,16
    80003b60:	00008797          	auipc	a5,0x8
    80003b64:	b4078793          	addi	a5,a5,-1216 # 8000b6a0 <_ZTV7WorkerD+0x10>
    80003b68:	00f53023          	sd	a5,0(a0)
    80003b6c:	ffffe097          	auipc	ra,0xffffe
    80003b70:	41c080e7          	jalr	1052(ra) # 80001f88 <_ZN6ThreadD1Ev>
    80003b74:	00813083          	ld	ra,8(sp)
    80003b78:	00013403          	ld	s0,0(sp)
    80003b7c:	01010113          	addi	sp,sp,16
    80003b80:	00008067          	ret

0000000080003b84 <_ZN7WorkerDD0Ev>:
    80003b84:	fe010113          	addi	sp,sp,-32
    80003b88:	00113c23          	sd	ra,24(sp)
    80003b8c:	00813823          	sd	s0,16(sp)
    80003b90:	00913423          	sd	s1,8(sp)
    80003b94:	02010413          	addi	s0,sp,32
    80003b98:	00050493          	mv	s1,a0
    80003b9c:	00008797          	auipc	a5,0x8
    80003ba0:	b0478793          	addi	a5,a5,-1276 # 8000b6a0 <_ZTV7WorkerD+0x10>
    80003ba4:	00f53023          	sd	a5,0(a0)
    80003ba8:	ffffe097          	auipc	ra,0xffffe
    80003bac:	3e0080e7          	jalr	992(ra) # 80001f88 <_ZN6ThreadD1Ev>
    80003bb0:	00048513          	mv	a0,s1
    80003bb4:	ffffe097          	auipc	ra,0xffffe
    80003bb8:	358080e7          	jalr	856(ra) # 80001f0c <_ZdlPv>
    80003bbc:	01813083          	ld	ra,24(sp)
    80003bc0:	01013403          	ld	s0,16(sp)
    80003bc4:	00813483          	ld	s1,8(sp)
    80003bc8:	02010113          	addi	sp,sp,32
    80003bcc:	00008067          	ret

0000000080003bd0 <_ZN7WorkerA3runEv>:
    void run() override {
    80003bd0:	ff010113          	addi	sp,sp,-16
    80003bd4:	00113423          	sd	ra,8(sp)
    80003bd8:	00813023          	sd	s0,0(sp)
    80003bdc:	01010413          	addi	s0,sp,16
        workerBodyA(nullptr);
    80003be0:	00000593          	li	a1,0
    80003be4:	fffff097          	auipc	ra,0xfffff
    80003be8:	774080e7          	jalr	1908(ra) # 80003358 <_ZN7WorkerA11workerBodyAEPv>
    }
    80003bec:	00813083          	ld	ra,8(sp)
    80003bf0:	00013403          	ld	s0,0(sp)
    80003bf4:	01010113          	addi	sp,sp,16
    80003bf8:	00008067          	ret

0000000080003bfc <_ZN7WorkerB3runEv>:
    void run() override {
    80003bfc:	ff010113          	addi	sp,sp,-16
    80003c00:	00113423          	sd	ra,8(sp)
    80003c04:	00813023          	sd	s0,0(sp)
    80003c08:	01010413          	addi	s0,sp,16
        workerBodyB(nullptr);
    80003c0c:	00000593          	li	a1,0
    80003c10:	00000097          	auipc	ra,0x0
    80003c14:	814080e7          	jalr	-2028(ra) # 80003424 <_ZN7WorkerB11workerBodyBEPv>
    }
    80003c18:	00813083          	ld	ra,8(sp)
    80003c1c:	00013403          	ld	s0,0(sp)
    80003c20:	01010113          	addi	sp,sp,16
    80003c24:	00008067          	ret

0000000080003c28 <_ZN7WorkerC3runEv>:
    void run() override {
    80003c28:	ff010113          	addi	sp,sp,-16
    80003c2c:	00113423          	sd	ra,8(sp)
    80003c30:	00813023          	sd	s0,0(sp)
    80003c34:	01010413          	addi	s0,sp,16
        workerBodyC(nullptr);
    80003c38:	00000593          	li	a1,0
    80003c3c:	00000097          	auipc	ra,0x0
    80003c40:	8bc080e7          	jalr	-1860(ra) # 800034f8 <_ZN7WorkerC11workerBodyCEPv>
    }
    80003c44:	00813083          	ld	ra,8(sp)
    80003c48:	00013403          	ld	s0,0(sp)
    80003c4c:	01010113          	addi	sp,sp,16
    80003c50:	00008067          	ret

0000000080003c54 <_ZN7WorkerD3runEv>:
    void run() override {
    80003c54:	ff010113          	addi	sp,sp,-16
    80003c58:	00113423          	sd	ra,8(sp)
    80003c5c:	00813023          	sd	s0,0(sp)
    80003c60:	01010413          	addi	s0,sp,16
        workerBodyD(nullptr);
    80003c64:	00000593          	li	a1,0
    80003c68:	00000097          	auipc	ra,0x0
    80003c6c:	a10080e7          	jalr	-1520(ra) # 80003678 <_ZN7WorkerD11workerBodyDEPv>
    }
    80003c70:	00813083          	ld	ra,8(sp)
    80003c74:	00013403          	ld	s0,0(sp)
    80003c78:	01010113          	addi	sp,sp,16
    80003c7c:	00008067          	ret

0000000080003c80 <_ZN1A6BodyA1EPv>:
};




void A::BodyA1(void *arg) {
    80003c80:	fe010113          	addi	sp,sp,-32
    80003c84:	00113c23          	sd	ra,24(sp)
    80003c88:	00813823          	sd	s0,16(sp)
    80003c8c:	00913423          	sd	s1,8(sp)
    80003c90:	01213023          	sd	s2,0(sp)
    80003c94:	02010413          	addi	s0,sp,32

    for (uint64 i = 0; i < 10; i++)
    80003c98:	00000913          	li	s2,0
    80003c9c:	0380006f          	j	80003cd4 <_ZN1A6BodyA1EPv+0x54>
            for (uint64 k = 0; k < 30000; k++)
            {
                /* busy wait */
            }

            thread_dispatch();
    80003ca0:	ffffd097          	auipc	ra,0xffffd
    80003ca4:	694080e7          	jalr	1684(ra) # 80001334 <_Z15thread_dispatchv>
        for (uint64 j = 0; j < 10000; j++)
    80003ca8:	00148493          	addi	s1,s1,1
    80003cac:	000027b7          	lui	a5,0x2
    80003cb0:	70f78793          	addi	a5,a5,1807 # 270f <_entry-0x7fffd8f1>
    80003cb4:	0097ee63          	bltu	a5,s1,80003cd0 <_ZN1A6BodyA1EPv+0x50>
            for (uint64 k = 0; k < 30000; k++)
    80003cb8:	00000713          	li	a4,0
    80003cbc:	000077b7          	lui	a5,0x7
    80003cc0:	52f78793          	addi	a5,a5,1327 # 752f <_entry-0x7fff8ad1>
    80003cc4:	fce7eee3          	bltu	a5,a4,80003ca0 <_ZN1A6BodyA1EPv+0x20>
    80003cc8:	00170713          	addi	a4,a4,1
    80003ccc:	ff1ff06f          	j	80003cbc <_ZN1A6BodyA1EPv+0x3c>
    for (uint64 i = 0; i < 10; i++)
    80003cd0:	00190913          	addi	s2,s2,1
    80003cd4:	00900793          	li	a5,9
    80003cd8:	0527e063          	bltu	a5,s2,80003d18 <_ZN1A6BodyA1EPv+0x98>
        printString("A: i=");
    80003cdc:	00005517          	auipc	a0,0x5
    80003ce0:	74450513          	addi	a0,a0,1860 # 80009420 <_ZZ13printInteger1mE6digits+0x118>
    80003ce4:	00001097          	auipc	ra,0x1
    80003ce8:	79c080e7          	jalr	1948(ra) # 80005480 <_Z11printStringPKc>
        printInt(i);
    80003cec:	00000613          	li	a2,0
    80003cf0:	00a00593          	li	a1,10
    80003cf4:	0009051b          	sext.w	a0,s2
    80003cf8:	00002097          	auipc	ra,0x2
    80003cfc:	938080e7          	jalr	-1736(ra) # 80005630 <_Z8printIntiii>
        printString("\n");
    80003d00:	00005517          	auipc	a0,0x5
    80003d04:	49050513          	addi	a0,a0,1168 # 80009190 <CONSOLE_STATUS+0x180>
    80003d08:	00001097          	auipc	ra,0x1
    80003d0c:	778080e7          	jalr	1912(ra) # 80005480 <_Z11printStringPKc>
        for (uint64 j = 0; j < 10000; j++)
    80003d10:	00000493          	li	s1,0
    80003d14:	f99ff06f          	j	80003cac <_ZN1A6BodyA1EPv+0x2c>
        }
    }

    printString("A finished!\n");
    80003d18:	00005517          	auipc	a0,0x5
    80003d1c:	71050513          	addi	a0,a0,1808 # 80009428 <_ZZ13printInteger1mE6digits+0x120>
    80003d20:	00001097          	auipc	ra,0x1
    80003d24:	760080e7          	jalr	1888(ra) # 80005480 <_Z11printStringPKc>
    finishedA = true;
    80003d28:	00100793          	li	a5,1
    80003d2c:	00008717          	auipc	a4,0x8
    80003d30:	b8f70a23          	sb	a5,-1132(a4) # 8000b8c0 <_ZL9finishedA>

}
    80003d34:	01813083          	ld	ra,24(sp)
    80003d38:	01013403          	ld	s0,16(sp)
    80003d3c:	00813483          	ld	s1,8(sp)
    80003d40:	00013903          	ld	s2,0(sp)
    80003d44:	02010113          	addi	sp,sp,32
    80003d48:	00008067          	ret

0000000080003d4c <_ZN1B6BodyB1EPv>:

void B::BodyB1(void *arg) {
    80003d4c:	fe010113          	addi	sp,sp,-32
    80003d50:	00113c23          	sd	ra,24(sp)
    80003d54:	00813823          	sd	s0,16(sp)
    80003d58:	00913423          	sd	s1,8(sp)
    80003d5c:	01213023          	sd	s2,0(sp)
    80003d60:	02010413          	addi	s0,sp,32

    for (uint64 i = 0; i < 16; i++)
    80003d64:	00000913          	li	s2,0
    80003d68:	0380006f          	j	80003da0 <_ZN1B6BodyB1EPv+0x54>
            for (uint64 k = 0; k < 30000; k++)
            {
                /* busy wait */
            }

            thread_dispatch();
    80003d6c:	ffffd097          	auipc	ra,0xffffd
    80003d70:	5c8080e7          	jalr	1480(ra) # 80001334 <_Z15thread_dispatchv>
        for (uint64 j = 0; j < 10000; j++)
    80003d74:	00148493          	addi	s1,s1,1
    80003d78:	000027b7          	lui	a5,0x2
    80003d7c:	70f78793          	addi	a5,a5,1807 # 270f <_entry-0x7fffd8f1>
    80003d80:	0097ee63          	bltu	a5,s1,80003d9c <_ZN1B6BodyB1EPv+0x50>
            for (uint64 k = 0; k < 30000; k++)
    80003d84:	00000713          	li	a4,0
    80003d88:	000077b7          	lui	a5,0x7
    80003d8c:	52f78793          	addi	a5,a5,1327 # 752f <_entry-0x7fff8ad1>
    80003d90:	fce7eee3          	bltu	a5,a4,80003d6c <_ZN1B6BodyB1EPv+0x20>
    80003d94:	00170713          	addi	a4,a4,1
    80003d98:	ff1ff06f          	j	80003d88 <_ZN1B6BodyB1EPv+0x3c>
    for (uint64 i = 0; i < 16; i++)
    80003d9c:	00190913          	addi	s2,s2,1
    80003da0:	00f00793          	li	a5,15
    80003da4:	0527e063          	bltu	a5,s2,80003de4 <_ZN1B6BodyB1EPv+0x98>
        printString("B: i=");
    80003da8:	00005517          	auipc	a0,0x5
    80003dac:	69050513          	addi	a0,a0,1680 # 80009438 <_ZZ13printInteger1mE6digits+0x130>
    80003db0:	00001097          	auipc	ra,0x1
    80003db4:	6d0080e7          	jalr	1744(ra) # 80005480 <_Z11printStringPKc>
        printInt(i);
    80003db8:	00000613          	li	a2,0
    80003dbc:	00a00593          	li	a1,10
    80003dc0:	0009051b          	sext.w	a0,s2
    80003dc4:	00002097          	auipc	ra,0x2
    80003dc8:	86c080e7          	jalr	-1940(ra) # 80005630 <_Z8printIntiii>
        printString("\n");
    80003dcc:	00005517          	auipc	a0,0x5
    80003dd0:	3c450513          	addi	a0,a0,964 # 80009190 <CONSOLE_STATUS+0x180>
    80003dd4:	00001097          	auipc	ra,0x1
    80003dd8:	6ac080e7          	jalr	1708(ra) # 80005480 <_Z11printStringPKc>
        for (uint64 j = 0; j < 10000; j++)
    80003ddc:	00000493          	li	s1,0
    80003de0:	f99ff06f          	j	80003d78 <_ZN1B6BodyB1EPv+0x2c>
        }
    }

    printString("B finished!\n");
    80003de4:	00005517          	auipc	a0,0x5
    80003de8:	65c50513          	addi	a0,a0,1628 # 80009440 <_ZZ13printInteger1mE6digits+0x138>
    80003dec:	00001097          	auipc	ra,0x1
    80003df0:	694080e7          	jalr	1684(ra) # 80005480 <_Z11printStringPKc>
    finishedB = true;
    80003df4:	00100793          	li	a5,1
    80003df8:	00008717          	auipc	a4,0x8
    80003dfc:	acf704a3          	sb	a5,-1335(a4) # 8000b8c1 <_ZL9finishedB>
    thread_dispatch();
    80003e00:	ffffd097          	auipc	ra,0xffffd
    80003e04:	534080e7          	jalr	1332(ra) # 80001334 <_Z15thread_dispatchv>

}
    80003e08:	01813083          	ld	ra,24(sp)
    80003e0c:	01013403          	ld	s0,16(sp)
    80003e10:	00813483          	ld	s1,8(sp)
    80003e14:	00013903          	ld	s2,0(sp)
    80003e18:	02010113          	addi	sp,sp,32
    80003e1c:	00008067          	ret

0000000080003e20 <_ZN1C6BodyC1EPv>:

void C::BodyC1(void *arg) {
    80003e20:	ff010113          	addi	sp,sp,-16
    80003e24:	00813423          	sd	s0,8(sp)
    80003e28:	01010413          	addi	s0,sp,16


}
    80003e2c:	00813403          	ld	s0,8(sp)
    80003e30:	01010113          	addi	sp,sp,16
    80003e34:	00008067          	ret

0000000080003e38 <_Z11join_threadv>:




void join_thread() {
    80003e38:	fe010113          	addi	sp,sp,-32
    80003e3c:	00113c23          	sd	ra,24(sp)
    80003e40:	00813823          	sd	s0,16(sp)
    80003e44:	00913423          	sd	s1,8(sp)
    80003e48:	01213023          	sd	s2,0(sp)
    80003e4c:	02010413          	addi	s0,sp,32


    threads[0] = new A();
    80003e50:	02000513          	li	a0,32
    80003e54:	ffffe097          	auipc	ra,0xffffe
    80003e58:	068080e7          	jalr	104(ra) # 80001ebc <_Znwm>
    80003e5c:	00050493          	mv	s1,a0
    A():Thread() {}
    80003e60:	ffffe097          	auipc	ra,0xffffe
    80003e64:	298080e7          	jalr	664(ra) # 800020f8 <_ZN6ThreadC1Ev>
    80003e68:	00008797          	auipc	a5,0x8
    80003e6c:	86078793          	addi	a5,a5,-1952 # 8000b6c8 <_ZTV1A+0x10>
    80003e70:	00f4b023          	sd	a5,0(s1)
    threads[0] = new A();
    80003e74:	00008797          	auipc	a5,0x8
    80003e78:	a497ba23          	sd	s1,-1452(a5) # 8000b8c8 <threads>
    printString("ThreadA created\n");
    80003e7c:	00005517          	auipc	a0,0x5
    80003e80:	64c50513          	addi	a0,a0,1612 # 800094c8 <_ZZ13printInteger1mE6digits+0x1c0>
    80003e84:	00001097          	auipc	ra,0x1
    80003e88:	5fc080e7          	jalr	1532(ra) # 80005480 <_Z11printStringPKc>

    threads[1] = new B();
    80003e8c:	02000513          	li	a0,32
    80003e90:	ffffe097          	auipc	ra,0xffffe
    80003e94:	02c080e7          	jalr	44(ra) # 80001ebc <_Znwm>
    80003e98:	00050493          	mv	s1,a0
    B():Thread() {}
    80003e9c:	ffffe097          	auipc	ra,0xffffe
    80003ea0:	25c080e7          	jalr	604(ra) # 800020f8 <_ZN6ThreadC1Ev>
    80003ea4:	00008797          	auipc	a5,0x8
    80003ea8:	84c78793          	addi	a5,a5,-1972 # 8000b6f0 <_ZTV1B+0x10>
    80003eac:	00f4b023          	sd	a5,0(s1)
    threads[1] = new B();
    80003eb0:	00008797          	auipc	a5,0x8
    80003eb4:	a297b023          	sd	s1,-1504(a5) # 8000b8d0 <threads+0x8>
    printString("ThreadB created\n");
    80003eb8:	00005517          	auipc	a0,0x5
    80003ebc:	62850513          	addi	a0,a0,1576 # 800094e0 <_ZZ13printInteger1mE6digits+0x1d8>
    80003ec0:	00001097          	auipc	ra,0x1
    80003ec4:	5c0080e7          	jalr	1472(ra) # 80005480 <_Z11printStringPKc>

    for(int i=0; i<2; i++) {
    80003ec8:	00000493          	li	s1,0
    80003ecc:	0240006f          	j	80003ef0 <_Z11join_threadv+0xb8>
        threads[i]->start();
    80003ed0:	00349713          	slli	a4,s1,0x3
    80003ed4:	00008797          	auipc	a5,0x8
    80003ed8:	9ec78793          	addi	a5,a5,-1556 # 8000b8c0 <_ZL9finishedA>
    80003edc:	00e787b3          	add	a5,a5,a4
    80003ee0:	0087b503          	ld	a0,8(a5)
    80003ee4:	ffffe097          	auipc	ra,0xffffe
    80003ee8:	1e4080e7          	jalr	484(ra) # 800020c8 <_ZN6Thread5startEv>
    for(int i=0; i<2; i++) {
    80003eec:	0014849b          	addiw	s1,s1,1
    80003ef0:	00100793          	li	a5,1
    80003ef4:	fc97dee3          	bge	a5,s1,80003ed0 <_Z11join_threadv+0x98>
    }

    printString("Cekam A\n");
    80003ef8:	00005517          	auipc	a0,0x5
    80003efc:	63050513          	addi	a0,a0,1584 # 80009528 <_ZZ13printInteger1mE6digits+0x220>
    80003f00:	00001097          	auipc	ra,0x1
    80003f04:	580080e7          	jalr	1408(ra) # 80005480 <_Z11printStringPKc>
    threads[0]->join();
    80003f08:	00008497          	auipc	s1,0x8
    80003f0c:	9b848493          	addi	s1,s1,-1608 # 8000b8c0 <_ZL9finishedA>
    80003f10:	0084b503          	ld	a0,8(s1)
    80003f14:	ffffe097          	auipc	ra,0xffffe
    80003f18:	2a8080e7          	jalr	680(ra) # 800021bc <_ZN6Thread4joinEv>
    printString("Cekam B\n");
    80003f1c:	00005517          	auipc	a0,0x5
    80003f20:	61c50513          	addi	a0,a0,1564 # 80009538 <_ZZ13printInteger1mE6digits+0x230>
    80003f24:	00001097          	auipc	ra,0x1
    80003f28:	55c080e7          	jalr	1372(ra) # 80005480 <_Z11printStringPKc>
    threads[1]->join();
    80003f2c:	0104b503          	ld	a0,16(s1)
    80003f30:	ffffe097          	auipc	ra,0xffffe
    80003f34:	28c080e7          	jalr	652(ra) # 800021bc <_ZN6Thread4joinEv>


    80003f38:	01813083          	ld	ra,24(sp)
    80003f3c:	01013403          	ld	s0,16(sp)
    80003f40:	00813483          	ld	s1,8(sp)
    80003f44:	00013903          	ld	s2,0(sp)
    80003f48:	02010113          	addi	sp,sp,32
    80003f4c:	00008067          	ret
    80003f50:	00050913          	mv	s2,a0
    threads[0] = new A();
    80003f54:	00048513          	mv	a0,s1
    80003f58:	ffffe097          	auipc	ra,0xffffe
    80003f5c:	fb4080e7          	jalr	-76(ra) # 80001f0c <_ZdlPv>
    80003f60:	00090513          	mv	a0,s2
    80003f64:	00009097          	auipc	ra,0x9
    80003f68:	a74080e7          	jalr	-1420(ra) # 8000c9d8 <_Unwind_Resume>
    80003f6c:	00050913          	mv	s2,a0
    threads[1] = new B();
    80003f70:	00048513          	mv	a0,s1
    80003f74:	ffffe097          	auipc	ra,0xffffe
    80003f78:	f98080e7          	jalr	-104(ra) # 80001f0c <_ZdlPv>
    80003f7c:	00090513          	mv	a0,s2
    80003f80:	00009097          	auipc	ra,0x9
    80003f84:	a58080e7          	jalr	-1448(ra) # 8000c9d8 <_Unwind_Resume>

0000000080003f88 <_ZN1AD1Ev>:
class A: public Thread {
    80003f88:	ff010113          	addi	sp,sp,-16
    80003f8c:	00113423          	sd	ra,8(sp)
    80003f90:	00813023          	sd	s0,0(sp)
    80003f94:	01010413          	addi	s0,sp,16
    80003f98:	00007797          	auipc	a5,0x7
    80003f9c:	73078793          	addi	a5,a5,1840 # 8000b6c8 <_ZTV1A+0x10>
    80003fa0:	00f53023          	sd	a5,0(a0)
    80003fa4:	ffffe097          	auipc	ra,0xffffe
    80003fa8:	fe4080e7          	jalr	-28(ra) # 80001f88 <_ZN6ThreadD1Ev>
    80003fac:	00813083          	ld	ra,8(sp)
    80003fb0:	00013403          	ld	s0,0(sp)
    80003fb4:	01010113          	addi	sp,sp,16
    80003fb8:	00008067          	ret

0000000080003fbc <_ZN1AD0Ev>:
    80003fbc:	fe010113          	addi	sp,sp,-32
    80003fc0:	00113c23          	sd	ra,24(sp)
    80003fc4:	00813823          	sd	s0,16(sp)
    80003fc8:	00913423          	sd	s1,8(sp)
    80003fcc:	02010413          	addi	s0,sp,32
    80003fd0:	00050493          	mv	s1,a0
    80003fd4:	00007797          	auipc	a5,0x7
    80003fd8:	6f478793          	addi	a5,a5,1780 # 8000b6c8 <_ZTV1A+0x10>
    80003fdc:	00f53023          	sd	a5,0(a0)
    80003fe0:	ffffe097          	auipc	ra,0xffffe
    80003fe4:	fa8080e7          	jalr	-88(ra) # 80001f88 <_ZN6ThreadD1Ev>
    80003fe8:	00048513          	mv	a0,s1
    80003fec:	ffffe097          	auipc	ra,0xffffe
    80003ff0:	f20080e7          	jalr	-224(ra) # 80001f0c <_ZdlPv>
    80003ff4:	01813083          	ld	ra,24(sp)
    80003ff8:	01013403          	ld	s0,16(sp)
    80003ffc:	00813483          	ld	s1,8(sp)
    80004000:	02010113          	addi	sp,sp,32
    80004004:	00008067          	ret

0000000080004008 <_ZN1BD1Ev>:
class B: public Thread {
    80004008:	ff010113          	addi	sp,sp,-16
    8000400c:	00113423          	sd	ra,8(sp)
    80004010:	00813023          	sd	s0,0(sp)
    80004014:	01010413          	addi	s0,sp,16
    80004018:	00007797          	auipc	a5,0x7
    8000401c:	6d878793          	addi	a5,a5,1752 # 8000b6f0 <_ZTV1B+0x10>
    80004020:	00f53023          	sd	a5,0(a0)
    80004024:	ffffe097          	auipc	ra,0xffffe
    80004028:	f64080e7          	jalr	-156(ra) # 80001f88 <_ZN6ThreadD1Ev>
    8000402c:	00813083          	ld	ra,8(sp)
    80004030:	00013403          	ld	s0,0(sp)
    80004034:	01010113          	addi	sp,sp,16
    80004038:	00008067          	ret

000000008000403c <_ZN1BD0Ev>:
    8000403c:	fe010113          	addi	sp,sp,-32
    80004040:	00113c23          	sd	ra,24(sp)
    80004044:	00813823          	sd	s0,16(sp)
    80004048:	00913423          	sd	s1,8(sp)
    8000404c:	02010413          	addi	s0,sp,32
    80004050:	00050493          	mv	s1,a0
    80004054:	00007797          	auipc	a5,0x7
    80004058:	69c78793          	addi	a5,a5,1692 # 8000b6f0 <_ZTV1B+0x10>
    8000405c:	00f53023          	sd	a5,0(a0)
    80004060:	ffffe097          	auipc	ra,0xffffe
    80004064:	f28080e7          	jalr	-216(ra) # 80001f88 <_ZN6ThreadD1Ev>
    80004068:	00048513          	mv	a0,s1
    8000406c:	ffffe097          	auipc	ra,0xffffe
    80004070:	ea0080e7          	jalr	-352(ra) # 80001f0c <_ZdlPv>
    80004074:	01813083          	ld	ra,24(sp)
    80004078:	01013403          	ld	s0,16(sp)
    8000407c:	00813483          	ld	s1,8(sp)
    80004080:	02010113          	addi	sp,sp,32
    80004084:	00008067          	ret

0000000080004088 <_ZN1A3runEv>:
    void run() override {
    80004088:	ff010113          	addi	sp,sp,-16
    8000408c:	00113423          	sd	ra,8(sp)
    80004090:	00813023          	sd	s0,0(sp)
    80004094:	01010413          	addi	s0,sp,16
        BodyA1(nullptr);
    80004098:	00000593          	li	a1,0
    8000409c:	00000097          	auipc	ra,0x0
    800040a0:	be4080e7          	jalr	-1052(ra) # 80003c80 <_ZN1A6BodyA1EPv>
    }
    800040a4:	00813083          	ld	ra,8(sp)
    800040a8:	00013403          	ld	s0,0(sp)
    800040ac:	01010113          	addi	sp,sp,16
    800040b0:	00008067          	ret

00000000800040b4 <_ZN1B3runEv>:
    void run() override {
    800040b4:	ff010113          	addi	sp,sp,-16
    800040b8:	00113423          	sd	ra,8(sp)
    800040bc:	00813023          	sd	s0,0(sp)
    800040c0:	01010413          	addi	s0,sp,16
        BodyB1(nullptr);
    800040c4:	00000593          	li	a1,0
    800040c8:	00000097          	auipc	ra,0x0
    800040cc:	c84080e7          	jalr	-892(ra) # 80003d4c <_ZN1B6BodyB1EPv>
    }
    800040d0:	00813083          	ld	ra,8(sp)
    800040d4:	00013403          	ld	s0,0(sp)
    800040d8:	01010113          	addi	sp,sp,16
    800040dc:	00008067          	ret

00000000800040e0 <_ZL9fibonaccim>:
static volatile bool finishedA = false;
static volatile bool finishedB = false;
static volatile bool finishedC = false;
static volatile bool finishedD = false;

static uint64 fibonacci(uint64 n) {
    800040e0:	fe010113          	addi	sp,sp,-32
    800040e4:	00113c23          	sd	ra,24(sp)
    800040e8:	00813823          	sd	s0,16(sp)
    800040ec:	00913423          	sd	s1,8(sp)
    800040f0:	01213023          	sd	s2,0(sp)
    800040f4:	02010413          	addi	s0,sp,32
    800040f8:	00050493          	mv	s1,a0
    if (n == 0 || n == 1) { return n; }
    800040fc:	00100793          	li	a5,1
    80004100:	02a7f863          	bgeu	a5,a0,80004130 <_ZL9fibonaccim+0x50>
    if (n % 10 == 0) { thread_dispatch(); }
    80004104:	00a00793          	li	a5,10
    80004108:	02f577b3          	remu	a5,a0,a5
    8000410c:	02078e63          	beqz	a5,80004148 <_ZL9fibonaccim+0x68>
    return fibonacci(n - 1) + fibonacci(n - 2);
    80004110:	fff48513          	addi	a0,s1,-1
    80004114:	00000097          	auipc	ra,0x0
    80004118:	fcc080e7          	jalr	-52(ra) # 800040e0 <_ZL9fibonaccim>
    8000411c:	00050913          	mv	s2,a0
    80004120:	ffe48513          	addi	a0,s1,-2
    80004124:	00000097          	auipc	ra,0x0
    80004128:	fbc080e7          	jalr	-68(ra) # 800040e0 <_ZL9fibonaccim>
    8000412c:	00a90533          	add	a0,s2,a0
}
    80004130:	01813083          	ld	ra,24(sp)
    80004134:	01013403          	ld	s0,16(sp)
    80004138:	00813483          	ld	s1,8(sp)
    8000413c:	00013903          	ld	s2,0(sp)
    80004140:	02010113          	addi	sp,sp,32
    80004144:	00008067          	ret
    if (n % 10 == 0) { thread_dispatch(); }
    80004148:	ffffd097          	auipc	ra,0xffffd
    8000414c:	1ec080e7          	jalr	492(ra) # 80001334 <_Z15thread_dispatchv>
    80004150:	fc1ff06f          	j	80004110 <_ZL9fibonaccim+0x30>

0000000080004154 <_ZL11workerBodyDPv>:
    printString("C finished!\n");
    finishedC = true;
    thread_dispatch();
}

static void workerBodyD(void* arg) {
    80004154:	fe010113          	addi	sp,sp,-32
    80004158:	00113c23          	sd	ra,24(sp)
    8000415c:	00813823          	sd	s0,16(sp)
    80004160:	00913423          	sd	s1,8(sp)
    80004164:	01213023          	sd	s2,0(sp)
    80004168:	02010413          	addi	s0,sp,32
    uint8 i = 10;
    8000416c:	00a00493          	li	s1,10
    80004170:	0400006f          	j	800041b0 <_ZL11workerBodyDPv+0x5c>
    for (; i < 13; i++) {
        printString("D: i="); printInt(i); printString("\n");
    80004174:	00005517          	auipc	a0,0x5
    80004178:	31c50513          	addi	a0,a0,796 # 80009490 <_ZZ13printInteger1mE6digits+0x188>
    8000417c:	00001097          	auipc	ra,0x1
    80004180:	304080e7          	jalr	772(ra) # 80005480 <_Z11printStringPKc>
    80004184:	00000613          	li	a2,0
    80004188:	00a00593          	li	a1,10
    8000418c:	00048513          	mv	a0,s1
    80004190:	00001097          	auipc	ra,0x1
    80004194:	4a0080e7          	jalr	1184(ra) # 80005630 <_Z8printIntiii>
    80004198:	00005517          	auipc	a0,0x5
    8000419c:	ff850513          	addi	a0,a0,-8 # 80009190 <CONSOLE_STATUS+0x180>
    800041a0:	00001097          	auipc	ra,0x1
    800041a4:	2e0080e7          	jalr	736(ra) # 80005480 <_Z11printStringPKc>
    for (; i < 13; i++) {
    800041a8:	0014849b          	addiw	s1,s1,1
    800041ac:	0ff4f493          	andi	s1,s1,255
    800041b0:	00c00793          	li	a5,12
    800041b4:	fc97f0e3          	bgeu	a5,s1,80004174 <_ZL11workerBodyDPv+0x20>
    }

    printString("D: dispatch\n");
    800041b8:	00005517          	auipc	a0,0x5
    800041bc:	2e050513          	addi	a0,a0,736 # 80009498 <_ZZ13printInteger1mE6digits+0x190>
    800041c0:	00001097          	auipc	ra,0x1
    800041c4:	2c0080e7          	jalr	704(ra) # 80005480 <_Z11printStringPKc>
    __asm__ ("li t1, 5");
    800041c8:	00500313          	li	t1,5
    thread_dispatch();
    800041cc:	ffffd097          	auipc	ra,0xffffd
    800041d0:	168080e7          	jalr	360(ra) # 80001334 <_Z15thread_dispatchv>

    uint64 result = fibonacci(16);
    800041d4:	01000513          	li	a0,16
    800041d8:	00000097          	auipc	ra,0x0
    800041dc:	f08080e7          	jalr	-248(ra) # 800040e0 <_ZL9fibonaccim>
    800041e0:	00050913          	mv	s2,a0
    printString("D: fibonaci="); printInt(result); printString("\n");
    800041e4:	00005517          	auipc	a0,0x5
    800041e8:	2c450513          	addi	a0,a0,708 # 800094a8 <_ZZ13printInteger1mE6digits+0x1a0>
    800041ec:	00001097          	auipc	ra,0x1
    800041f0:	294080e7          	jalr	660(ra) # 80005480 <_Z11printStringPKc>
    800041f4:	00000613          	li	a2,0
    800041f8:	00a00593          	li	a1,10
    800041fc:	0009051b          	sext.w	a0,s2
    80004200:	00001097          	auipc	ra,0x1
    80004204:	430080e7          	jalr	1072(ra) # 80005630 <_Z8printIntiii>
    80004208:	00005517          	auipc	a0,0x5
    8000420c:	f8850513          	addi	a0,a0,-120 # 80009190 <CONSOLE_STATUS+0x180>
    80004210:	00001097          	auipc	ra,0x1
    80004214:	270080e7          	jalr	624(ra) # 80005480 <_Z11printStringPKc>
    80004218:	0400006f          	j	80004258 <_ZL11workerBodyDPv+0x104>

    for (; i < 16; i++) {
        printString("D: i="); printInt(i); printString("\n");
    8000421c:	00005517          	auipc	a0,0x5
    80004220:	27450513          	addi	a0,a0,628 # 80009490 <_ZZ13printInteger1mE6digits+0x188>
    80004224:	00001097          	auipc	ra,0x1
    80004228:	25c080e7          	jalr	604(ra) # 80005480 <_Z11printStringPKc>
    8000422c:	00000613          	li	a2,0
    80004230:	00a00593          	li	a1,10
    80004234:	00048513          	mv	a0,s1
    80004238:	00001097          	auipc	ra,0x1
    8000423c:	3f8080e7          	jalr	1016(ra) # 80005630 <_Z8printIntiii>
    80004240:	00005517          	auipc	a0,0x5
    80004244:	f5050513          	addi	a0,a0,-176 # 80009190 <CONSOLE_STATUS+0x180>
    80004248:	00001097          	auipc	ra,0x1
    8000424c:	238080e7          	jalr	568(ra) # 80005480 <_Z11printStringPKc>
    for (; i < 16; i++) {
    80004250:	0014849b          	addiw	s1,s1,1
    80004254:	0ff4f493          	andi	s1,s1,255
    80004258:	00f00793          	li	a5,15
    8000425c:	fc97f0e3          	bgeu	a5,s1,8000421c <_ZL11workerBodyDPv+0xc8>
    }

    printString("D finished!\n");
    80004260:	00005517          	auipc	a0,0x5
    80004264:	25850513          	addi	a0,a0,600 # 800094b8 <_ZZ13printInteger1mE6digits+0x1b0>
    80004268:	00001097          	auipc	ra,0x1
    8000426c:	218080e7          	jalr	536(ra) # 80005480 <_Z11printStringPKc>
    finishedD = true;
    80004270:	00100793          	li	a5,1
    80004274:	00007717          	auipc	a4,0x7
    80004278:	66f70323          	sb	a5,1638(a4) # 8000b8da <_ZL9finishedD>
    thread_dispatch();
    8000427c:	ffffd097          	auipc	ra,0xffffd
    80004280:	0b8080e7          	jalr	184(ra) # 80001334 <_Z15thread_dispatchv>
}
    80004284:	01813083          	ld	ra,24(sp)
    80004288:	01013403          	ld	s0,16(sp)
    8000428c:	00813483          	ld	s1,8(sp)
    80004290:	00013903          	ld	s2,0(sp)
    80004294:	02010113          	addi	sp,sp,32
    80004298:	00008067          	ret

000000008000429c <_ZL11workerBodyCPv>:
static void workerBodyC(void* arg) {
    8000429c:	fe010113          	addi	sp,sp,-32
    800042a0:	00113c23          	sd	ra,24(sp)
    800042a4:	00813823          	sd	s0,16(sp)
    800042a8:	00913423          	sd	s1,8(sp)
    800042ac:	01213023          	sd	s2,0(sp)
    800042b0:	02010413          	addi	s0,sp,32
    uint8 i = 0;
    800042b4:	00000493          	li	s1,0
    800042b8:	0400006f          	j	800042f8 <_ZL11workerBodyCPv+0x5c>
        printString("C: i="); printInt(i); printString("\n");
    800042bc:	00005517          	auipc	a0,0x5
    800042c0:	19450513          	addi	a0,a0,404 # 80009450 <_ZZ13printInteger1mE6digits+0x148>
    800042c4:	00001097          	auipc	ra,0x1
    800042c8:	1bc080e7          	jalr	444(ra) # 80005480 <_Z11printStringPKc>
    800042cc:	00000613          	li	a2,0
    800042d0:	00a00593          	li	a1,10
    800042d4:	00048513          	mv	a0,s1
    800042d8:	00001097          	auipc	ra,0x1
    800042dc:	358080e7          	jalr	856(ra) # 80005630 <_Z8printIntiii>
    800042e0:	00005517          	auipc	a0,0x5
    800042e4:	eb050513          	addi	a0,a0,-336 # 80009190 <CONSOLE_STATUS+0x180>
    800042e8:	00001097          	auipc	ra,0x1
    800042ec:	198080e7          	jalr	408(ra) # 80005480 <_Z11printStringPKc>
    for (; i < 3; i++) {
    800042f0:	0014849b          	addiw	s1,s1,1
    800042f4:	0ff4f493          	andi	s1,s1,255
    800042f8:	00200793          	li	a5,2
    800042fc:	fc97f0e3          	bgeu	a5,s1,800042bc <_ZL11workerBodyCPv+0x20>
    printString("C: dispatch\n");
    80004300:	00005517          	auipc	a0,0x5
    80004304:	15850513          	addi	a0,a0,344 # 80009458 <_ZZ13printInteger1mE6digits+0x150>
    80004308:	00001097          	auipc	ra,0x1
    8000430c:	178080e7          	jalr	376(ra) # 80005480 <_Z11printStringPKc>
    __asm__ ("li t1, 7");
    80004310:	00700313          	li	t1,7
    thread_dispatch();
    80004314:	ffffd097          	auipc	ra,0xffffd
    80004318:	020080e7          	jalr	32(ra) # 80001334 <_Z15thread_dispatchv>
    __asm__ ("mv %[t1], t1" : [t1] "=r"(t1));
    8000431c:	00030913          	mv	s2,t1
    printString("C: t1="); printInt(t1); printString("\n");
    80004320:	00005517          	auipc	a0,0x5
    80004324:	14850513          	addi	a0,a0,328 # 80009468 <_ZZ13printInteger1mE6digits+0x160>
    80004328:	00001097          	auipc	ra,0x1
    8000432c:	158080e7          	jalr	344(ra) # 80005480 <_Z11printStringPKc>
    80004330:	00000613          	li	a2,0
    80004334:	00a00593          	li	a1,10
    80004338:	0009051b          	sext.w	a0,s2
    8000433c:	00001097          	auipc	ra,0x1
    80004340:	2f4080e7          	jalr	756(ra) # 80005630 <_Z8printIntiii>
    80004344:	00005517          	auipc	a0,0x5
    80004348:	e4c50513          	addi	a0,a0,-436 # 80009190 <CONSOLE_STATUS+0x180>
    8000434c:	00001097          	auipc	ra,0x1
    80004350:	134080e7          	jalr	308(ra) # 80005480 <_Z11printStringPKc>
    uint64 result = fibonacci(12);
    80004354:	00c00513          	li	a0,12
    80004358:	00000097          	auipc	ra,0x0
    8000435c:	d88080e7          	jalr	-632(ra) # 800040e0 <_ZL9fibonaccim>
    80004360:	00050913          	mv	s2,a0
    printString("C: fibonaci="); printInt(result); printString("\n");
    80004364:	00005517          	auipc	a0,0x5
    80004368:	10c50513          	addi	a0,a0,268 # 80009470 <_ZZ13printInteger1mE6digits+0x168>
    8000436c:	00001097          	auipc	ra,0x1
    80004370:	114080e7          	jalr	276(ra) # 80005480 <_Z11printStringPKc>
    80004374:	00000613          	li	a2,0
    80004378:	00a00593          	li	a1,10
    8000437c:	0009051b          	sext.w	a0,s2
    80004380:	00001097          	auipc	ra,0x1
    80004384:	2b0080e7          	jalr	688(ra) # 80005630 <_Z8printIntiii>
    80004388:	00005517          	auipc	a0,0x5
    8000438c:	e0850513          	addi	a0,a0,-504 # 80009190 <CONSOLE_STATUS+0x180>
    80004390:	00001097          	auipc	ra,0x1
    80004394:	0f0080e7          	jalr	240(ra) # 80005480 <_Z11printStringPKc>
    80004398:	0400006f          	j	800043d8 <_ZL11workerBodyCPv+0x13c>
        printString("C: i="); printInt(i); printString("\n");
    8000439c:	00005517          	auipc	a0,0x5
    800043a0:	0b450513          	addi	a0,a0,180 # 80009450 <_ZZ13printInteger1mE6digits+0x148>
    800043a4:	00001097          	auipc	ra,0x1
    800043a8:	0dc080e7          	jalr	220(ra) # 80005480 <_Z11printStringPKc>
    800043ac:	00000613          	li	a2,0
    800043b0:	00a00593          	li	a1,10
    800043b4:	00048513          	mv	a0,s1
    800043b8:	00001097          	auipc	ra,0x1
    800043bc:	278080e7          	jalr	632(ra) # 80005630 <_Z8printIntiii>
    800043c0:	00005517          	auipc	a0,0x5
    800043c4:	dd050513          	addi	a0,a0,-560 # 80009190 <CONSOLE_STATUS+0x180>
    800043c8:	00001097          	auipc	ra,0x1
    800043cc:	0b8080e7          	jalr	184(ra) # 80005480 <_Z11printStringPKc>
    for (; i < 6; i++) {
    800043d0:	0014849b          	addiw	s1,s1,1
    800043d4:	0ff4f493          	andi	s1,s1,255
    800043d8:	00500793          	li	a5,5
    800043dc:	fc97f0e3          	bgeu	a5,s1,8000439c <_ZL11workerBodyCPv+0x100>
    printString("C finished!\n");
    800043e0:	00005517          	auipc	a0,0x5
    800043e4:	0a050513          	addi	a0,a0,160 # 80009480 <_ZZ13printInteger1mE6digits+0x178>
    800043e8:	00001097          	auipc	ra,0x1
    800043ec:	098080e7          	jalr	152(ra) # 80005480 <_Z11printStringPKc>
    finishedC = true;
    800043f0:	00100793          	li	a5,1
    800043f4:	00007717          	auipc	a4,0x7
    800043f8:	4ef703a3          	sb	a5,1255(a4) # 8000b8db <_ZL9finishedC>
    thread_dispatch();
    800043fc:	ffffd097          	auipc	ra,0xffffd
    80004400:	f38080e7          	jalr	-200(ra) # 80001334 <_Z15thread_dispatchv>
}
    80004404:	01813083          	ld	ra,24(sp)
    80004408:	01013403          	ld	s0,16(sp)
    8000440c:	00813483          	ld	s1,8(sp)
    80004410:	00013903          	ld	s2,0(sp)
    80004414:	02010113          	addi	sp,sp,32
    80004418:	00008067          	ret

000000008000441c <_ZL11workerBodyBPv>:
static void workerBodyB(void* arg) {
    8000441c:	fe010113          	addi	sp,sp,-32
    80004420:	00113c23          	sd	ra,24(sp)
    80004424:	00813823          	sd	s0,16(sp)
    80004428:	00913423          	sd	s1,8(sp)
    8000442c:	01213023          	sd	s2,0(sp)
    80004430:	02010413          	addi	s0,sp,32
    for (uint64 i = 0; i < 16; i++) {
    80004434:	00000913          	li	s2,0
    80004438:	0380006f          	j	80004470 <_ZL11workerBodyBPv+0x54>
            thread_dispatch();
    8000443c:	ffffd097          	auipc	ra,0xffffd
    80004440:	ef8080e7          	jalr	-264(ra) # 80001334 <_Z15thread_dispatchv>
        for (uint64 j = 0; j < 10000; j++) {
    80004444:	00148493          	addi	s1,s1,1
    80004448:	000027b7          	lui	a5,0x2
    8000444c:	70f78793          	addi	a5,a5,1807 # 270f <_entry-0x7fffd8f1>
    80004450:	0097ee63          	bltu	a5,s1,8000446c <_ZL11workerBodyBPv+0x50>
            for (uint64 k = 0; k < 30000; k++) { /* busy wait */ }
    80004454:	00000713          	li	a4,0
    80004458:	000077b7          	lui	a5,0x7
    8000445c:	52f78793          	addi	a5,a5,1327 # 752f <_entry-0x7fff8ad1>
    80004460:	fce7eee3          	bltu	a5,a4,8000443c <_ZL11workerBodyBPv+0x20>
    80004464:	00170713          	addi	a4,a4,1
    80004468:	ff1ff06f          	j	80004458 <_ZL11workerBodyBPv+0x3c>
    for (uint64 i = 0; i < 16; i++) {
    8000446c:	00190913          	addi	s2,s2,1
    80004470:	00f00793          	li	a5,15
    80004474:	0527e063          	bltu	a5,s2,800044b4 <_ZL11workerBodyBPv+0x98>
        printString("B: i="); printInt(i); printString("\n");
    80004478:	00005517          	auipc	a0,0x5
    8000447c:	fc050513          	addi	a0,a0,-64 # 80009438 <_ZZ13printInteger1mE6digits+0x130>
    80004480:	00001097          	auipc	ra,0x1
    80004484:	000080e7          	jalr	ra # 80005480 <_Z11printStringPKc>
    80004488:	00000613          	li	a2,0
    8000448c:	00a00593          	li	a1,10
    80004490:	0009051b          	sext.w	a0,s2
    80004494:	00001097          	auipc	ra,0x1
    80004498:	19c080e7          	jalr	412(ra) # 80005630 <_Z8printIntiii>
    8000449c:	00005517          	auipc	a0,0x5
    800044a0:	cf450513          	addi	a0,a0,-780 # 80009190 <CONSOLE_STATUS+0x180>
    800044a4:	00001097          	auipc	ra,0x1
    800044a8:	fdc080e7          	jalr	-36(ra) # 80005480 <_Z11printStringPKc>
        for (uint64 j = 0; j < 10000; j++) {
    800044ac:	00000493          	li	s1,0
    800044b0:	f99ff06f          	j	80004448 <_ZL11workerBodyBPv+0x2c>
    printString("B finished!\n");
    800044b4:	00005517          	auipc	a0,0x5
    800044b8:	f8c50513          	addi	a0,a0,-116 # 80009440 <_ZZ13printInteger1mE6digits+0x138>
    800044bc:	00001097          	auipc	ra,0x1
    800044c0:	fc4080e7          	jalr	-60(ra) # 80005480 <_Z11printStringPKc>
    finishedB = true;
    800044c4:	00100793          	li	a5,1
    800044c8:	00007717          	auipc	a4,0x7
    800044cc:	40f70a23          	sb	a5,1044(a4) # 8000b8dc <_ZL9finishedB>
    thread_dispatch();
    800044d0:	ffffd097          	auipc	ra,0xffffd
    800044d4:	e64080e7          	jalr	-412(ra) # 80001334 <_Z15thread_dispatchv>
}
    800044d8:	01813083          	ld	ra,24(sp)
    800044dc:	01013403          	ld	s0,16(sp)
    800044e0:	00813483          	ld	s1,8(sp)
    800044e4:	00013903          	ld	s2,0(sp)
    800044e8:	02010113          	addi	sp,sp,32
    800044ec:	00008067          	ret

00000000800044f0 <_ZL11workerBodyAPv>:
static void workerBodyA(void* arg) {
    800044f0:	fe010113          	addi	sp,sp,-32
    800044f4:	00113c23          	sd	ra,24(sp)
    800044f8:	00813823          	sd	s0,16(sp)
    800044fc:	00913423          	sd	s1,8(sp)
    80004500:	01213023          	sd	s2,0(sp)
    80004504:	02010413          	addi	s0,sp,32
    for (uint64 i = 0; i < 10; i++) {
    80004508:	00000913          	li	s2,0
    8000450c:	0380006f          	j	80004544 <_ZL11workerBodyAPv+0x54>
            thread_dispatch();
    80004510:	ffffd097          	auipc	ra,0xffffd
    80004514:	e24080e7          	jalr	-476(ra) # 80001334 <_Z15thread_dispatchv>
        for (uint64 j = 0; j < 10000; j++) {
    80004518:	00148493          	addi	s1,s1,1
    8000451c:	000027b7          	lui	a5,0x2
    80004520:	70f78793          	addi	a5,a5,1807 # 270f <_entry-0x7fffd8f1>
    80004524:	0097ee63          	bltu	a5,s1,80004540 <_ZL11workerBodyAPv+0x50>
            for (uint64 k = 0; k < 30000; k++) { /* busy wait */ }
    80004528:	00000713          	li	a4,0
    8000452c:	000077b7          	lui	a5,0x7
    80004530:	52f78793          	addi	a5,a5,1327 # 752f <_entry-0x7fff8ad1>
    80004534:	fce7eee3          	bltu	a5,a4,80004510 <_ZL11workerBodyAPv+0x20>
    80004538:	00170713          	addi	a4,a4,1
    8000453c:	ff1ff06f          	j	8000452c <_ZL11workerBodyAPv+0x3c>
    for (uint64 i = 0; i < 10; i++) {
    80004540:	00190913          	addi	s2,s2,1
    80004544:	00900793          	li	a5,9
    80004548:	0527e063          	bltu	a5,s2,80004588 <_ZL11workerBodyAPv+0x98>
        printString("A: i="); printInt(i); printString("\n");
    8000454c:	00005517          	auipc	a0,0x5
    80004550:	ed450513          	addi	a0,a0,-300 # 80009420 <_ZZ13printInteger1mE6digits+0x118>
    80004554:	00001097          	auipc	ra,0x1
    80004558:	f2c080e7          	jalr	-212(ra) # 80005480 <_Z11printStringPKc>
    8000455c:	00000613          	li	a2,0
    80004560:	00a00593          	li	a1,10
    80004564:	0009051b          	sext.w	a0,s2
    80004568:	00001097          	auipc	ra,0x1
    8000456c:	0c8080e7          	jalr	200(ra) # 80005630 <_Z8printIntiii>
    80004570:	00005517          	auipc	a0,0x5
    80004574:	c2050513          	addi	a0,a0,-992 # 80009190 <CONSOLE_STATUS+0x180>
    80004578:	00001097          	auipc	ra,0x1
    8000457c:	f08080e7          	jalr	-248(ra) # 80005480 <_Z11printStringPKc>
        for (uint64 j = 0; j < 10000; j++) {
    80004580:	00000493          	li	s1,0
    80004584:	f99ff06f          	j	8000451c <_ZL11workerBodyAPv+0x2c>
    printString("A finished!\n");
    80004588:	00005517          	auipc	a0,0x5
    8000458c:	ea050513          	addi	a0,a0,-352 # 80009428 <_ZZ13printInteger1mE6digits+0x120>
    80004590:	00001097          	auipc	ra,0x1
    80004594:	ef0080e7          	jalr	-272(ra) # 80005480 <_Z11printStringPKc>
    finishedA = true;
    80004598:	00100793          	li	a5,1
    8000459c:	00007717          	auipc	a4,0x7
    800045a0:	34f700a3          	sb	a5,833(a4) # 8000b8dd <_ZL9finishedA>
}
    800045a4:	01813083          	ld	ra,24(sp)
    800045a8:	01013403          	ld	s0,16(sp)
    800045ac:	00813483          	ld	s1,8(sp)
    800045b0:	00013903          	ld	s2,0(sp)
    800045b4:	02010113          	addi	sp,sp,32
    800045b8:	00008067          	ret

00000000800045bc <_Z18Threads_C_API_testv>:


void Threads_C_API_test() {
    800045bc:	fd010113          	addi	sp,sp,-48
    800045c0:	02113423          	sd	ra,40(sp)
    800045c4:	02813023          	sd	s0,32(sp)
    800045c8:	03010413          	addi	s0,sp,48
    thread_t threads[4];
    thread_create(&threads[0], workerBodyA, nullptr);
    800045cc:	00000613          	li	a2,0
    800045d0:	00000597          	auipc	a1,0x0
    800045d4:	f2058593          	addi	a1,a1,-224 # 800044f0 <_ZL11workerBodyAPv>
    800045d8:	fd040513          	addi	a0,s0,-48
    800045dc:	ffffd097          	auipc	ra,0xffffd
    800045e0:	be0080e7          	jalr	-1056(ra) # 800011bc <_Z13thread_createPP3TCBPFvPvES2_>
    printString("ThreadA created\n");
    800045e4:	00005517          	auipc	a0,0x5
    800045e8:	ee450513          	addi	a0,a0,-284 # 800094c8 <_ZZ13printInteger1mE6digits+0x1c0>
    800045ec:	00001097          	auipc	ra,0x1
    800045f0:	e94080e7          	jalr	-364(ra) # 80005480 <_Z11printStringPKc>

    thread_create(&threads[1], workerBodyB, nullptr);
    800045f4:	00000613          	li	a2,0
    800045f8:	00000597          	auipc	a1,0x0
    800045fc:	e2458593          	addi	a1,a1,-476 # 8000441c <_ZL11workerBodyBPv>
    80004600:	fd840513          	addi	a0,s0,-40
    80004604:	ffffd097          	auipc	ra,0xffffd
    80004608:	bb8080e7          	jalr	-1096(ra) # 800011bc <_Z13thread_createPP3TCBPFvPvES2_>
    printString("ThreadB created\n");
    8000460c:	00005517          	auipc	a0,0x5
    80004610:	ed450513          	addi	a0,a0,-300 # 800094e0 <_ZZ13printInteger1mE6digits+0x1d8>
    80004614:	00001097          	auipc	ra,0x1
    80004618:	e6c080e7          	jalr	-404(ra) # 80005480 <_Z11printStringPKc>

    thread_create(&threads[2], workerBodyC, nullptr);
    8000461c:	00000613          	li	a2,0
    80004620:	00000597          	auipc	a1,0x0
    80004624:	c7c58593          	addi	a1,a1,-900 # 8000429c <_ZL11workerBodyCPv>
    80004628:	fe040513          	addi	a0,s0,-32
    8000462c:	ffffd097          	auipc	ra,0xffffd
    80004630:	b90080e7          	jalr	-1136(ra) # 800011bc <_Z13thread_createPP3TCBPFvPvES2_>
    printString("ThreadC created\n");
    80004634:	00005517          	auipc	a0,0x5
    80004638:	ec450513          	addi	a0,a0,-316 # 800094f8 <_ZZ13printInteger1mE6digits+0x1f0>
    8000463c:	00001097          	auipc	ra,0x1
    80004640:	e44080e7          	jalr	-444(ra) # 80005480 <_Z11printStringPKc>

    thread_create(&threads[3], workerBodyD, nullptr);
    80004644:	00000613          	li	a2,0
    80004648:	00000597          	auipc	a1,0x0
    8000464c:	b0c58593          	addi	a1,a1,-1268 # 80004154 <_ZL11workerBodyDPv>
    80004650:	fe840513          	addi	a0,s0,-24
    80004654:	ffffd097          	auipc	ra,0xffffd
    80004658:	b68080e7          	jalr	-1176(ra) # 800011bc <_Z13thread_createPP3TCBPFvPvES2_>
    printString("ThreadD created\n");
    8000465c:	00005517          	auipc	a0,0x5
    80004660:	eb450513          	addi	a0,a0,-332 # 80009510 <_ZZ13printInteger1mE6digits+0x208>
    80004664:	00001097          	auipc	ra,0x1
    80004668:	e1c080e7          	jalr	-484(ra) # 80005480 <_Z11printStringPKc>
    8000466c:	00c0006f          	j	80004678 <_Z18Threads_C_API_testv+0xbc>

    while (!(finishedA && finishedB && finishedC && finishedD)) {
        thread_dispatch();
    80004670:	ffffd097          	auipc	ra,0xffffd
    80004674:	cc4080e7          	jalr	-828(ra) # 80001334 <_Z15thread_dispatchv>
    while (!(finishedA && finishedB && finishedC && finishedD)) {
    80004678:	00007797          	auipc	a5,0x7
    8000467c:	2657c783          	lbu	a5,613(a5) # 8000b8dd <_ZL9finishedA>
    80004680:	fe0788e3          	beqz	a5,80004670 <_Z18Threads_C_API_testv+0xb4>
    80004684:	00007797          	auipc	a5,0x7
    80004688:	2587c783          	lbu	a5,600(a5) # 8000b8dc <_ZL9finishedB>
    8000468c:	fe0782e3          	beqz	a5,80004670 <_Z18Threads_C_API_testv+0xb4>
    80004690:	00007797          	auipc	a5,0x7
    80004694:	24b7c783          	lbu	a5,587(a5) # 8000b8db <_ZL9finishedC>
    80004698:	fc078ce3          	beqz	a5,80004670 <_Z18Threads_C_API_testv+0xb4>
    8000469c:	00007797          	auipc	a5,0x7
    800046a0:	23e7c783          	lbu	a5,574(a5) # 8000b8da <_ZL9finishedD>
    800046a4:	fc0786e3          	beqz	a5,80004670 <_Z18Threads_C_API_testv+0xb4>
    }

}
    800046a8:	02813083          	ld	ra,40(sp)
    800046ac:	02013403          	ld	s0,32(sp)
    800046b0:	03010113          	addi	sp,sp,48
    800046b4:	00008067          	ret

00000000800046b8 <_ZN16ProducerKeyboard16producerKeyboardEPv>:
    void run() override {
        producerKeyboard(td);
    }
};

void ProducerKeyboard::producerKeyboard(void *arg) {
    800046b8:	fd010113          	addi	sp,sp,-48
    800046bc:	02113423          	sd	ra,40(sp)
    800046c0:	02813023          	sd	s0,32(sp)
    800046c4:	00913c23          	sd	s1,24(sp)
    800046c8:	01213823          	sd	s2,16(sp)
    800046cc:	01313423          	sd	s3,8(sp)
    800046d0:	03010413          	addi	s0,sp,48
    800046d4:	00050993          	mv	s3,a0
    800046d8:	00058493          	mv	s1,a1
    struct thread_data *data = (struct thread_data *) arg;

    int key;
    int i = 0;
    800046dc:	00000913          	li	s2,0
    800046e0:	00c0006f          	j	800046ec <_ZN16ProducerKeyboard16producerKeyboardEPv+0x34>
    while ((key = getc()) !='p') {
        data->buffer->put(key);
        i++;

        if (i % (10 * data->id) == 0) {
            Thread::dispatch();
    800046e4:	ffffe097          	auipc	ra,0xffffe
    800046e8:	a60080e7          	jalr	-1440(ra) # 80002144 <_ZN6Thread8dispatchEv>
    while ((key = getc()) !='p') {
    800046ec:	ffffd097          	auipc	ra,0xffffd
    800046f0:	e80080e7          	jalr	-384(ra) # 8000156c <_Z4getcv>
    800046f4:	0005059b          	sext.w	a1,a0
    800046f8:	07000793          	li	a5,112
    800046fc:	02f58a63          	beq	a1,a5,80004730 <_ZN16ProducerKeyboard16producerKeyboardEPv+0x78>
        data->buffer->put(key);
    80004700:	0084b503          	ld	a0,8(s1)
    80004704:	00001097          	auipc	ra,0x1
    80004708:	1a0080e7          	jalr	416(ra) # 800058a4 <_ZN9BufferCPP3putEi>
        i++;
    8000470c:	0019071b          	addiw	a4,s2,1
    80004710:	0007091b          	sext.w	s2,a4
        if (i % (10 * data->id) == 0) {
    80004714:	0004a683          	lw	a3,0(s1)
    80004718:	0026979b          	slliw	a5,a3,0x2
    8000471c:	00d787bb          	addw	a5,a5,a3
    80004720:	0017979b          	slliw	a5,a5,0x1
    80004724:	02f767bb          	remw	a5,a4,a5
    80004728:	fc0792e3          	bnez	a5,800046ec <_ZN16ProducerKeyboard16producerKeyboardEPv+0x34>
    8000472c:	fb9ff06f          	j	800046e4 <_ZN16ProducerKeyboard16producerKeyboardEPv+0x2c>
        }
    }

    threadEnd = 1;
    80004730:	00100793          	li	a5,1
    80004734:	00007717          	auipc	a4,0x7
    80004738:	1af72623          	sw	a5,428(a4) # 8000b8e0 <_ZL9threadEnd>
    td->buffer->put('!');
    8000473c:	0209b783          	ld	a5,32(s3)
    80004740:	02100593          	li	a1,33
    80004744:	0087b503          	ld	a0,8(a5)
    80004748:	00001097          	auipc	ra,0x1
    8000474c:	15c080e7          	jalr	348(ra) # 800058a4 <_ZN9BufferCPP3putEi>

    data->wait->signal();
    80004750:	0104b503          	ld	a0,16(s1)
    80004754:	ffffe097          	auipc	ra,0xffffe
    80004758:	b7c080e7          	jalr	-1156(ra) # 800022d0 <_ZN9Semaphore6signalEv>
}
    8000475c:	02813083          	ld	ra,40(sp)
    80004760:	02013403          	ld	s0,32(sp)
    80004764:	01813483          	ld	s1,24(sp)
    80004768:	01013903          	ld	s2,16(sp)
    8000476c:	00813983          	ld	s3,8(sp)
    80004770:	03010113          	addi	sp,sp,48
    80004774:	00008067          	ret

0000000080004778 <_ZN12ProducerSync8producerEPv>:
    void run() override {
        producer(td);
    }
};

void ProducerSync::producer(void *arg) {
    80004778:	fe010113          	addi	sp,sp,-32
    8000477c:	00113c23          	sd	ra,24(sp)
    80004780:	00813823          	sd	s0,16(sp)
    80004784:	00913423          	sd	s1,8(sp)
    80004788:	01213023          	sd	s2,0(sp)
    8000478c:	02010413          	addi	s0,sp,32
    80004790:	00058493          	mv	s1,a1
    struct thread_data *data = (struct thread_data *) arg;

    int i = 0;
    80004794:	00000913          	li	s2,0
    80004798:	00c0006f          	j	800047a4 <_ZN12ProducerSync8producerEPv+0x2c>
    while (!threadEnd) {
        data->buffer->put(data->id + '0');
        i++;

        if (i % (10 * data->id) == 0) {
            Thread::dispatch();
    8000479c:	ffffe097          	auipc	ra,0xffffe
    800047a0:	9a8080e7          	jalr	-1624(ra) # 80002144 <_ZN6Thread8dispatchEv>
    while (!threadEnd) {
    800047a4:	00007797          	auipc	a5,0x7
    800047a8:	13c7a783          	lw	a5,316(a5) # 8000b8e0 <_ZL9threadEnd>
    800047ac:	02079e63          	bnez	a5,800047e8 <_ZN12ProducerSync8producerEPv+0x70>
        data->buffer->put(data->id + '0');
    800047b0:	0004a583          	lw	a1,0(s1)
    800047b4:	0305859b          	addiw	a1,a1,48
    800047b8:	0084b503          	ld	a0,8(s1)
    800047bc:	00001097          	auipc	ra,0x1
    800047c0:	0e8080e7          	jalr	232(ra) # 800058a4 <_ZN9BufferCPP3putEi>
        i++;
    800047c4:	0019071b          	addiw	a4,s2,1
    800047c8:	0007091b          	sext.w	s2,a4
        if (i % (10 * data->id) == 0) {
    800047cc:	0004a683          	lw	a3,0(s1)
    800047d0:	0026979b          	slliw	a5,a3,0x2
    800047d4:	00d787bb          	addw	a5,a5,a3
    800047d8:	0017979b          	slliw	a5,a5,0x1
    800047dc:	02f767bb          	remw	a5,a4,a5
    800047e0:	fc0792e3          	bnez	a5,800047a4 <_ZN12ProducerSync8producerEPv+0x2c>
    800047e4:	fb9ff06f          	j	8000479c <_ZN12ProducerSync8producerEPv+0x24>
        }
    }

    data->wait->signal();
    800047e8:	0104b503          	ld	a0,16(s1)
    800047ec:	ffffe097          	auipc	ra,0xffffe
    800047f0:	ae4080e7          	jalr	-1308(ra) # 800022d0 <_ZN9Semaphore6signalEv>
}
    800047f4:	01813083          	ld	ra,24(sp)
    800047f8:	01013403          	ld	s0,16(sp)
    800047fc:	00813483          	ld	s1,8(sp)
    80004800:	00013903          	ld	s2,0(sp)
    80004804:	02010113          	addi	sp,sp,32
    80004808:	00008067          	ret

000000008000480c <_ZN12ConsumerSync8consumerEPv>:
    void run() override {
        consumer(td);
    }
};

void ConsumerSync::consumer(void *arg) {
    8000480c:	fd010113          	addi	sp,sp,-48
    80004810:	02113423          	sd	ra,40(sp)
    80004814:	02813023          	sd	s0,32(sp)
    80004818:	00913c23          	sd	s1,24(sp)
    8000481c:	01213823          	sd	s2,16(sp)
    80004820:	01313423          	sd	s3,8(sp)
    80004824:	01413023          	sd	s4,0(sp)
    80004828:	03010413          	addi	s0,sp,48
    8000482c:	00050993          	mv	s3,a0
    80004830:	00058913          	mv	s2,a1
    struct thread_data *data = (struct thread_data *) arg;

    int i = 0;
    80004834:	00000a13          	li	s4,0
    80004838:	01c0006f          	j	80004854 <_ZN12ConsumerSync8consumerEPv+0x48>
        i++;

        putc(key);

        if (i % (5 * data->id) == 0) {
            Thread::dispatch();
    8000483c:	ffffe097          	auipc	ra,0xffffe
    80004840:	908080e7          	jalr	-1784(ra) # 80002144 <_ZN6Thread8dispatchEv>
    80004844:	0500006f          	j	80004894 <_ZN12ConsumerSync8consumerEPv+0x88>
        }

        if (i % 80 == 0) {
            putc('\n');
    80004848:	00a00513          	li	a0,10
    8000484c:	ffffd097          	auipc	ra,0xffffd
    80004850:	d4c080e7          	jalr	-692(ra) # 80001598 <_Z4putcc>
    while (!threadEnd) {
    80004854:	00007797          	auipc	a5,0x7
    80004858:	08c7a783          	lw	a5,140(a5) # 8000b8e0 <_ZL9threadEnd>
    8000485c:	06079263          	bnez	a5,800048c0 <_ZN12ConsumerSync8consumerEPv+0xb4>
        int key = data->buffer->get();
    80004860:	00893503          	ld	a0,8(s2)
    80004864:	00001097          	auipc	ra,0x1
    80004868:	0d0080e7          	jalr	208(ra) # 80005934 <_ZN9BufferCPP3getEv>
        i++;
    8000486c:	001a049b          	addiw	s1,s4,1
    80004870:	00048a1b          	sext.w	s4,s1
        putc(key);
    80004874:	0ff57513          	andi	a0,a0,255
    80004878:	ffffd097          	auipc	ra,0xffffd
    8000487c:	d20080e7          	jalr	-736(ra) # 80001598 <_Z4putcc>
        if (i % (5 * data->id) == 0) {
    80004880:	00092703          	lw	a4,0(s2)
    80004884:	0027179b          	slliw	a5,a4,0x2
    80004888:	00e787bb          	addw	a5,a5,a4
    8000488c:	02f4e7bb          	remw	a5,s1,a5
    80004890:	fa0786e3          	beqz	a5,8000483c <_ZN12ConsumerSync8consumerEPv+0x30>
        if (i % 80 == 0) {
    80004894:	05000793          	li	a5,80
    80004898:	02f4e4bb          	remw	s1,s1,a5
    8000489c:	fa049ce3          	bnez	s1,80004854 <_ZN12ConsumerSync8consumerEPv+0x48>
    800048a0:	fa9ff06f          	j	80004848 <_ZN12ConsumerSync8consumerEPv+0x3c>
        }
    }


    while (td->buffer->getCnt() > 0) {
        int key = td->buffer->get();
    800048a4:	0209b783          	ld	a5,32(s3)
    800048a8:	0087b503          	ld	a0,8(a5)
    800048ac:	00001097          	auipc	ra,0x1
    800048b0:	088080e7          	jalr	136(ra) # 80005934 <_ZN9BufferCPP3getEv>
        Console::putc(key);
    800048b4:	0ff57513          	andi	a0,a0,255
    800048b8:	ffffe097          	auipc	ra,0xffffe
    800048bc:	a9c080e7          	jalr	-1380(ra) # 80002354 <_ZN7Console4putcEc>
    while (td->buffer->getCnt() > 0) {
    800048c0:	0209b783          	ld	a5,32(s3)
    800048c4:	0087b503          	ld	a0,8(a5)
    800048c8:	00001097          	auipc	ra,0x1
    800048cc:	0f8080e7          	jalr	248(ra) # 800059c0 <_ZN9BufferCPP6getCntEv>
    800048d0:	fca04ae3          	bgtz	a0,800048a4 <_ZN12ConsumerSync8consumerEPv+0x98>
    }

    data->wait->signal();
    800048d4:	01093503          	ld	a0,16(s2)
    800048d8:	ffffe097          	auipc	ra,0xffffe
    800048dc:	9f8080e7          	jalr	-1544(ra) # 800022d0 <_ZN9Semaphore6signalEv>
}
    800048e0:	02813083          	ld	ra,40(sp)
    800048e4:	02013403          	ld	s0,32(sp)
    800048e8:	01813483          	ld	s1,24(sp)
    800048ec:	01013903          	ld	s2,16(sp)
    800048f0:	00813983          	ld	s3,8(sp)
    800048f4:	00013a03          	ld	s4,0(sp)
    800048f8:	03010113          	addi	sp,sp,48
    800048fc:	00008067          	ret

0000000080004900 <_Z29producerConsumer_CPP_Sync_APIv>:

void producerConsumer_CPP_Sync_API() {
    80004900:	f8010113          	addi	sp,sp,-128
    80004904:	06113c23          	sd	ra,120(sp)
    80004908:	06813823          	sd	s0,112(sp)
    8000490c:	06913423          	sd	s1,104(sp)
    80004910:	07213023          	sd	s2,96(sp)
    80004914:	05313c23          	sd	s3,88(sp)
    80004918:	05413823          	sd	s4,80(sp)
    8000491c:	05513423          	sd	s5,72(sp)
    80004920:	05613023          	sd	s6,64(sp)
    80004924:	03713c23          	sd	s7,56(sp)
    80004928:	03813823          	sd	s8,48(sp)
    8000492c:	03913423          	sd	s9,40(sp)
    80004930:	08010413          	addi	s0,sp,128
    for (int i = 0; i < threadNum; i++) {
        delete threads[i];
    }
    delete consumerThread;
    delete waitForAll;
    delete buffer;
    80004934:	00010b93          	mv	s7,sp
    printString("Unesite broj proizvodjaca?\n");
    80004938:	00005517          	auipc	a0,0x5
    8000493c:	a0050513          	addi	a0,a0,-1536 # 80009338 <_ZZ13printInteger1mE6digits+0x30>
    80004940:	00001097          	auipc	ra,0x1
    80004944:	b40080e7          	jalr	-1216(ra) # 80005480 <_Z11printStringPKc>
    getString(input, 30);
    80004948:	01e00593          	li	a1,30
    8000494c:	f8040493          	addi	s1,s0,-128
    80004950:	00048513          	mv	a0,s1
    80004954:	00001097          	auipc	ra,0x1
    80004958:	bb4080e7          	jalr	-1100(ra) # 80005508 <_Z9getStringPci>
    threadNum = stringToInt(input);
    8000495c:	00048513          	mv	a0,s1
    80004960:	00001097          	auipc	ra,0x1
    80004964:	c80080e7          	jalr	-896(ra) # 800055e0 <_Z11stringToIntPKc>
    80004968:	00050913          	mv	s2,a0
    printString("Unesite velicinu bafera?\n");
    8000496c:	00005517          	auipc	a0,0x5
    80004970:	9ec50513          	addi	a0,a0,-1556 # 80009358 <_ZZ13printInteger1mE6digits+0x50>
    80004974:	00001097          	auipc	ra,0x1
    80004978:	b0c080e7          	jalr	-1268(ra) # 80005480 <_Z11printStringPKc>
    getString(input, 30);
    8000497c:	01e00593          	li	a1,30
    80004980:	00048513          	mv	a0,s1
    80004984:	00001097          	auipc	ra,0x1
    80004988:	b84080e7          	jalr	-1148(ra) # 80005508 <_Z9getStringPci>
    n = stringToInt(input);
    8000498c:	00048513          	mv	a0,s1
    80004990:	00001097          	auipc	ra,0x1
    80004994:	c50080e7          	jalr	-944(ra) # 800055e0 <_Z11stringToIntPKc>
    80004998:	00050493          	mv	s1,a0
    printString("Broj proizvodjaca "); printInt(threadNum);
    8000499c:	00005517          	auipc	a0,0x5
    800049a0:	9dc50513          	addi	a0,a0,-1572 # 80009378 <_ZZ13printInteger1mE6digits+0x70>
    800049a4:	00001097          	auipc	ra,0x1
    800049a8:	adc080e7          	jalr	-1316(ra) # 80005480 <_Z11printStringPKc>
    800049ac:	00000613          	li	a2,0
    800049b0:	00a00593          	li	a1,10
    800049b4:	00090513          	mv	a0,s2
    800049b8:	00001097          	auipc	ra,0x1
    800049bc:	c78080e7          	jalr	-904(ra) # 80005630 <_Z8printIntiii>
    printString(" i velicina bafera "); printInt(n);
    800049c0:	00005517          	auipc	a0,0x5
    800049c4:	9d050513          	addi	a0,a0,-1584 # 80009390 <_ZZ13printInteger1mE6digits+0x88>
    800049c8:	00001097          	auipc	ra,0x1
    800049cc:	ab8080e7          	jalr	-1352(ra) # 80005480 <_Z11printStringPKc>
    800049d0:	00000613          	li	a2,0
    800049d4:	00a00593          	li	a1,10
    800049d8:	00048513          	mv	a0,s1
    800049dc:	00001097          	auipc	ra,0x1
    800049e0:	c54080e7          	jalr	-940(ra) # 80005630 <_Z8printIntiii>
    printString(".\n");
    800049e4:	00005517          	auipc	a0,0x5
    800049e8:	9c450513          	addi	a0,a0,-1596 # 800093a8 <_ZZ13printInteger1mE6digits+0xa0>
    800049ec:	00001097          	auipc	ra,0x1
    800049f0:	a94080e7          	jalr	-1388(ra) # 80005480 <_Z11printStringPKc>
    if(threadNum > n) {
