GAS LISTING /tmp/cc3B99hZ.s 			page 1


   1              		.file	"mainc++.cpp"
   2              		.option pic
   3              		.option norelax
   4              		.text
   5              	.Ltext0:
   6              		.section	.rodata.str1.8,"aMS",@progbits,1
   7              		.align	3
   8              	.LC0:
   9 0000 75736572 		.string	"userMain je gotov\n"
   9      4D61696E 
   9      206A6520 
   9      676F746F 
   9      760A00
  10              		.text
  11              		.align	2
  12              		.globl	_Z11mainWrapperPv
  14              	_Z11mainWrapperPv:
  15              	.LFB60:
  16              		.file 1 "src/mainc++.cpp"
   1:src/mainc++.cpp **** #include "../lib/hw.h"
   2:src/mainc++.cpp **** #include "../h/print.hpp"
   3:src/mainc++.cpp **** #include "../h/syscall_c.hpp"
   4:src/mainc++.cpp **** #include "../h/memoryAllocator.hpp"
   5:src/mainc++.cpp **** #include "../h/riscv.hpp"
   6:src/mainc++.cpp **** #include "../h/scheduler.hpp"
   7:src/mainc++.cpp **** 
   8:src/mainc++.cpp **** void userMain();
   9:src/mainc++.cpp **** 
  10:src/mainc++.cpp **** void mainWrapper(void* arg) {
  17              		.loc 1 10 29
  18              		.cfi_startproc
  19              	.LVL0:
  20 0000 130101FF 		addi	sp,sp,-16
  21              		.cfi_def_cfa_offset 16
  22 0004 23341100 		sd	ra,8(sp)
  23 0008 23308100 		sd	s0,0(sp)
  24              		.cfi_offset 1, -8
  25              		.cfi_offset 8, -16
  26 000c 13040101 		addi	s0,sp,16
  27              		.cfi_def_cfa 8, 0
  11:src/mainc++.cpp **** 
  12:src/mainc++.cpp ****     userMain();
  28              		.loc 1 12 5
  29              		.loc 1 12 13 is_stmt 0
  30 0010 97000000 		call	_Z8userMainv@plt
  30      E7800000 
  31              	.LVL1:
  13:src/mainc++.cpp **** 
  14:src/mainc++.cpp ****     printString1("userMain je gotov\n");
  32              		.loc 1 14 5 is_stmt 1
  33              		.loc 1 14 17 is_stmt 0
  34 0018 17050000 		lla	a0,.LC0
  34      13050500 
  35 0020 97000000 		call	_Z12printString1PKc@plt
  35      E7800000 
  36              	.LVL2:
  15:src/mainc++.cpp **** 
GAS LISTING /tmp/cc3B99hZ.s 			page 2


  16:src/mainc++.cpp **** }
  37              		.loc 1 16 1
  38 0028 83308100 		ld	ra,8(sp)
  39              		.cfi_restore 1
  40 002c 03340100 		ld	s0,0(sp)
  41              		.cfi_restore 8
  42              		.cfi_def_cfa 2, 16
  43 0030 13010101 		addi	sp,sp,16
  44              		.cfi_def_cfa_offset 0
  45 0034 67800000 		jr	ra
  46              		.cfi_endproc
  47              	.LFE60:
  49              		.section	.rodata.str1.8
  50 0013 00000000 		.align	3
  50      00
  51              	.LC1:
  52 0018 54687265 		.string	"Thread created successfully.\n"
  52      61642063 
  52      72656174 
  52      65642073 
  52      75636365 
  53 0036 0000     		.align	3
  54              	.LC2:
  55 0038 4D61696E 		.string	"Main thread finished.\n"
  55      20746872 
  55      65616420 
  55      66696E69 
  55      73686564 
  56              		.text
  57              		.align	2
  58              		.globl	main
  60              	main:
  61              	.LFB61:
  17:src/mainc++.cpp **** 
  18:src/mainc++.cpp **** int main(){
  62              		.loc 1 18 11 is_stmt 1
  63              		.cfi_startproc
  64 0038 130101FE 		addi	sp,sp,-32
  65              		.cfi_def_cfa_offset 32
  66 003c 233C1100 		sd	ra,24(sp)
  67 0040 23388100 		sd	s0,16(sp)
  68              		.cfi_offset 1, -8
  69              		.cfi_offset 8, -16
  70 0044 13040102 		addi	s0,sp,32
  71              		.cfi_def_cfa 8, 0
  19:src/mainc++.cpp **** 
  20:src/mainc++.cpp ****     memoryAllocator::start();
  72              		.loc 1 20 5
  73              		.loc 1 20 27 is_stmt 0
  74 0048 97000000 		call	_ZN15memoryAllocator5startEv@plt
  74      E7800000 
  75              	.LVL3:
  21:src/mainc++.cpp **** 
  22:src/mainc++.cpp ****     Riscv::w_stvec((uint64) &Riscv::supervisorTrap);
  76              		.loc 1 22 5 is_stmt 1
  77              		.loc 1 22 19 is_stmt 0
  78 0050 97070000 		la	a5,_ZN5Riscv14supervisorTrapEv
GAS LISTING /tmp/cc3B99hZ.s 			page 3


  78      83B70700 
  79              	.LVL4:
  80              	.LBB10:
  81              	.LBB11:
  82              		.file 2 "src/../h/riscv.hpp"
   1:src/../h/riscv.hpp **** //
   2:src/../h/riscv.hpp **** // Created by os on 8/3/24.
   3:src/../h/riscv.hpp **** //
   4:src/../h/riscv.hpp **** 
   5:src/../h/riscv.hpp **** #ifndef OS1_VEZBE07_RISCV_CONTEXT_SWITCH_1_SYNCHRONOUS_RISCV_HPP
   6:src/../h/riscv.hpp **** #define OS1_VEZBE07_RISCV_CONTEXT_SWITCH_1_SYNCHRONOUS_RISCV_HPP
   7:src/../h/riscv.hpp **** 
   8:src/../h/riscv.hpp **** #include "../lib/hw.h"
   9:src/../h/riscv.hpp **** 
  10:src/../h/riscv.hpp **** class Riscv
  11:src/../h/riscv.hpp **** {
  12:src/../h/riscv.hpp **** public:
  13:src/../h/riscv.hpp **** 
  14:src/../h/riscv.hpp ****     // pop sstatus.spp and sstatus.spie bits (has to be a non inline function)
  15:src/../h/riscv.hpp ****     static void popSppSpie();
  16:src/../h/riscv.hpp **** 
  17:src/../h/riscv.hpp ****     // read register scause
  18:src/../h/riscv.hpp ****     static uint64 r_scause();
  19:src/../h/riscv.hpp **** 
  20:src/../h/riscv.hpp ****     // write register scause
  21:src/../h/riscv.hpp ****     static void w_scause(uint64 scause);
  22:src/../h/riscv.hpp **** 
  23:src/../h/riscv.hpp ****     // read register sepc
  24:src/../h/riscv.hpp ****     static uint64 r_sepc();
  25:src/../h/riscv.hpp **** 
  26:src/../h/riscv.hpp ****     // write register sepc
  27:src/../h/riscv.hpp ****     static void w_sepc(uint64 sepc);
  28:src/../h/riscv.hpp **** 
  29:src/../h/riscv.hpp ****     // read register stvec
  30:src/../h/riscv.hpp ****     static uint64 r_stvec();
  31:src/../h/riscv.hpp **** 
  32:src/../h/riscv.hpp ****     // write register stvec
  33:src/../h/riscv.hpp ****     static void w_stvec(uint64 stvec);
  34:src/../h/riscv.hpp **** 
  35:src/../h/riscv.hpp ****     // read register stval
  36:src/../h/riscv.hpp ****     static uint64 r_stval();
  37:src/../h/riscv.hpp **** 
  38:src/../h/riscv.hpp ****     // write register stval
  39:src/../h/riscv.hpp ****     static void w_stval(uint64 stval);
  40:src/../h/riscv.hpp **** 
  41:src/../h/riscv.hpp ****     enum BitMaskSip
  42:src/../h/riscv.hpp ****     {
  43:src/../h/riscv.hpp ****         SIP_SSIE = (1 << 1),
  44:src/../h/riscv.hpp ****         SIP_STIE = (1 << 5),
  45:src/../h/riscv.hpp ****         SIP_SEIE = (1 << 9),
  46:src/../h/riscv.hpp ****     };
  47:src/../h/riscv.hpp **** 
  48:src/../h/riscv.hpp ****     // mask set register sip
  49:src/../h/riscv.hpp ****     static void ms_sip(uint64 mask);
  50:src/../h/riscv.hpp **** 
  51:src/../h/riscv.hpp ****     // mask clear register sip
  52:src/../h/riscv.hpp ****     static void mc_sip(uint64 mask);
GAS LISTING /tmp/cc3B99hZ.s 			page 4


  53:src/../h/riscv.hpp **** 
  54:src/../h/riscv.hpp ****     // read register sip
  55:src/../h/riscv.hpp ****     static uint64 r_sip();
  56:src/../h/riscv.hpp **** 
  57:src/../h/riscv.hpp ****     // write register sip
  58:src/../h/riscv.hpp ****     static void w_sip(uint64 sip);
  59:src/../h/riscv.hpp **** 
  60:src/../h/riscv.hpp ****     enum BitMaskSstatus
  61:src/../h/riscv.hpp ****     {
  62:src/../h/riscv.hpp ****         SSTATUS_SIE = (1 << 1),
  63:src/../h/riscv.hpp ****         SSTATUS_SPIE = (1 << 5),
  64:src/../h/riscv.hpp ****         SSTATUS_SPP = (1 << 8),
  65:src/../h/riscv.hpp ****     };
  66:src/../h/riscv.hpp **** 
  67:src/../h/riscv.hpp ****     // mask set register sstatus
  68:src/../h/riscv.hpp ****     static void ms_sstatus(uint64 mask);
  69:src/../h/riscv.hpp **** 
  70:src/../h/riscv.hpp ****     // mask clear register sstatus
  71:src/../h/riscv.hpp ****     static void mc_sstatus(uint64 mask);
  72:src/../h/riscv.hpp **** 
  73:src/../h/riscv.hpp ****     // read register sstatus
  74:src/../h/riscv.hpp ****     static uint64 r_sstatus();
  75:src/../h/riscv.hpp **** 
  76:src/../h/riscv.hpp ****     // write register sstatus
  77:src/../h/riscv.hpp ****     static void w_sstatus(uint64 sstatus);
  78:src/../h/riscv.hpp **** 
  79:src/../h/riscv.hpp ****     static void supervisorTrap();
  80:src/../h/riscv.hpp **** 
  81:src/../h/riscv.hpp **** private:
  82:src/../h/riscv.hpp **** 
  83:src/../h/riscv.hpp ****     static void handleSupervisorTrap();
  84:src/../h/riscv.hpp **** 
  85:src/../h/riscv.hpp **** };
  86:src/../h/riscv.hpp **** 
  87:src/../h/riscv.hpp **** inline uint64 Riscv::r_scause()
  88:src/../h/riscv.hpp **** {
  89:src/../h/riscv.hpp ****     uint64 volatile scause;
  90:src/../h/riscv.hpp ****     __asm__ volatile ("csrr %[scause], scause" : [scause] "=r"(scause));
  91:src/../h/riscv.hpp ****     return scause;
  92:src/../h/riscv.hpp **** }
  93:src/../h/riscv.hpp **** 
  94:src/../h/riscv.hpp **** inline void Riscv::w_scause(uint64 scause)
  95:src/../h/riscv.hpp **** {
  96:src/../h/riscv.hpp ****     __asm__ volatile ("csrw scause, %[scause]" : : [scause] "r"(scause));
  97:src/../h/riscv.hpp **** }
  98:src/../h/riscv.hpp **** 
  99:src/../h/riscv.hpp **** inline uint64 Riscv::r_sepc()
 100:src/../h/riscv.hpp **** {
 101:src/../h/riscv.hpp ****     uint64 volatile sepc;
 102:src/../h/riscv.hpp ****     __asm__ volatile ("csrr %[sepc], sepc" : [sepc] "=r"(sepc));
 103:src/../h/riscv.hpp ****     return sepc;
 104:src/../h/riscv.hpp **** }
 105:src/../h/riscv.hpp **** 
 106:src/../h/riscv.hpp **** inline void Riscv::w_sepc(uint64 sepc)
 107:src/../h/riscv.hpp **** {
 108:src/../h/riscv.hpp ****     __asm__ volatile ("csrw sepc, %[sepc]" : : [sepc] "r"(sepc));
 109:src/../h/riscv.hpp **** }
GAS LISTING /tmp/cc3B99hZ.s 			page 5


 110:src/../h/riscv.hpp **** 
 111:src/../h/riscv.hpp **** inline uint64 Riscv::r_stvec()
 112:src/../h/riscv.hpp **** {
 113:src/../h/riscv.hpp ****     uint64 volatile stvec;
 114:src/../h/riscv.hpp ****     __asm__ volatile ("csrr %[stvec], stvec" : [stvec] "=r"(stvec));
 115:src/../h/riscv.hpp ****     return stvec;
 116:src/../h/riscv.hpp **** }
 117:src/../h/riscv.hpp **** 
 118:src/../h/riscv.hpp **** inline void Riscv::w_stvec(uint64 stvec)
 119:src/../h/riscv.hpp **** {
 120:src/../h/riscv.hpp ****     __asm__ volatile ("csrw stvec, %[stvec]" : : [stvec] "r"(stvec));
  83              		.loc 2 120 5 is_stmt 1
  84              		.loc 2 120 69 is_stmt 0
  85              	#APP
  86              	# 120 "src/../h/riscv.hpp" 1
 121              	}
  87              		csrw stvec, a5
  88              	# 0 "" 2
  89              	.LVL5:
  90              	#NO_APP
  91              	.LBE11:
  92              	.LBE10:
  23:src/mainc++.cpp ****     Riscv::ms_sstatus(Riscv::SSTATUS_SIE);
  93              		.loc 1 23 5 is_stmt 1
  94              	.LBB12:
  95              	.LBB13:
 122:src/../h/riscv.hpp **** 
 123:src/../h/riscv.hpp **** inline uint64 Riscv::r_stval()
 124:src/../h/riscv.hpp **** {
 125:src/../h/riscv.hpp ****     uint64 volatile stval;
 126:src/../h/riscv.hpp ****     __asm__ volatile ("csrr %[stval], stval" : [stval] "=r"(stval));
 127:src/../h/riscv.hpp ****     return stval;
 128:src/../h/riscv.hpp **** }
 129:src/../h/riscv.hpp **** 
 130:src/../h/riscv.hpp **** inline void Riscv::w_stval(uint64 stval)
 131:src/../h/riscv.hpp **** {
 132:src/../h/riscv.hpp ****     __asm__ volatile ("csrw stval, %[stval]" : : [stval] "r"(stval));
 133:src/../h/riscv.hpp **** }
 134:src/../h/riscv.hpp **** 
 135:src/../h/riscv.hpp **** inline void Riscv::ms_sip(uint64 mask)
 136:src/../h/riscv.hpp **** {
 137:src/../h/riscv.hpp ****     __asm__ volatile ("csrs sip, %[mask]" : : [mask] "r"(mask));
 138:src/../h/riscv.hpp **** }
 139:src/../h/riscv.hpp **** 
 140:src/../h/riscv.hpp **** inline void Riscv::mc_sip(uint64 mask)
 141:src/../h/riscv.hpp **** {
 142:src/../h/riscv.hpp ****     __asm__ volatile ("csrc sip, %[mask]" : : [mask] "r"(mask));
 143:src/../h/riscv.hpp **** }
 144:src/../h/riscv.hpp **** 
 145:src/../h/riscv.hpp **** inline uint64 Riscv::r_sip()
 146:src/../h/riscv.hpp **** {
 147:src/../h/riscv.hpp ****     uint64 volatile sip;
 148:src/../h/riscv.hpp ****     __asm__ volatile ("csrr %[sip], sip" : [sip] "=r"(sip));
 149:src/../h/riscv.hpp ****     return sip;
 150:src/../h/riscv.hpp **** }
 151:src/../h/riscv.hpp **** 
 152:src/../h/riscv.hpp **** inline void Riscv::w_sip(uint64 sip)
GAS LISTING /tmp/cc3B99hZ.s 			page 6


 153:src/../h/riscv.hpp **** {
 154:src/../h/riscv.hpp ****     __asm__ volatile ("csrw sip, %[sip]" : : [sip] "r"(sip));
 155:src/../h/riscv.hpp **** }
 156:src/../h/riscv.hpp **** 
 157:src/../h/riscv.hpp **** inline void Riscv::ms_sstatus(uint64 mask)
 158:src/../h/riscv.hpp **** {
 159:src/../h/riscv.hpp ****     __asm__ volatile ("csrs sstatus, %[mask]" : : [mask] "r"(mask));
  96              		.loc 2 159 5
  97              		.loc 2 159 68 is_stmt 0
  98 005c 93072000 		li	a5,2
  99              	#APP
 100              	# 159 "src/../h/riscv.hpp" 1
 160              	}
 101              		csrs sstatus, a5
 102              	# 0 "" 2
 103              	.LVL6:
 104              	#NO_APP
 105              	.LBE13:
 106              	.LBE12:
  24:src/mainc++.cpp **** 
  25:src/mainc++.cpp ****     TCB* main_thread = nullptr;
 107              		.loc 1 25 5 is_stmt 1
 108              		.loc 1 25 10 is_stmt 0
 109 0064 233404FE 		sd	zero,-24(s0)
  26:src/mainc++.cpp **** 
  27:src/mainc++.cpp ****     thread_create(&main_thread, nullptr, nullptr);
 110              		.loc 1 27 5 is_stmt 1
 111              		.loc 1 27 18 is_stmt 0
 112 0068 13060000 		li	a2,0
 113 006c 93050000 		li	a1,0
 114 0070 130584FE 		addi	a0,s0,-24
 115 0074 97000000 		call	_Z13thread_createPP3TCBPFvPvES2_@plt
 115      E7800000 
 116              	.LVL7:
  28:src/mainc++.cpp **** 
  29:src/mainc++.cpp ****     TCB::running = main_thread;
 117              		.loc 1 29 5 is_stmt 1
 118              		.loc 1 29 18 is_stmt 0
 119 007c 97070000 		la	a5,_ZN3TCB7runningE
 119      83B70700 
 120 0084 033784FE 		ld	a4,-24(s0)
 121 0088 23B0E700 		sd	a4,0(a5)
  30:src/mainc++.cpp **** 
  31:src/mainc++.cpp ****     TCB::SetMaximumThreads(10);
 122              		.loc 1 31 5 is_stmt 1
 123              	.LVL8:
 124              	.LBB14:
 125              	.LBB15:
 126              		.file 3 "src/../h/tcb.hpp"
   1:src/../h/tcb.hpp **** //
   2:src/../h/tcb.hpp **** // Created by os on 8/3/24.
   3:src/../h/tcb.hpp **** //
   4:src/../h/tcb.hpp **** 
   5:src/../h/tcb.hpp **** #ifndef OS1_VEZBE07_RISCV_CONTEXT_SWITCH_1_SYNCHRONOUS_TCB_HPP
   6:src/../h/tcb.hpp **** #define OS1_VEZBE07_RISCV_CONTEXT_SWITCH_1_SYNCHRONOUS_TCB_HPP
   7:src/../h/tcb.hpp **** 
   8:src/../h/tcb.hpp **** #include "../lib/hw.h"
GAS LISTING /tmp/cc3B99hZ.s 			page 7


   9:src/../h/tcb.hpp **** #include "memoryAllocator.hpp"
  10:src/../h/tcb.hpp **** #include "list.hpp"
  11:src/../h/tcb.hpp **** 
  12:src/../h/tcb.hpp **** 
  13:src/../h/tcb.hpp **** class Barrier;
  14:src/../h/tcb.hpp **** 
  15:src/../h/tcb.hpp **** // Thread Control Block
  16:src/../h/tcb.hpp **** class TCB
  17:src/../h/tcb.hpp **** {
  18:src/../h/tcb.hpp **** public:
  19:src/../h/tcb.hpp ****     ~TCB() {}
  20:src/../h/tcb.hpp **** 
  21:src/../h/tcb.hpp ****     Barrier* barrier;
  22:src/../h/tcb.hpp **** 
  23:src/../h/tcb.hpp ****     static void thread_join(TCB* handle);
  24:src/../h/tcb.hpp **** 
  25:src/../h/tcb.hpp ****     static int id;
  26:src/../h/tcb.hpp **** 
  27:src/../h/tcb.hpp ****     static int active;
  28:src/../h/tcb.hpp **** 
  29:src/../h/tcb.hpp ****     static int max;
  30:src/../h/tcb.hpp **** 
  31:src/../h/tcb.hpp ****     static int getThreadId();
  32:src/../h/tcb.hpp **** 
  33:src/../h/tcb.hpp ****     static List<TCB> capacity;
  34:src/../h/tcb.hpp **** 
  35:src/../h/tcb.hpp ****     bool isFinished() const { return finished; }
  36:src/../h/tcb.hpp **** 
  37:src/../h/tcb.hpp ****     bool isBlocked() const { return blocked; }
  38:src/../h/tcb.hpp **** 
  39:src/../h/tcb.hpp ****     bool isSuspended() const { return suspended; }
  40:src/../h/tcb.hpp **** 
  41:src/../h/tcb.hpp ****     bool isBarriered() const { return barriered; }
  42:src/../h/tcb.hpp **** 
  43:src/../h/tcb.hpp ****     void setFinished(bool value) { finished = value; }
  44:src/../h/tcb.hpp **** 
  45:src/../h/tcb.hpp ****     void setBlocked(bool value) { blocked = value; }
  46:src/../h/tcb.hpp **** 
  47:src/../h/tcb.hpp ****     void setSuspended(bool value) { suspended = value; }
  48:src/../h/tcb.hpp **** 
  49:src/../h/tcb.hpp ****     void setBarriered(bool value) { barriered = value; }
  50:src/../h/tcb.hpp **** 
  51:src/../h/tcb.hpp ****     int getMyID() const { return myID; }
  52:src/../h/tcb.hpp **** 
  53:src/../h/tcb.hpp ****     static int getMax() { return max; }
  54:src/../h/tcb.hpp **** 
  55:src/../h/tcb.hpp ****     static void SetMaximumThreads(int num_of_threads){ max = num_of_threads; };
 127              		.loc 3 55 56
 128              		.loc 3 55 60 is_stmt 0
 129 008c 97070000 		la	a5,_ZN3TCB3maxE
 129      83B70700 
 130 0094 1307A000 		li	a4,10
 131 0098 23A0E700 		sw	a4,0(a5)
 132              	.LVL9:
 133              	.LBE15:
 134              	.LBE14:
  32:src/mainc++.cpp **** 
GAS LISTING /tmp/cc3B99hZ.s 			page 8


  33:src/mainc++.cpp ****     TCB* threadHandle1 = nullptr;
 135              		.loc 1 33 5 is_stmt 1
 136              		.loc 1 33 10 is_stmt 0
 137 009c 233004FE 		sd	zero,-32(s0)
  34:src/mainc++.cpp **** 
  35:src/mainc++.cpp **** 
  36:src/mainc++.cpp ****     thread_create(&threadHandle1, mainWrapper, nullptr);
 138              		.loc 1 36 5 is_stmt 1
 139              		.loc 1 36 18 is_stmt 0
 140 00a0 13060000 		li	a2,0
 141 00a4 97050000 		lla	a1,_Z11mainWrapperPv
 141      93850500 
 142 00ac 130504FE 		addi	a0,s0,-32
 143 00b0 97000000 		call	_Z13thread_createPP3TCBPFvPvES2_@plt
 143      E7800000 
 144              	.LVL10:
  37:src/mainc++.cpp **** 
  38:src/mainc++.cpp **** 
  39:src/mainc++.cpp **** 
  40:src/mainc++.cpp ****     printString1("Thread created successfully.\n");
 145              		.loc 1 40 5 is_stmt 1
 146              		.loc 1 40 17 is_stmt 0
 147 00b8 17050000 		lla	a0,.LC1
 147      13050500 
 148 00c0 97000000 		call	_Z12printString1PKc@plt
 148      E7800000 
 149              	.LVL11:
 150              	.L5:
  41:src/mainc++.cpp **** 
  42:src/mainc++.cpp ****     while(!threadHandle1->isFinished()) {
 151              		.loc 1 42 5 is_stmt 1
 152              		.loc 1 42 11
 153              		.loc 1 42 37 is_stmt 0
 154 00c8 833704FE 		ld	a5,-32(s0)
 155              	.LVL12:
 156              	.LBB16:
 157              	.LBB17:
  35:src/../h/tcb.hpp **** 
 158              		.loc 3 35 31 is_stmt 1
  35:src/../h/tcb.hpp **** 
 159              		.loc 3 35 38 is_stmt 0
 160 00cc 83C70703 		lbu	a5,48(a5)
 161              	.LVL13:
 162              	.LBE17:
 163              	.LBE16:
 164              		.loc 1 42 11
 165 00d0 63980700 		bnez	a5,.L4
  43:src/mainc++.cpp ****         thread_dispatch();
 166              		.loc 1 43 9 is_stmt 1
 167              		.loc 1 43 24 is_stmt 0
 168 00d4 97000000 		call	_Z15thread_dispatchv@plt
 168      E7800000 
 169              	.LVL14:
 170 00dc 6FF0DFFE 		j	.L5
 171              	.L4:
  44:src/mainc++.cpp ****     }
  45:src/mainc++.cpp **** 
GAS LISTING /tmp/cc3B99hZ.s 			page 9


  46:src/mainc++.cpp ****     // Glavna nit se vraća nakon što se sve niti završe
  47:src/mainc++.cpp ****     printString1("Main thread finished.\n");
 172              		.loc 1 47 5 is_stmt 1
 173              		.loc 1 47 17 is_stmt 0
 174 00e0 17050000 		lla	a0,.LC2
 174      13050500 
 175 00e8 97000000 		call	_Z12printString1PKc@plt
 175      E7800000 
 176              	.LVL15:
  48:src/mainc++.cpp **** 
  49:src/mainc++.cpp **** 
  50:src/mainc++.cpp **** 
  51:src/mainc++.cpp ****     return 0;
 177              		.loc 1 51 5 is_stmt 1
  52:src/mainc++.cpp **** }...
 178              		.loc 1 52 1 is_stmt 0
 179 00f0 13050000 		li	a0,0
 180 00f4 83308101 		ld	ra,24(sp)
 181              		.cfi_restore 1
 182 00f8 03340101 		ld	s0,16(sp)
 183              		.cfi_restore 8
 184              		.cfi_def_cfa 2, 32
 185 00fc 13010102 		addi	sp,sp,32
 186              		.cfi_def_cfa_offset 0
 187 0100 67800000 		jr	ra
 188              		.cfi_endproc
 189              	.LFE61:
 191              	.Letext0:
 192              		.file 4 "src/../lib/hw.h"
 193              		.file 5 "src/../h/memoryAllocator.hpp"
 194              		.file 6 "src/../h/list.hpp"
 195              		.file 7 "src/../h/syscall_c.hpp"
 196              		.file 8 "src/../h/print.hpp"
GAS LISTING /tmp/cc3B99hZ.s 			page 10

