GAS LISTING /tmp/ccGS7JQp.s 			page 1


   1              		.file	"memoryAllocator.cpp"
   2              		.option pic
   3              		.option norelax
   4              		.text
   5              	.Ltext0:
   6              		.align	2
   7              		.globl	_Z10roundUpDivmm
   9              	_Z10roundUpDivmm:
  10              	.LFB0:
  11              		.file 1 "src/memoryAllocator.cpp"
   1:src/memoryAllocator.cpp **** //
   2:src/memoryAllocator.cpp **** // Created by os on 8/3/24.
   3:src/memoryAllocator.cpp **** //
   4:src/memoryAllocator.cpp **** 
   5:src/memoryAllocator.cpp **** #include "../h/memoryAllocator.hpp"
   6:src/memoryAllocator.cpp **** #include "../h/print.hpp"
   7:src/memoryAllocator.cpp **** 
   8:src/memoryAllocator.cpp **** size_t roundUpDiv(size_t numerator, size_t denominator) {
  12              		.loc 1 8 57
  13              		.cfi_startproc
  14              	.LVL0:
  15 0000 130101FF 		addi	sp,sp,-16
  16              		.cfi_def_cfa_offset 16
  17 0004 23348100 		sd	s0,8(sp)
  18              		.cfi_offset 8, -8
  19 0008 13040101 		addi	s0,sp,16
  20              		.cfi_def_cfa 8, 0
   9:src/memoryAllocator.cpp **** 	return (numerator + denominator - 1) / denominator;
  21              		.loc 1 9 2
  22              		.loc 1 9 20 is_stmt 0
  23 000c 3305B500 		add	a0,a0,a1
  24              	.LVL1:
  25              		.loc 1 9 34
  26 0010 1305F5FF 		addi	a0,a0,-1
  10:src/memoryAllocator.cpp **** }
  27              		.loc 1 10 1
  28 0014 3355B502 		divu	a0,a0,a1
  29 0018 03348100 		ld	s0,8(sp)
  30              		.cfi_restore 8
  31              		.cfi_def_cfa 2, 16
  32 001c 13010101 		addi	sp,sp,16
  33              		.cfi_def_cfa_offset 0
  34 0020 67800000 		jr	ra
  35              		.cfi_endproc
  36              	.LFE0:
  38              		.align	2
  39              		.globl	_ZN15memoryAllocator5startEv
  41              	_ZN15memoryAllocator5startEv:
  42              	.LFB1:
  11:src/memoryAllocator.cpp **** 
  12:src/memoryAllocator.cpp **** memoryAllocator::FreeMem* memoryAllocator::fmem_head = nullptr;
  13:src/memoryAllocator.cpp **** 
  14:src/memoryAllocator.cpp **** void memoryAllocator::start(){
  43              		.loc 1 14 30 is_stmt 1
  44              		.cfi_startproc
  45 0024 130101FF 		addi	sp,sp,-16
  46              		.cfi_def_cfa_offset 16
GAS LISTING /tmp/ccGS7JQp.s 			page 2


  47 0028 23348100 		sd	s0,8(sp)
  48              		.cfi_offset 8, -8
  49 002c 13040101 		addi	s0,sp,16
  50              		.cfi_def_cfa 8, 0
  15:src/memoryAllocator.cpp **** 
  16:src/memoryAllocator.cpp **** 	FreeMem* fm = (FreeMem*)(HEAP_START_ADDR);
  51              		.loc 1 16 2
  52              		.loc 1 16 11 is_stmt 0
  53 0030 97070000 		la	a5,HEAP_START_ADDR
  53      83B70700 
  54 0038 83B70700 		ld	a5,0(a5)
  55              	.LVL2:
  17:src/memoryAllocator.cpp **** 	fm->next = nullptr;
  56              		.loc 1 17 2 is_stmt 1
  57              		.loc 1 17 11 is_stmt 0
  58 003c 23B40700 		sd	zero,8(a5)
  18:src/memoryAllocator.cpp **** 	fm->prev = nullptr;
  59              		.loc 1 18 2 is_stmt 1
  60              		.loc 1 18 11 is_stmt 0
  61 0040 23B80700 		sd	zero,16(a5)
  19:src/memoryAllocator.cpp **** 	fm->size = ((char*)HEAP_END_ADDR - (char*)HEAP_START_ADDR)/MEM_BLOCK_SIZE;
  62              		.loc 1 19 2 is_stmt 1
  63              		.loc 1 19 14 is_stmt 0
  64 0044 17070000 		la	a4,HEAP_END_ADDR
  64      03370700 
  65 004c 03370700 		ld	a4,0(a4)
  66              		.loc 1 19 35
  67 0050 3307F740 		sub	a4,a4,a5
  68              		.loc 1 19 60
  69 0054 13576700 		srli	a4,a4,6
  70              		.loc 1 19 11
  71 0058 23B0E700 		sd	a4,0(a5)
  20:src/memoryAllocator.cpp **** 	fmem_head = fm;
  72              		.loc 1 20 2 is_stmt 1
  73              		.loc 1 20 12 is_stmt 0
  74 005c 17070000 		sd	a5,.LANCHOR0,a4
  74      2330F700 
  21:src/memoryAllocator.cpp **** 
  22:src/memoryAllocator.cpp **** }
  75              		.loc 1 22 1
  76 0064 03348100 		ld	s0,8(sp)
  77              		.cfi_restore 8
  78              		.cfi_def_cfa 2, 16
  79 0068 13010101 		addi	sp,sp,16
  80              		.cfi_def_cfa_offset 0
  81 006c 67800000 		jr	ra
  82              		.cfi_endproc
  83              	.LFE1:
  85              		.align	2
  86              		.globl	_ZN15memoryAllocator8allocateEm
  88              	_ZN15memoryAllocator8allocateEm:
  89              	.LFB2:
  23:src/memoryAllocator.cpp **** 
  24:src/memoryAllocator.cpp **** void* memoryAllocator::allocate(size_t blocks){
  90              		.loc 1 24 47 is_stmt 1
  91              		.cfi_startproc
  92              	.LVL3:
GAS LISTING /tmp/ccGS7JQp.s 			page 3


  93 0070 130101FF 		addi	sp,sp,-16
  94              		.cfi_def_cfa_offset 16
  95 0074 23348100 		sd	s0,8(sp)
  96              		.cfi_offset 8, -8
  97 0078 13040101 		addi	s0,sp,16
  98              		.cfi_def_cfa 8, 0
  99 007c 93070500 		mv	a5,a0
  25:src/memoryAllocator.cpp **** 
  26:src/memoryAllocator.cpp **** 	for(FreeMem* cur= fmem_head;cur!=nullptr;cur=cur->next){
 100              		.loc 1 26 2
 101              	.LBB2:
 102              		.loc 1 26 15 is_stmt 0
 103 0080 17050000 		ld	a0,.LANCHOR0
 103      03350500 
 104              	.LVL4:
 105              	.L8:
 106              		.loc 1 26 33 is_stmt 1 discriminator 1
 107 0088 630A0504 		beqz	a0,.L5
 108              	.LBB3:
  27:src/memoryAllocator.cpp **** 
  28:src/memoryAllocator.cpp **** 		if(cur->size < blocks)continue;
 109              		.loc 1 28 3
 110              		.loc 1 28 11 is_stmt 0
 111 008c 03370500 		ld	a4,0(a0)
 112              		.loc 1 28 3
 113 0090 636CF704 		bltu	a4,a5,.L17
  29:src/memoryAllocator.cpp **** 		//Found!
  30:src/memoryAllocator.cpp **** 
  31:src/memoryAllocator.cpp **** 		//ako je uzet ceo fragment slobodne
  32:src/memoryAllocator.cpp **** 		if(cur-> size - blocks == 0){
 114              		.loc 1 32 3 is_stmt 1
 115              	.LBB4:
 116 0094 630EF704 		beq	a4,a5,.L18
 117              	.LBB5:
  33:src/memoryAllocator.cpp **** 			if(cur->prev) cur->prev->next = cur->next;
  34:src/memoryAllocator.cpp **** 			else fmem_head = cur -> next;
  35:src/memoryAllocator.cpp **** 			if(cur->next) cur->next->prev = cur->prev;
  36:src/memoryAllocator.cpp **** 
  37:src/memoryAllocator.cpp **** 		}
  38:src/memoryAllocator.cpp **** 		else{
  39:src/memoryAllocator.cpp **** 
  40:src/memoryAllocator.cpp **** 
  41:src/memoryAllocator.cpp **** 			FreeMem* newfrgm = (FreeMem*)((char*)cur+MEM_BLOCK_SIZE * blocks);
 118              		.loc 1 41 4
 119              		.loc 1 41 60 is_stmt 0
 120 0098 13976700 		slli	a4,a5,6
 121              		.loc 1 41 13
 122 009c 3307E500 		add	a4,a0,a4
 123              	.LVL5:
  42:src/memoryAllocator.cpp **** 
  43:src/memoryAllocator.cpp **** 
  44:src/memoryAllocator.cpp **** 			if(cur->prev) cur->prev->next = newfrgm;
 124              		.loc 1 44 4 is_stmt 1
 125              		.loc 1 44 12 is_stmt 0
 126 00a0 83360501 		ld	a3,16(a0)
 127              		.loc 1 44 4
 128 00a4 63800608 		beqz	a3,.L13
GAS LISTING /tmp/ccGS7JQp.s 			page 4


 129              		.loc 1 44 18 is_stmt 1 discriminator 1
 130              		.loc 1 44 34 is_stmt 0 discriminator 1
 131 00a8 23B4E600 		sd	a4,8(a3)
 132              	.L14:
  45:src/memoryAllocator.cpp **** 			else fmem_head = newfrgm;
  46:src/memoryAllocator.cpp **** 
  47:src/memoryAllocator.cpp **** 			if(cur->next) cur->next->prev = newfrgm;
 133              		.loc 1 47 4 is_stmt 1
 134              		.loc 1 47 12 is_stmt 0
 135 00ac 83368500 		ld	a3,8(a0)
 136              		.loc 1 47 4
 137 00b0 63840600 		beqz	a3,.L15
 138              		.loc 1 47 18 is_stmt 1 discriminator 1
 139              		.loc 1 47 34 is_stmt 0 discriminator 1
 140 00b4 23B8E600 		sd	a4,16(a3)
 141              	.L15:
  48:src/memoryAllocator.cpp **** 
  49:src/memoryAllocator.cpp **** 			newfrgm-> prev = cur->prev;
 142              		.loc 1 49 4 is_stmt 1
 143              		.loc 1 49 26 is_stmt 0
 144 00b8 83360501 		ld	a3,16(a0)
 145              		.loc 1 49 19
 146 00bc 2338D700 		sd	a3,16(a4)
  50:src/memoryAllocator.cpp **** 			newfrgm->next = cur->next;
 147              		.loc 1 50 4 is_stmt 1
 148              		.loc 1 50 25 is_stmt 0
 149 00c0 83368500 		ld	a3,8(a0)
 150              		.loc 1 50 18
 151 00c4 2334D700 		sd	a3,8(a4)
  51:src/memoryAllocator.cpp **** 			newfrgm-> size = cur -> size - blocks;
 152              		.loc 1 51 4 is_stmt 1
 153              		.loc 1 51 28 is_stmt 0
 154 00c8 83360500 		ld	a3,0(a0)
 155              		.loc 1 51 33
 156 00cc B386F640 		sub	a3,a3,a5
 157              		.loc 1 51 19
 158 00d0 2330D700 		sd	a3,0(a4)
 159              	.LVL6:
 160              	.L12:
 161              	.LBE5:
 162              	.LBE4:
  52:src/memoryAllocator.cpp **** 
  53:src/memoryAllocator.cpp **** 
  54:src/memoryAllocator.cpp **** 		}
  55:src/memoryAllocator.cpp **** 
  56:src/memoryAllocator.cpp **** 
  57:src/memoryAllocator.cpp **** 
  58:src/memoryAllocator.cpp **** 		uint32* header = (uint32*)cur;
 163              		.loc 1 58 3 is_stmt 1
  59:src/memoryAllocator.cpp **** 		*header = blocks;
 164              		.loc 1 59 3
 165              		.loc 1 59 11 is_stmt 0
 166 00d4 2320F500 		sw	a5,0(a0)
  60:src/memoryAllocator.cpp **** 
  61:src/memoryAllocator.cpp **** 		return (void*)(header + 1);
 167              		.loc 1 61 3 is_stmt 1
 168              		.loc 1 61 28 is_stmt 0
GAS LISTING /tmp/ccGS7JQp.s 			page 5


 169 00d8 13054500 		addi	a0,a0,4
 170              	.LVL7:
 171              	.L5:
 172              	.LBE3:
 173              	.LBE2:
  62:src/memoryAllocator.cpp **** 	}
  63:src/memoryAllocator.cpp **** 	return nullptr;
  64:src/memoryAllocator.cpp **** }
 174              		.loc 1 64 1
 175 00dc 03348100 		ld	s0,8(sp)
 176              		.cfi_remember_state
 177              		.cfi_restore 8
 178              		.cfi_def_cfa 2, 16
 179 00e0 13010101 		addi	sp,sp,16
 180              		.cfi_def_cfa_offset 0
 181 00e4 67800000 		jr	ra
 182              	.LVL8:
 183              	.L17:
 184              		.cfi_restore_state
 185              	.LBB10:
 186              	.LBB8:
  28:src/memoryAllocator.cpp **** 		//Found!
 187              		.loc 1 28 25 is_stmt 1 discriminator 1
 188              	.LBE8:
  26:src/memoryAllocator.cpp **** 
 189              		.loc 1 26 2 discriminator 1
  26:src/memoryAllocator.cpp **** 
 190              		.loc 1 26 46 is_stmt 0 discriminator 1
 191 00e8 03358500 		ld	a0,8(a0)
 192              	.LVL9:
  26:src/memoryAllocator.cpp **** 
 193              		.loc 1 26 2 discriminator 1
 194 00ec 6FF0DFF9 		j	.L8
 195              	.L18:
 196              	.LBB9:
 197              	.LBB7:
  33:src/memoryAllocator.cpp **** 			else fmem_head = cur -> next;
 198              		.loc 1 33 4 is_stmt 1
  33:src/memoryAllocator.cpp **** 			else fmem_head = cur -> next;
 199              		.loc 1 33 12 is_stmt 0
 200 00f0 03370501 		ld	a4,16(a0)
  33:src/memoryAllocator.cpp **** 			else fmem_head = cur -> next;
 201              		.loc 1 33 4
 202 00f4 63000702 		beqz	a4,.L10
  33:src/memoryAllocator.cpp **** 			else fmem_head = cur -> next;
 203              		.loc 1 33 18 is_stmt 1 discriminator 1
  33:src/memoryAllocator.cpp **** 			else fmem_head = cur -> next;
 204              		.loc 1 33 41 is_stmt 0 discriminator 1
 205 00f8 83368500 		ld	a3,8(a0)
  33:src/memoryAllocator.cpp **** 			else fmem_head = cur -> next;
 206              		.loc 1 33 34 discriminator 1
 207 00fc 2334D700 		sd	a3,8(a4)
 208              	.L11:
  35:src/memoryAllocator.cpp **** 
 209              		.loc 1 35 4 is_stmt 1
  35:src/memoryAllocator.cpp **** 
 210              		.loc 1 35 12 is_stmt 0
GAS LISTING /tmp/ccGS7JQp.s 			page 6


 211 0100 03378500 		ld	a4,8(a0)
  35:src/memoryAllocator.cpp **** 
 212              		.loc 1 35 4
 213 0104 E30807FC 		beqz	a4,.L12
  35:src/memoryAllocator.cpp **** 
 214              		.loc 1 35 18 is_stmt 1 discriminator 1
  35:src/memoryAllocator.cpp **** 
 215              		.loc 1 35 41 is_stmt 0 discriminator 1
 216 0108 83360501 		ld	a3,16(a0)
  35:src/memoryAllocator.cpp **** 
 217              		.loc 1 35 34 discriminator 1
 218 010c 2338D700 		sd	a3,16(a4)
 219 0110 6FF05FFC 		j	.L12
 220              	.L10:
  34:src/memoryAllocator.cpp **** 			if(cur->next) cur->next->prev = cur->prev;
 221              		.loc 1 34 9 is_stmt 1
  34:src/memoryAllocator.cpp **** 			if(cur->next) cur->next->prev = cur->prev;
 222              		.loc 1 34 28 is_stmt 0
 223 0114 03378500 		ld	a4,8(a0)
  34:src/memoryAllocator.cpp **** 			if(cur->next) cur->next->prev = cur->prev;
 224              		.loc 1 34 19
 225 0118 97060000 		sd	a4,.LANCHOR0,a3
 225      23B0E600 
 226 0120 6FF01FFE 		j	.L11
 227              	.LVL10:
 228              	.L13:
 229              	.LBB6:
  45:src/memoryAllocator.cpp **** 
 230              		.loc 1 45 9 is_stmt 1
  45:src/memoryAllocator.cpp **** 
 231              		.loc 1 45 19 is_stmt 0
 232 0124 97060000 		sd	a4,.LANCHOR0,a3
 232      23B0E600 
 233 012c 6FF01FF8 		j	.L14
 234              	.LBE6:
 235              	.LBE7:
 236              	.LBE9:
 237              	.LBE10:
 238              		.cfi_endproc
 239              	.LFE2:
 241              		.align	2
 242              		.globl	_ZN15memoryAllocator10deallocateEPv
 244              	_ZN15memoryAllocator10deallocateEPv:
 245              	.LFB3:
  65:src/memoryAllocator.cpp **** 
  66:src/memoryAllocator.cpp **** int memoryAllocator::deallocate(void* ptr) {
 246              		.loc 1 66 44 is_stmt 1
 247              		.cfi_startproc
 248              	.LVL11:
 249 0130 130101FF 		addi	sp,sp,-16
 250              		.cfi_def_cfa_offset 16
 251 0134 23348100 		sd	s0,8(sp)
 252              		.cfi_offset 8, -8
 253 0138 13040101 		addi	s0,sp,16
 254              		.cfi_def_cfa 8, 0
  67:src/memoryAllocator.cpp ****     if(!ptr) return -21;
 255              		.loc 1 67 5
GAS LISTING /tmp/ccGS7JQp.s 			page 7


 256 013c 630E050C 		beqz	a0,.L27
  68:src/memoryAllocator.cpp **** 
  69:src/memoryAllocator.cpp ****     FreeMem* blockToFree = (FreeMem*)((char*)ptr - sizeof(uint32));
 257              		.loc 1 69 5
 258              		.loc 1 69 14 is_stmt 0
 259 0140 9306C5FF 		addi	a3,a0,-4
 260              	.LVL12:
  70:src/memoryAllocator.cpp ****     blockToFree->size = *((uint32*)blockToFree);
 261              		.loc 1 70 5 is_stmt 1
 262              		.loc 1 70 25 is_stmt 0
 263 0144 8367C5FF 		lwu	a5,-4(a0)
 264              		.loc 1 70 23
 265 0148 233EF5FE 		sd	a5,-4(a0)
  71:src/memoryAllocator.cpp **** 
  72:src/memoryAllocator.cpp ****     FreeMem* cur = fmem_head;
 266              		.loc 1 72 5 is_stmt 1
 267              		.loc 1 72 14 is_stmt 0
 268 014c 97070000 		ld	a5,.LANCHOR0
 268      83B70700 
 269              	.LVL13:
  73:src/memoryAllocator.cpp ****     FreeMem* prev = nullptr;
 270              		.loc 1 73 5 is_stmt 1
 271              		.loc 1 73 14 is_stmt 0
 272 0154 13070000 		li	a4,0
 273              	.LVL14:
 274              	.L22:
  74:src/memoryAllocator.cpp **** 
  75:src/memoryAllocator.cpp ****     while(cur && cur < blockToFree) {
 275              		.loc 1 75 5 is_stmt 1
 276              		.loc 1 75 15
 277 0158 638A0700 		beqz	a5,.L21
 278              		.loc 1 75 15 is_stmt 0 discriminator 1
 279 015c 63F8D700 		bgeu	a5,a3,.L21
  76:src/memoryAllocator.cpp **** 
  77:src/memoryAllocator.cpp ****         prev = cur;
 280              		.loc 1 77 9 is_stmt 1
 281              	.LVL15:
  78:src/memoryAllocator.cpp ****         cur = cur->next;
 282              		.loc 1 78 9
  77:src/memoryAllocator.cpp ****         cur = cur->next;
 283              		.loc 1 77 14 is_stmt 0
 284 0160 13870700 		mv	a4,a5
 285              		.loc 1 78 13
 286 0164 83B78700 		ld	a5,8(a5)
 287              	.LVL16:
  75:src/memoryAllocator.cpp **** 
 288              		.loc 1 75 5
 289 0168 6FF01FFF 		j	.L22
 290              	.L21:
  79:src/memoryAllocator.cpp ****     }
  80:src/memoryAllocator.cpp **** 
  81:src/memoryAllocator.cpp ****     blockToFree->next = cur;
 291              		.loc 1 81 5 is_stmt 1
 292              		.loc 1 81 23 is_stmt 0
 293 016c 2332F500 		sd	a5,4(a0)
  82:src/memoryAllocator.cpp ****     blockToFree->prev = prev;
 294              		.loc 1 82 5 is_stmt 1
GAS LISTING /tmp/ccGS7JQp.s 			page 8


 295              		.loc 1 82 23 is_stmt 0
 296 0170 2336E500 		sd	a4,12(a0)
  83:src/memoryAllocator.cpp **** 
  84:src/memoryAllocator.cpp **** 
  85:src/memoryAllocator.cpp ****     if(prev) {
 297              		.loc 1 85 5 is_stmt 1
 298 0174 63040704 		beqz	a4,.L23
  86:src/memoryAllocator.cpp ****         prev->next = blockToFree;
 299              		.loc 1 86 9
 300              		.loc 1 86 20 is_stmt 0
 301 0178 2334D700 		sd	a3,8(a4)
 302              	.L24:
  87:src/memoryAllocator.cpp ****     } else {
  88:src/memoryAllocator.cpp ****         fmem_head = blockToFree;
  89:src/memoryAllocator.cpp ****     }
  90:src/memoryAllocator.cpp **** 
  91:src/memoryAllocator.cpp ****     if(cur) {
 303              		.loc 1 91 5 is_stmt 1
 304 017c 63840700 		beqz	a5,.L25
  92:src/memoryAllocator.cpp ****         cur->prev = blockToFree;
 305              		.loc 1 92 9
 306              		.loc 1 92 19 is_stmt 0
 307 0180 23B8D700 		sd	a3,16(a5)
 308              	.L25:
  93:src/memoryAllocator.cpp ****     }
  94:src/memoryAllocator.cpp **** 
  95:src/memoryAllocator.cpp ****     if(prev && (char*)prev + prev->size * MEM_BLOCK_SIZE == (char*)blockToFree) {
 309              		.loc 1 95 5 is_stmt 1
 310 0184 630A0700 		beqz	a4,.L26
 311              		.loc 1 95 36 is_stmt 0 discriminator 1
 312 0188 83350700 		ld	a1,0(a4)
 313              		.loc 1 95 41 discriminator 1
 314 018c 13966500 		slli	a2,a1,6
 315              		.loc 1 95 28 discriminator 1
 316 0190 3306C700 		add	a2,a4,a2
 317              		.loc 1 95 13 discriminator 1
 318 0194 630AD602 		beq	a2,a3,.L33
 319              	.LVL17:
 320              	.L26:
  96:src/memoryAllocator.cpp ****         prev->size += blockToFree->size;
  97:src/memoryAllocator.cpp ****         prev->next = blockToFree->next;
  98:src/memoryAllocator.cpp ****         if(blockToFree->next) {
  99:src/memoryAllocator.cpp ****             blockToFree->next->prev = prev;
 100:src/memoryAllocator.cpp ****         }
 101:src/memoryAllocator.cpp ****         blockToFree = prev;
 102:src/memoryAllocator.cpp ****     }
 103:src/memoryAllocator.cpp **** 
 104:src/memoryAllocator.cpp **** 
 105:src/memoryAllocator.cpp ****     if(cur && (char*)blockToFree + blockToFree->size * MEM_BLOCK_SIZE == (char*)cur) {
 321              		.loc 1 105 5 is_stmt 1
 322 0198 63840708 		beqz	a5,.L29
 323              		.loc 1 105 49 is_stmt 0 discriminator 1
 324 019c 03B60600 		ld	a2,0(a3)
 325              		.loc 1 105 54 discriminator 1
 326 01a0 13176600 		slli	a4,a2,6
 327              	.LVL18:
 328              		.loc 1 105 34 discriminator 1
GAS LISTING /tmp/ccGS7JQp.s 			page 9


 329 01a4 3387E600 		add	a4,a3,a4
 330              		.loc 1 105 12 discriminator 1
 331 01a8 6306F704 		beq	a4,a5,.L34
 106:src/memoryAllocator.cpp ****         blockToFree->size += cur->size;
 107:src/memoryAllocator.cpp ****         blockToFree->next = cur->next;
 108:src/memoryAllocator.cpp ****         if(cur->next) {
 109:src/memoryAllocator.cpp ****             cur->next->prev = blockToFree;
 110:src/memoryAllocator.cpp ****         }
 111:src/memoryAllocator.cpp ****     }
 112:src/memoryAllocator.cpp **** 
 113:src/memoryAllocator.cpp ****     return 0;
 332              		.loc 1 113 12
 333 01ac 13050000 		li	a0,0
 334              	.LVL19:
 335              	.L20:
 114:src/memoryAllocator.cpp **** }
 336              		.loc 1 114 1
 337 01b0 03348100 		ld	s0,8(sp)
 338              		.cfi_remember_state
 339              		.cfi_restore 8
 340              		.cfi_def_cfa 2, 16
 341 01b4 13010101 		addi	sp,sp,16
 342              		.cfi_def_cfa_offset 0
 343 01b8 67800000 		jr	ra
 344              	.LVL20:
 345              	.L23:
 346              		.cfi_restore_state
  88:src/memoryAllocator.cpp ****     }
 347              		.loc 1 88 9 is_stmt 1
  88:src/memoryAllocator.cpp ****     }
 348              		.loc 1 88 19 is_stmt 0
 349 01bc 17060000 		sd	a3,.LANCHOR0,a2
 349      2330D600 
 350 01c4 6FF09FFB 		j	.L24
 351              	.L33:
  96:src/memoryAllocator.cpp ****         prev->next = blockToFree->next;
 352              		.loc 1 96 9 is_stmt 1
  96:src/memoryAllocator.cpp ****         prev->next = blockToFree->next;
 353              		.loc 1 96 36 is_stmt 0
 354 01c8 8336C5FF 		ld	a3,-4(a0)
 355              	.LVL21:
  96:src/memoryAllocator.cpp ****         prev->next = blockToFree->next;
 356              		.loc 1 96 20
 357 01cc B385D500 		add	a1,a1,a3
 358 01d0 2330B700 		sd	a1,0(a4)
  97:src/memoryAllocator.cpp ****         if(blockToFree->next) {
 359              		.loc 1 97 9 is_stmt 1
  97:src/memoryAllocator.cpp ****         if(blockToFree->next) {
 360              		.loc 1 97 35 is_stmt 0
 361 01d4 83364500 		ld	a3,4(a0)
  97:src/memoryAllocator.cpp ****         if(blockToFree->next) {
 362              		.loc 1 97 20
 363 01d8 2334D700 		sd	a3,8(a4)
  98:src/memoryAllocator.cpp ****             blockToFree->next->prev = prev;
 364              		.loc 1 98 9 is_stmt 1
 365 01dc 63880600 		beqz	a3,.L28
  99:src/memoryAllocator.cpp ****         }
GAS LISTING /tmp/ccGS7JQp.s 			page 10


 366              		.loc 1 99 13
  99:src/memoryAllocator.cpp ****         }
 367              		.loc 1 99 37 is_stmt 0
 368 01e0 23B8E600 		sd	a4,16(a3)
 101:src/memoryAllocator.cpp ****     }
 369              		.loc 1 101 21
 370 01e4 93060700 		mv	a3,a4
 371 01e8 6FF01FFB 		j	.L26
 372              	.L28:
 373 01ec 93060700 		mv	a3,a4
 374 01f0 6FF09FFA 		j	.L26
 375              	.LVL22:
 376              	.L34:
 106:src/memoryAllocator.cpp ****         blockToFree->next = cur->next;
 377              		.loc 1 106 9 is_stmt 1
 106:src/memoryAllocator.cpp ****         blockToFree->next = cur->next;
 378              		.loc 1 106 35 is_stmt 0
 379 01f4 03B70700 		ld	a4,0(a5)
 106:src/memoryAllocator.cpp ****         blockToFree->next = cur->next;
 380              		.loc 1 106 27
 381 01f8 3306E600 		add	a2,a2,a4
 382 01fc 23B0C600 		sd	a2,0(a3)
 107:src/memoryAllocator.cpp ****         if(cur->next) {
 383              		.loc 1 107 9 is_stmt 1
 107:src/memoryAllocator.cpp ****         if(cur->next) {
 384              		.loc 1 107 34 is_stmt 0
 385 0200 83B78700 		ld	a5,8(a5)
 386              	.LVL23:
 107:src/memoryAllocator.cpp ****         if(cur->next) {
 387              		.loc 1 107 27
 388 0204 23B4F600 		sd	a5,8(a3)
 108:src/memoryAllocator.cpp ****             cur->next->prev = blockToFree;
 389              		.loc 1 108 9 is_stmt 1
 390 0208 63800702 		beqz	a5,.L31
 109:src/memoryAllocator.cpp ****         }
 391              		.loc 1 109 13
 109:src/memoryAllocator.cpp ****         }
 392              		.loc 1 109 29 is_stmt 0
 393 020c 23B8D700 		sd	a3,16(a5)
 113:src/memoryAllocator.cpp **** }
 394              		.loc 1 113 12
 395 0210 13050000 		li	a0,0
 396              	.LVL24:
 397 0214 6FF0DFF9 		j	.L20
 398              	.LVL25:
 399              	.L27:
  67:src/memoryAllocator.cpp **** 
 400              		.loc 1 67 22
 401 0218 1305B0FE 		li	a0,-21
 402              	.LVL26:
 403 021c 6FF05FF9 		j	.L20
 404              	.LVL27:
 405              	.L29:
 113:src/memoryAllocator.cpp **** }
 406              		.loc 1 113 12
 407 0220 13050000 		li	a0,0
 408              	.LVL28:
GAS LISTING /tmp/ccGS7JQp.s 			page 11


 409 0224 6FF0DFF8 		j	.L20
 410              	.LVL29:
 411              	.L31:
 412 0228 13050000 		li	a0,0
 413              	.LVL30:
 414 022c 6FF05FF8 		j	.L20
 415              		.cfi_endproc
 416              	.LFE3:
 418              		.globl	_ZN15memoryAllocator9fmem_headE
 419              		.bss
 420              		.align	3
 421              		.set	.LANCHOR0,. + 0
 424              	_ZN15memoryAllocator9fmem_headE:
 425 0000 00000000 		.zero	8
 425      00000000 
 426              		.text
 427              	.Letext0:
 428              		.file 2 "src/../h/../lib/hw.h"
 429              		.file 3 "src/../h/memoryAllocator.hpp"
GAS LISTING /tmp/ccGS7JQp.s 			page 12

