GAS LISTING /tmp/cc5GPkNp.s 			page 1


   1              		.file	"scheduler.cpp"
   2              		.option pic
   3              		.option norelax
   4              		.text
   5              	.Ltext0:
   6              		.align	2
   8              	_Z41__static_initialization_and_destruction_0ii:
   9              	.LFB56:
  10              		.file 1 "src/scheduler.cpp"
   1:src/scheduler.cpp **** //
   2:src/scheduler.cpp **** // Created by os on 8/3/24.
   3:src/scheduler.cpp **** //
   4:src/scheduler.cpp **** 
   5:src/scheduler.cpp **** #include "../h/scheduler.hpp"
   6:src/scheduler.cpp **** #include "../h/print.hpp"
   7:src/scheduler.cpp **** #include "../test/printing.hpp"
   8:src/scheduler.cpp **** 
   9:src/scheduler.cpp **** List<TCB> Scheduler::readyCoroutineQueue;
  10:src/scheduler.cpp **** 
  11:src/scheduler.cpp **** int Scheduler::threadcnt =0;
  12:src/scheduler.cpp **** 
  13:src/scheduler.cpp **** TCB *Scheduler::get()
  14:src/scheduler.cpp **** {
  15:src/scheduler.cpp **** 
  16:src/scheduler.cpp ****     threadcnt= threadcnt-1;
  17:src/scheduler.cpp **** 
  18:src/scheduler.cpp ****     return readyCoroutineQueue.removeFirst();
  19:src/scheduler.cpp **** }
  20:src/scheduler.cpp **** 
  21:src/scheduler.cpp **** void Scheduler::put(TCB *tcb)
  22:src/scheduler.cpp **** {
  23:src/scheduler.cpp **** 
  24:src/scheduler.cpp ****     threadcnt= threadcnt+1;
  25:src/scheduler.cpp **** 
  26:src/scheduler.cpp ****     readyCoroutineQueue.addLast(tcb);
  27:src/scheduler.cpp **** }...
  11              		.loc 1 27 1
  12              		.cfi_startproc
  13              	.LVL0:
  14 0000 130101FF 		addi	sp,sp,-16
  15              		.cfi_def_cfa_offset 16
  16 0004 23348100 		sd	s0,8(sp)
  17              		.cfi_offset 8, -8
  18 0008 13040101 		addi	s0,sp,16
  19              		.cfi_def_cfa 8, 0
  20              		.loc 1 27 1 is_stmt 0
  21 000c 93071000 		li	a5,1
  22 0010 6308F500 		beq	a0,a5,.L4
  23              	.L1:
  24 0014 03348100 		ld	s0,8(sp)
  25              		.cfi_remember_state
  26              		.cfi_restore 8
  27              		.cfi_def_cfa 2, 16
  28 0018 13010101 		addi	sp,sp,16
  29              		.cfi_def_cfa_offset 0
  30 001c 67800000 		jr	ra
  31              	.L4:
GAS LISTING /tmp/cc5GPkNp.s 			page 2


  32              		.cfi_restore_state
  33              		.loc 1 27 1 discriminator 1
  34 0020 B7070100 		li	a5,65536
  35 0024 9387F7FF 		addi	a5,a5,-1
  36 0028 E396F5FE 		bne	a1,a5,.L1
  37              	.LVL1:
  38              	.LBB23:
  39              	.LBB24:
  40              	.LBB25:
  41              		.file 2 "src/../h/list.hpp"
   1:src/../h/list.hpp **** //
   2:src/../h/list.hpp **** // Created by os on 8/3/24.
   3:src/../h/list.hpp **** //
   4:src/../h/list.hpp **** 
   5:src/../h/list.hpp **** #ifndef OS1_VEZBE07_RISCV_CONTEXT_SWITCH_1_SYNCHRONOUS_LIST_HPP
   6:src/../h/list.hpp **** #define OS1_VEZBE07_RISCV_CONTEXT_SWITCH_1_SYNCHRONOUS_LIST_HPP
   7:src/../h/list.hpp **** 
   8:src/../h/list.hpp **** #include "memoryAllocator.hpp"
   9:src/../h/list.hpp **** #include "print.hpp"
  10:src/../h/list.hpp **** 
  11:src/../h/list.hpp **** template<typename T>
  12:src/../h/list.hpp **** class List
  13:src/../h/list.hpp **** {
  14:src/../h/list.hpp **** public:
  15:src/../h/list.hpp ****     struct Elem
  16:src/../h/list.hpp ****     {
  17:src/../h/list.hpp ****         T *data;
  18:src/../h/list.hpp ****         Elem *next;
  19:src/../h/list.hpp **** 
  20:src/../h/list.hpp ****         Elem(T *data, Elem *next) : data(data), next(next) {}
  21:src/../h/list.hpp **** 
  22:src/../h/list.hpp ****         void* operator new(size_t size) {
  23:src/../h/list.hpp ****             size_t blocks = (size + sizeof(size_t))/ MEM_BLOCK_SIZE;
  24:src/../h/list.hpp **** 
  25:src/../h/list.hpp ****             if(size + sizeof(size_t) - blocks * MEM_BLOCK_SIZE > 0){
  26:src/../h/list.hpp ****                 blocks++;
  27:src/../h/list.hpp ****             }
  28:src/../h/list.hpp ****             return memoryAllocator::allocate(blocks);
  29:src/../h/list.hpp ****         }
  30:src/../h/list.hpp ****         void* operator new[](size_t size) {
  31:src/../h/list.hpp ****             size_t blocks = (size + sizeof(size_t))/ MEM_BLOCK_SIZE;
  32:src/../h/list.hpp **** 
  33:src/../h/list.hpp ****             if(size + sizeof(size_t) - blocks * MEM_BLOCK_SIZE > 0){
  34:src/../h/list.hpp ****                 blocks++;
  35:src/../h/list.hpp ****             }
  36:src/../h/list.hpp ****             return memoryAllocator::allocate(blocks);
  37:src/../h/list.hpp ****         }
  38:src/../h/list.hpp **** 
  39:src/../h/list.hpp ****         void operator delete(void *ptr) {
  40:src/../h/list.hpp ****             memoryAllocator::deallocate(ptr);
  41:src/../h/list.hpp ****         }
  42:src/../h/list.hpp ****         void operator delete[](void *ptr) {
  43:src/../h/list.hpp ****             memoryAllocator::deallocate(ptr);
  44:src/../h/list.hpp ****         }
  45:src/../h/list.hpp **** 
  46:src/../h/list.hpp ****     };
  47:src/../h/list.hpp **** 
GAS LISTING /tmp/cc5GPkNp.s 			page 3


  48:src/../h/list.hpp ****     Elem *head, *tail;
  49:src/../h/list.hpp **** 
  50:src/../h/list.hpp **** 
  51:src/../h/list.hpp ****     List() : head(0), tail(0) {}
  42              		.loc 2 51 29
  43 002c 97070000 		lla	a5,.LANCHOR0
  43      93870700 
  44 0034 23B00700 		sd	zero,0(a5)
  45 0038 23B40700 		sd	zero,8(a5)
  46              	.LVL2:
  47              	.LBE25:
  48              	.LBE24:
  49              	.LBE23:
  50              		.loc 1 27 1
  51 003c 6FF09FFD 		j	.L1
  52              		.cfi_endproc
  53              	.LFE56:
  55              		.align	2
  56              		.globl	_ZN9Scheduler3getEv
  58              	_ZN9Scheduler3getEv:
  59              	.LFB44:
  14:src/scheduler.cpp **** {
  60              		.loc 1 14 1 is_stmt 1
  61              		.cfi_startproc
  62 0040 130101FE 		addi	sp,sp,-32
  63              		.cfi_def_cfa_offset 32
  64 0044 233C1100 		sd	ra,24(sp)
  65 0048 23388100 		sd	s0,16(sp)
  66 004c 23349100 		sd	s1,8(sp)
  67              		.cfi_offset 1, -8
  68              		.cfi_offset 8, -16
  69              		.cfi_offset 9, -24
  70 0050 13040102 		addi	s0,sp,32
  71              		.cfi_def_cfa 8, 0
  16:src/scheduler.cpp ****     threadcnt= threadcnt-1;
  72              		.loc 1 16 5
  16:src/scheduler.cpp ****     threadcnt= threadcnt-1;
  73              		.loc 1 16 25 is_stmt 0
  74 0054 97070000 		lla	a5,.LANCHOR0
  74      93870700 
  75 005c 03A70701 		lw	a4,16(a5)
  76 0060 1B07F7FF 		addiw	a4,a4,-1
  16:src/scheduler.cpp ****     threadcnt= threadcnt-1;
  77              		.loc 1 16 14
  78 0064 23A8E700 		sw	a4,16(a5)
  18:src/scheduler.cpp ****     return readyCoroutineQueue.removeFirst();
  79              		.loc 1 18 5 is_stmt 1
  80              	.LVL3:
  81              	.LBB26:
  82              	.LBB27:
  52:src/../h/list.hpp **** 
  53:src/../h/list.hpp ****     List(const List<T> &) = delete;
  54:src/../h/list.hpp **** 
  55:src/../h/list.hpp ****     List<T> &operator=(const List<T> &) = delete;
  56:src/../h/list.hpp **** 
  57:src/../h/list.hpp ****     Elem* getHead() {
  58:src/../h/list.hpp **** 
GAS LISTING /tmp/cc5GPkNp.s 			page 4


  59:src/../h/list.hpp ****         return head;
  60:src/../h/list.hpp **** 
  61:src/../h/list.hpp ****     }
  62:src/../h/list.hpp **** 
  63:src/../h/list.hpp ****     void addFirst(T *data)
  64:src/../h/list.hpp ****     {
  65:src/../h/list.hpp ****         Elem *elem = new Elem(data, head);
  66:src/../h/list.hpp ****         head = elem;
  67:src/../h/list.hpp ****         if (!tail) { tail = head; }
  68:src/../h/list.hpp ****     }
  69:src/../h/list.hpp **** 
  70:src/../h/list.hpp ****     void addLast(T *data)
  71:src/../h/list.hpp ****     {
  72:src/../h/list.hpp **** 
  73:src/../h/list.hpp ****         Elem *elem = new Elem(data, 0);
  74:src/../h/list.hpp **** 
  75:src/../h/list.hpp **** 
  76:src/../h/list.hpp ****         if (tail) {
  77:src/../h/list.hpp ****             tail->next = elem;
  78:src/../h/list.hpp **** 
  79:src/../h/list.hpp ****             tail = elem;
  80:src/../h/list.hpp ****         } else {
  81:src/../h/list.hpp ****             head = tail = elem;
  82:src/../h/list.hpp **** 
  83:src/../h/list.hpp ****         }
  84:src/../h/list.hpp ****     }
  85:src/../h/list.hpp **** 
  86:src/../h/list.hpp ****     T *removeFirst()
  87:src/../h/list.hpp ****     {
  88:src/../h/list.hpp ****         if (!head) { return 0; }
  83              		.loc 2 88 14 is_stmt 0
  84 0068 03B50700 		ld	a0,0(a5)
  85              		.loc 2 88 9
  86 006c 63020504 		beqz	a0,.L8
  87              	.LVL4:
  89:src/../h/list.hpp **** 
  90:src/../h/list.hpp ****         Elem *elem = head;
  91:src/../h/list.hpp ****         head = head->next;
  88              		.loc 2 91 22
  89 0070 83378500 		ld	a5,8(a0)
  90              		.loc 2 91 9
  91 0074 17070000 		sd	a5,.LANCHOR0,a4
  91      2330F700 
  92:src/../h/list.hpp ****         if (!head) { tail = 0; }
  92              		.loc 2 92 9
  93 007c 63840702 		beqz	a5,.L10
  94              	.L7:
  93:src/../h/list.hpp **** 
  94:src/../h/list.hpp ****         T *ret = elem->data;
  95              		.loc 2 94 12
  96 0080 83340500 		ld	s1,0(a0)
  97              	.LVL5:
  98              	.LBB28:
  99              	.LBB29:
  40:src/../h/list.hpp ****         }
 100              		.loc 2 40 40
 101 0084 97000000 		call	_ZN15memoryAllocator10deallocateEPv@plt
GAS LISTING /tmp/cc5GPkNp.s 			page 5


 101      E7800000 
 102              	.LVL6:
 103              	.L5:
 104              	.LBE29:
 105              	.LBE28:
 106              	.LBE27:
 107              	.LBE26:
  19:src/scheduler.cpp **** }
 108              		.loc 1 19 1
 109 008c 13850400 		mv	a0,s1
 110 0090 83308101 		ld	ra,24(sp)
 111              		.cfi_remember_state
 112              		.cfi_restore 1
 113 0094 03340101 		ld	s0,16(sp)
 114              		.cfi_restore 8
 115              		.cfi_def_cfa 2, 32
 116 0098 83348100 		ld	s1,8(sp)
 117              		.cfi_restore 9
 118 009c 13010102 		addi	sp,sp,32
 119              		.cfi_def_cfa_offset 0
 120 00a0 67800000 		jr	ra
 121              	.LVL7:
 122              	.L10:
 123              		.cfi_restore_state
 124              	.LBB31:
 125              	.LBB30:
  92:src/../h/list.hpp **** 
 126              		.loc 2 92 22
 127 00a4 97070000 		sd	zero,.LANCHOR0+8,a5
 127      23B00700 
 128 00ac 6FF05FFD 		j	.L7
 129              	.LVL8:
 130              	.L8:
  88:src/../h/list.hpp **** 
 131              		.loc 2 88 29
 132 00b0 93040500 		mv	s1,a0
 133              	.LVL9:
 134              	.LBE30:
 135              	.LBE31:
  18:src/scheduler.cpp ****     return readyCoroutineQueue.removeFirst();
 136              		.loc 1 18 44
 137 00b4 6FF09FFD 		j	.L5
 138              		.cfi_endproc
 139              	.LFE44:
 141              		.align	2
 142              		.globl	_ZN9Scheduler3putEP3TCB
 144              	_ZN9Scheduler3putEP3TCB:
 145              	.LFB45:
  22:src/scheduler.cpp **** {
 146              		.loc 1 22 1 is_stmt 1
 147              		.cfi_startproc
 148              	.LVL10:
 149 00b8 130101FE 		addi	sp,sp,-32
 150              		.cfi_def_cfa_offset 32
 151 00bc 233C1100 		sd	ra,24(sp)
 152 00c0 23388100 		sd	s0,16(sp)
 153 00c4 23349100 		sd	s1,8(sp)
GAS LISTING /tmp/cc5GPkNp.s 			page 6


 154 00c8 23302101 		sd	s2,0(sp)
 155              		.cfi_offset 1, -8
 156              		.cfi_offset 8, -16
 157              		.cfi_offset 9, -24
 158              		.cfi_offset 18, -32
 159 00cc 13040102 		addi	s0,sp,32
 160              		.cfi_def_cfa 8, 0
 161 00d0 13090500 		mv	s2,a0
  24:src/scheduler.cpp ****     threadcnt= threadcnt+1;
 162              		.loc 1 24 5
  24:src/scheduler.cpp ****     threadcnt= threadcnt+1;
 163              		.loc 1 24 25 is_stmt 0
 164 00d4 97040000 		lla	s1,.LANCHOR0
 164      93840400 
 165 00dc 83A70401 		lw	a5,16(s1)
 166 00e0 9B871700 		addiw	a5,a5,1
  24:src/scheduler.cpp ****     threadcnt= threadcnt+1;
 167              		.loc 1 24 14
 168 00e4 23A8F400 		sw	a5,16(s1)
  26:src/scheduler.cpp ****     readyCoroutineQueue.addLast(tcb);
 169              		.loc 1 26 5 is_stmt 1
 170              	.LVL11:
 171              	.LBB32:
 172              	.LBB33:
 173              	.LBB34:
 174              	.LBB35:
  28:src/../h/list.hpp ****         }
 175              		.loc 2 28 45 is_stmt 0
 176 00e8 13051000 		li	a0,1
 177              	.LVL12:
 178 00ec 97000000 		call	_ZN15memoryAllocator8allocateEm@plt
 178      E7800000 
 179              	.LVL13:
 180              	.LBE35:
 181              	.LBE34:
 182              	.LBB36:
 183              	.LBB37:
  20:src/../h/list.hpp **** 
 184              		.loc 2 20 58
 185 00f4 23302501 		sd	s2,0(a0)
 186 00f8 23340500 		sd	zero,8(a0)
 187              	.LVL14:
 188              	.LBE37:
 189              	.LBE36:
  76:src/../h/list.hpp ****             tail->next = elem;
 190              		.loc 2 76 13
 191 00fc 83B78400 		ld	a5,8(s1)
  76:src/../h/list.hpp ****             tail->next = elem;
 192              		.loc 2 76 9
 193 0100 63840702 		beqz	a5,.L12
  77:src/../h/list.hpp **** 
 194              		.loc 2 77 13
 195 0104 23B4A700 		sd	a0,8(a5)
  79:src/../h/list.hpp ****         } else {
 196              		.loc 2 79 13
 197 0108 97070000 		sd	a0,.LANCHOR0+8,a5
 197      23B0A700 
GAS LISTING /tmp/cc5GPkNp.s 			page 7


 198              	.LVL15:
 199              	.L11:
 200              	.LBE33:
 201              	.LBE32:
 202              		.loc 1 27 1
 203 0110 83308101 		ld	ra,24(sp)
 204              		.cfi_remember_state
 205              		.cfi_restore 1
 206 0114 03340101 		ld	s0,16(sp)
 207              		.cfi_restore 8
 208              		.cfi_def_cfa 2, 32
 209 0118 83348100 		ld	s1,8(sp)
 210              		.cfi_restore 9
 211 011c 03390100 		ld	s2,0(sp)
 212              		.cfi_restore 18
 213              	.LVL16:
 214 0120 13010102 		addi	sp,sp,32
 215              		.cfi_def_cfa_offset 0
 216 0124 67800000 		jr	ra
 217              	.LVL17:
 218              	.L12:
 219              		.cfi_restore_state
 220              	.LBB39:
 221              	.LBB38:
  81:src/../h/list.hpp **** 
 222              		.loc 2 81 13
 223 0128 97070000 		lla	a5,.LANCHOR0
 223      93870700 
 224 0130 23B4A700 		sd	a0,8(a5)
 225 0134 23B0A700 		sd	a0,0(a5)
 226              	.LVL18:
 227              	.LBE38:
 228              	.LBE39:
 229              		.loc 1 27 1
 230 0138 6FF09FFD 		j	.L11
 231              		.cfi_endproc
 232              	.LFE45:
 234              		.align	2
 236              	_GLOBAL__sub_I__ZN9Scheduler19readyCoroutineQueueE:
 237              	.LFB57:
 238              		.loc 1 27 1 is_stmt 1
 239              		.cfi_startproc
 240 013c 130101FF 		addi	sp,sp,-16
 241              		.cfi_def_cfa_offset 16
 242 0140 23341100 		sd	ra,8(sp)
 243 0144 23308100 		sd	s0,0(sp)
 244              		.cfi_offset 1, -8
 245              		.cfi_offset 8, -16
 246 0148 13040101 		addi	s0,sp,16
 247              		.cfi_def_cfa 8, 0
 248              		.loc 1 27 1 is_stmt 0
 249 014c B7050100 		li	a1,65536
 250 0150 9385F5FF 		addi	a1,a1,-1
 251 0154 13051000 		li	a0,1
 252 0158 97000000 		call	_Z41__static_initialization_and_destruction_0ii
 252      E7800000 
 253              	.LVL19:
GAS LISTING /tmp/cc5GPkNp.s 			page 8


 254 0160 83308100 		ld	ra,8(sp)
 255              		.cfi_restore 1
 256 0164 03340100 		ld	s0,0(sp)
 257              		.cfi_restore 8
 258              		.cfi_def_cfa 2, 16
 259 0168 13010101 		addi	sp,sp,16
 260              		.cfi_def_cfa_offset 0
 261 016c 67800000 		jr	ra
 262              		.cfi_endproc
 263              	.LFE57:
 265              		.section	.init_array,"aw"
 266              		.align	3
 267 0000 00000000 		.dword	_GLOBAL__sub_I__ZN9Scheduler19readyCoroutineQueueE
 267      00000000 
 268              		.globl	_ZN9Scheduler9threadcntE
 269              		.globl	_ZN9Scheduler19readyCoroutineQueueE
 270              		.bss
 271              		.align	3
 272              		.set	.LANCHOR0,. + 0
 275              	_ZN9Scheduler19readyCoroutineQueueE:
 276 0000 00000000 		.zero	16
 276      00000000 
 276      00000000 
 276      00000000 
 279              	_ZN9Scheduler9threadcntE:
 280 0010 00000000 		.zero	4
 281              		.text
 282              	.Letext0:
 283              		.file 3 "src/../h/../lib/hw.h"
 284              		.file 4 "src/../h/memoryAllocator.hpp"
 285              		.file 5 "src/../h/../h/tcb.hpp"
 286              		.file 6 "src/../h/scheduler.hpp"
GAS LISTING /tmp/cc5GPkNp.s 			page 9

