GAS LISTING /tmp/ccNMilZP.s 			page 1


   1              		.file	"sem.cpp"
   2              		.option pic
   3              		.option norelax
   4              		.text
   5              	.Ltext0:
   6              		.align	2
   7              		.globl	_ZN3sem8sem_openEj
   9              	_ZN3sem8sem_openEj:
  10              	.LFB44:
  11              		.file 1 "src/sem.cpp"
   1:src/sem.cpp   **** //
   2:src/sem.cpp   **** // Created by os on 8/23/24.
   3:src/sem.cpp   **** //
   4:src/sem.cpp   **** #include "../h/sem.hpp"
   5:src/sem.cpp   **** #include "../h/tcb.hpp"
   6:src/sem.cpp   **** #include "../h/scheduler.hpp"
   7:src/sem.cpp   **** #include "../h/list.hpp"
   8:src/sem.cpp   **** 
   9:src/sem.cpp   **** 
  10:src/sem.cpp   **** sem* sem::sem_open(unsigned init) {
  12              		.loc 1 10 35
  13              		.cfi_startproc
  14              	.LVL0:
  15 0000 130101FE 		addi	sp,sp,-32
  16              		.cfi_def_cfa_offset 32
  17 0004 233C1100 		sd	ra,24(sp)
  18 0008 23388100 		sd	s0,16(sp)
  19 000c 23349100 		sd	s1,8(sp)
  20              		.cfi_offset 1, -8
  21              		.cfi_offset 8, -16
  22              		.cfi_offset 9, -24
  23 0010 13040102 		addi	s0,sp,32
  24              		.cfi_def_cfa 8, 0
  25 0014 93040500 		mv	s1,a0
  11:src/sem.cpp   ****     sem* newSem = new sem();
  26              		.loc 1 11 5
  27              	.LVL1:
  28              	.LBB60:
  29              	.LBB61:
  30              		.file 2 "src/../h/sem.hpp"
   1:src/../h/sem.hpp **** //
   2:src/../h/sem.hpp **** // Created by os on 8/21/24.
   3:src/../h/sem.hpp **** //
   4:src/../h/sem.hpp **** 
   5:src/../h/sem.hpp **** #ifndef SEM_HPP
   6:src/../h/sem.hpp **** #define SEM_HPP
   7:src/../h/sem.hpp **** 
   8:src/../h/sem.hpp **** #include "../h/list.hpp"
   9:src/../h/sem.hpp **** #include "../h/tcb.hpp"
  10:src/../h/sem.hpp **** 
  11:src/../h/sem.hpp **** 
  12:src/../h/sem.hpp **** 
  13:src/../h/sem.hpp **** 
  14:src/../h/sem.hpp **** class sem {
  15:src/../h/sem.hpp **** 
  16:src/../h/sem.hpp **** public:
  17:src/../h/sem.hpp **** 
GAS LISTING /tmp/ccNMilZP.s 			page 2


  18:src/../h/sem.hpp ****     static sem* sem_open( unsigned init);
  19:src/../h/sem.hpp **** 
  20:src/../h/sem.hpp ****     int sem_close ();
  21:src/../h/sem.hpp **** 
  22:src/../h/sem.hpp ****     int sem_wait ();
  23:src/../h/sem.hpp **** 
  24:src/../h/sem.hpp ****     int sem_signal ();
  25:src/../h/sem.hpp **** 
  26:src/../h/sem.hpp ****     int sem_trywait();
  27:src/../h/sem.hpp **** 
  28:src/../h/sem.hpp ****     void* operator new(size_t size) {
  29:src/../h/sem.hpp ****         size_t blocks = (size + sizeof(size_t))/ MEM_BLOCK_SIZE;
  31              		.loc 2 29 9
  30:src/../h/sem.hpp **** 
  31:src/../h/sem.hpp ****         if(size + sizeof(size_t) - blocks * MEM_BLOCK_SIZE > 0){
  32              		.loc 2 31 9
  32:src/../h/sem.hpp ****             blocks++;
  33              		.loc 2 32 13
  33:src/../h/sem.hpp ****         }
  34:src/../h/sem.hpp ****         return memoryAllocator::allocate(blocks);
  34              		.loc 2 34 9
  35              		.loc 2 34 41 is_stmt 0
  36 0018 13051000 		li	a0,1
  37              	.LVL2:
  38 001c 97000000 		call	_ZN15memoryAllocator8allocateEm@plt
  38      E7800000 
  39              	.LVL3:
  40              	.LBE61:
  41              	.LBE60:
  42 0024 23020500 		sb	zero,4(a0)
  43              	.LVL4:
  44              	.LBB62:
  45              	.LBB63:
  46              	.LBB64:
  47              		.file 3 "src/../h/../h/list.hpp"
   1:src/../h/../h/list.hpp **** //
   2:src/../h/../h/list.hpp **** // Created by os on 8/3/24.
   3:src/../h/../h/list.hpp **** //
   4:src/../h/../h/list.hpp **** 
   5:src/../h/../h/list.hpp **** #ifndef OS1_VEZBE07_RISCV_CONTEXT_SWITCH_1_SYNCHRONOUS_LIST_HPP
   6:src/../h/../h/list.hpp **** #define OS1_VEZBE07_RISCV_CONTEXT_SWITCH_1_SYNCHRONOUS_LIST_HPP
   7:src/../h/../h/list.hpp **** 
   8:src/../h/../h/list.hpp **** #include "memoryAllocator.hpp"
   9:src/../h/../h/list.hpp **** #include "print.hpp"
  10:src/../h/../h/list.hpp **** 
  11:src/../h/../h/list.hpp **** template<typename T>
  12:src/../h/../h/list.hpp **** class List
  13:src/../h/../h/list.hpp **** {
  14:src/../h/../h/list.hpp **** public:
  15:src/../h/../h/list.hpp ****     struct Elem
  16:src/../h/../h/list.hpp ****     {
  17:src/../h/../h/list.hpp ****         T *data;
  18:src/../h/../h/list.hpp ****         Elem *next;
  19:src/../h/../h/list.hpp **** 
  20:src/../h/../h/list.hpp ****         Elem(T *data, Elem *next) : data(data), next(next) {}
  21:src/../h/../h/list.hpp **** 
  22:src/../h/../h/list.hpp ****         void* operator new(size_t size) {
GAS LISTING /tmp/ccNMilZP.s 			page 3


  23:src/../h/../h/list.hpp ****             size_t blocks = (size + sizeof(size_t))/ MEM_BLOCK_SIZE;
  24:src/../h/../h/list.hpp **** 
  25:src/../h/../h/list.hpp ****             if(size + sizeof(size_t) - blocks * MEM_BLOCK_SIZE > 0){
  26:src/../h/../h/list.hpp ****                 blocks++;
  27:src/../h/../h/list.hpp ****             }
  28:src/../h/../h/list.hpp ****             return memoryAllocator::allocate(blocks);
  29:src/../h/../h/list.hpp ****         }
  30:src/../h/../h/list.hpp ****         void* operator new[](size_t size) {
  31:src/../h/../h/list.hpp ****             size_t blocks = (size + sizeof(size_t))/ MEM_BLOCK_SIZE;
  32:src/../h/../h/list.hpp **** 
  33:src/../h/../h/list.hpp ****             if(size + sizeof(size_t) - blocks * MEM_BLOCK_SIZE > 0){
  34:src/../h/../h/list.hpp ****                 blocks++;
  35:src/../h/../h/list.hpp ****             }
  36:src/../h/../h/list.hpp ****             return memoryAllocator::allocate(blocks);
  37:src/../h/../h/list.hpp ****         }
  38:src/../h/../h/list.hpp **** 
  39:src/../h/../h/list.hpp ****         void operator delete(void *ptr) {
  40:src/../h/../h/list.hpp ****             memoryAllocator::deallocate(ptr);
  41:src/../h/../h/list.hpp ****         }
  42:src/../h/../h/list.hpp ****         void operator delete[](void *ptr) {
  43:src/../h/../h/list.hpp ****             memoryAllocator::deallocate(ptr);
  44:src/../h/../h/list.hpp ****         }
  45:src/../h/../h/list.hpp **** 
  46:src/../h/../h/list.hpp ****     };
  47:src/../h/../h/list.hpp **** 
  48:src/../h/../h/list.hpp ****     Elem *head, *tail;
  49:src/../h/../h/list.hpp **** 
  50:src/../h/../h/list.hpp **** 
  51:src/../h/../h/list.hpp ****     List() : head(0), tail(0) {}
  48              		.loc 3 51 29
  49 0028 23340500 		sd	zero,8(a0)
  50 002c 23380500 		sd	zero,16(a0)
  51              	.LVL5:
  52              	.LBE64:
  53              	.LBE63:
  54              	.LBE62:
  12:src/sem.cpp   **** 
  13:src/sem.cpp   ****     newSem->val = init;
  55              		.loc 1 13 5 is_stmt 1
  56              		.loc 1 13 17 is_stmt 0
  57 0030 23209500 		sw	s1,0(a0)
  14:src/sem.cpp   ****     newSem->setClosed(false);
  58              		.loc 1 14 5 is_stmt 1
  59              	.LVL6:
  35:src/../h/sem.hpp ****     }
  36:src/../h/sem.hpp ****     void* operator new[](size_t size) {
  37:src/../h/sem.hpp ****         size_t blocks = (size + sizeof(size_t))/ MEM_BLOCK_SIZE;
  38:src/../h/sem.hpp **** 
  39:src/../h/sem.hpp ****         if(size + sizeof(size_t) - blocks * MEM_BLOCK_SIZE > 0){
  40:src/../h/sem.hpp ****             blocks++;
  41:src/../h/sem.hpp ****         }
  42:src/../h/sem.hpp ****         return memoryAllocator::allocate(blocks);
  43:src/../h/sem.hpp ****     }
  44:src/../h/sem.hpp **** 
  45:src/../h/sem.hpp ****     void operator delete(void *ptr) {
  46:src/../h/sem.hpp ****         memoryAllocator::deallocate(ptr);
  47:src/../h/sem.hpp ****     }
GAS LISTING /tmp/ccNMilZP.s 			page 4


  48:src/../h/sem.hpp ****     void operator delete[](void *ptr) {
  49:src/../h/sem.hpp ****         memoryAllocator::deallocate(ptr);
  50:src/../h/sem.hpp ****     }
  51:src/../h/sem.hpp **** 
  52:src/../h/sem.hpp ****     void setClosed(bool value) { closed = value; }
  60              		.loc 2 52 34
  15:src/sem.cpp   **** 
  16:src/sem.cpp   ****     return newSem;
  61              		.loc 1 16 5
  17:src/sem.cpp   **** 
  18:src/sem.cpp   **** }
  62              		.loc 1 18 1 is_stmt 0
  63 0034 83308101 		ld	ra,24(sp)
  64              		.cfi_restore 1
  65 0038 03340101 		ld	s0,16(sp)
  66              		.cfi_restore 8
  67              		.cfi_def_cfa 2, 32
  68 003c 83348100 		ld	s1,8(sp)
  69              		.cfi_restore 9
  70 0040 13010102 		addi	sp,sp,32
  71              		.cfi_def_cfa_offset 0
  72 0044 67800000 		jr	ra
  73              		.cfi_endproc
  74              	.LFE44:
  76              		.align	2
  77              		.globl	_ZN3sem9sem_closeEv
  79              	_ZN3sem9sem_closeEv:
  80              	.LFB48:
  19:src/sem.cpp   **** 
  20:src/sem.cpp   **** int sem::sem_close(){
  81              		.loc 1 20 21 is_stmt 1
  82              		.cfi_startproc
  83              	.LVL7:
  21:src/sem.cpp   **** 
  22:src/sem.cpp   ****     if(isClosed()) {
  84              		.loc 1 22 5
  85              	.LBB65:
  86              	.LBB66:
  53:src/../h/sem.hpp **** 
  54:src/../h/sem.hpp ****     bool isClosed() const { return closed; }
  87              		.loc 2 54 29
  88              		.loc 2 54 36 is_stmt 0
  89 0048 83474500 		lbu	a5,4(a0)
  90              	.LVL8:
  91              	.LBE66:
  92              	.LBE65:
  93              		.loc 1 22 5
  94 004c 63960706 		bnez	a5,.L7
  20:src/sem.cpp   **** 
  95              		.loc 1 20 21
  96 0050 130101FE 		addi	sp,sp,-32
  97              		.cfi_def_cfa_offset 32
  98 0054 233C1100 		sd	ra,24(sp)
  99 0058 23388100 		sd	s0,16(sp)
 100 005c 23349100 		sd	s1,8(sp)
 101 0060 23302101 		sd	s2,0(sp)
 102              		.cfi_offset 1, -8
GAS LISTING /tmp/ccNMilZP.s 			page 5


 103              		.cfi_offset 8, -16
 104              		.cfi_offset 9, -24
 105              		.cfi_offset 18, -32
 106 0064 13040102 		addi	s0,sp,32
 107              		.cfi_def_cfa 8, 0
 108 0068 93040500 		mv	s1,a0
  23:src/sem.cpp   ****         return -1;
  24:src/sem.cpp   ****     }
  25:src/sem.cpp   **** 
  26:src/sem.cpp   ****     setClosed( true);
 109              		.loc 1 26 5 is_stmt 1
 110              	.LVL9:
 111              	.LBB67:
 112              	.LBB68:
  52:src/../h/sem.hpp **** 
 113              		.loc 2 52 34
  52:src/../h/sem.hpp **** 
 114              		.loc 2 52 41 is_stmt 0
 115 006c 93071000 		li	a5,1
 116 0070 2302F500 		sb	a5,4(a0)
  52:src/../h/sem.hpp **** 
 117              		.loc 2 52 50
 118 0074 6F004002 		j	.L6
 119              	.LVL10:
 120              	.L14:
 121              	.LBE68:
 122              	.LBE67:
 123              	.LBB69:
 124              	.LBB70:
 125              	.LBB71:
  52:src/../h/../h/list.hpp **** 
  53:src/../h/../h/list.hpp ****     List(const List<T> &) = delete;
  54:src/../h/../h/list.hpp **** 
  55:src/../h/../h/list.hpp ****     List<T> &operator=(const List<T> &) = delete;
  56:src/../h/../h/list.hpp **** 
  57:src/../h/../h/list.hpp ****     Elem* getHead() {
  58:src/../h/../h/list.hpp **** 
  59:src/../h/../h/list.hpp ****         return head;
  60:src/../h/../h/list.hpp **** 
  61:src/../h/../h/list.hpp ****     }
  62:src/../h/../h/list.hpp **** 
  63:src/../h/../h/list.hpp ****     void addFirst(T *data)
  64:src/../h/../h/list.hpp ****     {
  65:src/../h/../h/list.hpp ****         Elem *elem = new Elem(data, head);
  66:src/../h/../h/list.hpp ****         head = elem;
  67:src/../h/../h/list.hpp ****         if (!tail) { tail = head; }
  68:src/../h/../h/list.hpp ****     }
  69:src/../h/../h/list.hpp **** 
  70:src/../h/../h/list.hpp ****     void addLast(T *data)
  71:src/../h/../h/list.hpp ****     {
  72:src/../h/../h/list.hpp **** 
  73:src/../h/../h/list.hpp ****         Elem *elem = new Elem(data, 0);
  74:src/../h/../h/list.hpp **** 
  75:src/../h/../h/list.hpp **** 
  76:src/../h/../h/list.hpp ****         if (tail) {
  77:src/../h/../h/list.hpp ****             tail->next = elem;
  78:src/../h/../h/list.hpp **** 
GAS LISTING /tmp/ccNMilZP.s 			page 6


  79:src/../h/../h/list.hpp ****             tail = elem;
  80:src/../h/../h/list.hpp ****         } else {
  81:src/../h/../h/list.hpp ****             head = tail = elem;
  82:src/../h/../h/list.hpp **** 
  83:src/../h/../h/list.hpp ****         }
  84:src/../h/../h/list.hpp ****     }
  85:src/../h/../h/list.hpp **** 
  86:src/../h/../h/list.hpp ****     T *removeFirst()
  87:src/../h/../h/list.hpp ****     {
  88:src/../h/../h/list.hpp ****         if (!head) { return 0; }
  89:src/../h/../h/list.hpp **** 
  90:src/../h/../h/list.hpp ****         Elem *elem = head;
  91:src/../h/../h/list.hpp ****         head = head->next;
  92:src/../h/../h/list.hpp ****         if (!head) { tail = 0; }
 126              		.loc 3 92 22
 127 0078 23B80400 		sd	zero,16(s1)
 128              	.L5:
  93:src/../h/../h/list.hpp **** 
  94:src/../h/../h/list.hpp ****         T *ret = elem->data;
 129              		.loc 3 94 12
 130 007c 03390500 		ld	s2,0(a0)
 131              	.LVL11:
 132              	.LBB72:
 133              	.LBB73:
  40:src/../h/../h/list.hpp ****         }
 134              		.loc 3 40 40
 135 0080 97000000 		call	_ZN15memoryAllocator10deallocateEPv@plt
 135      E7800000 
 136              	.LVL12:
 137              	.LBE73:
 138              	.LBE72:
 139              	.LBE71:
 140              	.LBE70:
  27:src/sem.cpp   **** 
  28:src/sem.cpp   ****     while(blocked.peekFirst()) {
  29:src/sem.cpp   **** 
  30:src/sem.cpp   ****         TCB* unblocked = blocked.removeFirst();
  31:src/sem.cpp   ****         unblocked->setBlocked(false);
 141              		.loc 1 31 9 is_stmt 1
 142              	.LBB75:
 143              	.LBB76:
 144              		.file 4 "src/../h/../h/tcb.hpp"
   1:src/../h/../h/tcb.hpp **** //
   2:src/../h/../h/tcb.hpp **** // Created by os on 8/3/24.
   3:src/../h/../h/tcb.hpp **** //
   4:src/../h/../h/tcb.hpp **** 
   5:src/../h/../h/tcb.hpp **** #ifndef OS1_VEZBE07_RISCV_CONTEXT_SWITCH_1_SYNCHRONOUS_TCB_HPP
   6:src/../h/../h/tcb.hpp **** #define OS1_VEZBE07_RISCV_CONTEXT_SWITCH_1_SYNCHRONOUS_TCB_HPP
   7:src/../h/../h/tcb.hpp **** 
   8:src/../h/../h/tcb.hpp **** #include "../lib/hw.h"
   9:src/../h/../h/tcb.hpp **** #include "memoryAllocator.hpp"
  10:src/../h/../h/tcb.hpp **** #include "list.hpp"
  11:src/../h/../h/tcb.hpp **** 
  12:src/../h/../h/tcb.hpp **** 
  13:src/../h/../h/tcb.hpp **** class Barrier;
  14:src/../h/../h/tcb.hpp **** 
  15:src/../h/../h/tcb.hpp **** // Thread Control Block
GAS LISTING /tmp/ccNMilZP.s 			page 7


  16:src/../h/../h/tcb.hpp **** class TCB
  17:src/../h/../h/tcb.hpp **** {
  18:src/../h/../h/tcb.hpp **** public:
  19:src/../h/../h/tcb.hpp ****     ~TCB() {}
  20:src/../h/../h/tcb.hpp **** 
  21:src/../h/../h/tcb.hpp ****     Barrier* barrier;
  22:src/../h/../h/tcb.hpp **** 
  23:src/../h/../h/tcb.hpp ****     static void thread_join(TCB* handle);
  24:src/../h/../h/tcb.hpp **** 
  25:src/../h/../h/tcb.hpp ****     static int id;
  26:src/../h/../h/tcb.hpp **** 
  27:src/../h/../h/tcb.hpp ****     static int active;
  28:src/../h/../h/tcb.hpp **** 
  29:src/../h/../h/tcb.hpp ****     static int max;
  30:src/../h/../h/tcb.hpp **** 
  31:src/../h/../h/tcb.hpp ****     static int getThreadId();
  32:src/../h/../h/tcb.hpp **** 
  33:src/../h/../h/tcb.hpp ****     static List<TCB> capacity;
  34:src/../h/../h/tcb.hpp **** 
  35:src/../h/../h/tcb.hpp ****     bool isFinished() const { return finished; }
  36:src/../h/../h/tcb.hpp **** 
  37:src/../h/../h/tcb.hpp ****     bool isBlocked() const { return blocked; }
  38:src/../h/../h/tcb.hpp **** 
  39:src/../h/../h/tcb.hpp ****     bool isSuspended() const { return suspended; }
  40:src/../h/../h/tcb.hpp **** 
  41:src/../h/../h/tcb.hpp ****     bool isBarriered() const { return barriered; }
  42:src/../h/../h/tcb.hpp **** 
  43:src/../h/../h/tcb.hpp ****     void setFinished(bool value) { finished = value; }
  44:src/../h/../h/tcb.hpp **** 
  45:src/../h/../h/tcb.hpp ****     void setBlocked(bool value) { blocked = value; }
 145              		.loc 4 45 35
 146              		.loc 4 45 43 is_stmt 0
 147 0088 A3080902 		sb	zero,49(s2)
 148              	.LVL13:
 149              	.LBE76:
 150              	.LBE75:
  32:src/sem.cpp   ****         Scheduler::put(unblocked);
 151              		.loc 1 32 9 is_stmt 1
 152              		.loc 1 32 23 is_stmt 0
 153 008c 13050900 		mv	a0,s2
 154 0090 97000000 		call	_ZN9Scheduler3putEP3TCB@plt
 154      E7800000 
 155              	.LVL14:
 156              	.L6:
 157              	.LBE69:
  28:src/sem.cpp   **** 
 158              		.loc 1 28 5 is_stmt 1
  28:src/sem.cpp   **** 
 159              		.loc 1 28 29
 160              	.LBB78:
 161              	.LBB79:
  95:src/../h/../h/list.hpp ****         delete elem;
  96:src/../h/../h/list.hpp ****         return ret;
  97:src/../h/../h/list.hpp ****     }
  98:src/../h/../h/list.hpp **** 
  99:src/../h/../h/list.hpp ****     T *peekFirst()
 100:src/../h/../h/list.hpp ****     {
GAS LISTING /tmp/ccNMilZP.s 			page 8


 101:src/../h/../h/list.hpp ****         if (!head) { return 0; }
 162              		.loc 3 101 14 is_stmt 0
 163 0098 03B58400 		ld	a0,8(s1)
 164              		.loc 3 101 9
 165 009c 63020502 		beqz	a0,.L8
 102:src/../h/../h/list.hpp ****         return head->data;
 166              		.loc 3 102 22
 167 00a0 83370500 		ld	a5,0(a0)
 168              	.LVL15:
 169              	.LBE79:
 170              	.LBE78:
  28:src/sem.cpp   **** 
 171              		.loc 1 28 29
 172 00a4 638C0702 		beqz	a5,.L9
 173              	.LBB80:
  30:src/sem.cpp   ****         unblocked->setBlocked(false);
 174              		.loc 1 30 9 is_stmt 1
 175              	.LVL16:
 176              	.LBB77:
 177              	.LBB74:
  91:src/../h/../h/list.hpp ****         if (!head) { tail = 0; }
 178              		.loc 3 91 22 is_stmt 0
 179 00a8 83378500 		ld	a5,8(a0)
  91:src/../h/../h/list.hpp ****         if (!head) { tail = 0; }
 180              		.loc 3 91 9
 181 00ac 23B4F400 		sd	a5,8(s1)
  92:src/../h/../h/list.hpp **** 
 182              		.loc 3 92 9
 183 00b0 E39607FC 		bnez	a5,.L5
 184 00b4 6FF05FFC 		j	.L14
 185              	.LVL17:
 186              	.L7:
 187              		.cfi_def_cfa_register 2
 188              		.cfi_restore 1
 189              		.cfi_restore 8
 190              		.cfi_restore 9
 191              		.cfi_restore 18
 192              	.LBE74:
 193              	.LBE77:
 194              	.LBE80:
  23:src/sem.cpp   ****     }
 195              		.loc 1 23 17
 196 00b8 1305F0FF 		li	a0,-1
 197              	.LVL18:
  33:src/sem.cpp   **** 
  34:src/sem.cpp   ****     }
  35:src/sem.cpp   **** 
  36:src/sem.cpp   ****     return 0;
  37:src/sem.cpp   **** 
  38:src/sem.cpp   **** }
 198              		.loc 1 38 1
 199 00bc 67800000 		ret
 200              	.LVL19:
 201              	.L8:
 202              		.cfi_def_cfa_register 8
 203              		.cfi_offset 1, -8
 204              		.cfi_offset 8, -16
GAS LISTING /tmp/ccNMilZP.s 			page 9


 205              		.cfi_offset 9, -24
 206              		.cfi_offset 18, -32
  36:src/sem.cpp   **** 
 207              		.loc 1 36 12
 208 00c0 13050000 		li	a0,0
 209              	.LVL20:
 210              	.L4:
 211              		.loc 1 38 1
 212 00c4 83308101 		ld	ra,24(sp)
 213              		.cfi_remember_state
 214              		.cfi_restore 1
 215 00c8 03340101 		ld	s0,16(sp)
 216              		.cfi_restore 8
 217              		.cfi_def_cfa 2, 32
 218 00cc 83348100 		ld	s1,8(sp)
 219              		.cfi_restore 9
 220              	.LVL21:
 221 00d0 03390100 		ld	s2,0(sp)
 222              		.cfi_restore 18
 223 00d4 13010102 		addi	sp,sp,32
 224              		.cfi_def_cfa_offset 0
 225 00d8 67800000 		jr	ra
 226              	.LVL22:
 227              	.L9:
 228              		.cfi_restore_state
  36:src/sem.cpp   **** 
 229              		.loc 1 36 12
 230 00dc 13050000 		li	a0,0
 231 00e0 6FF05FFE 		j	.L4
 232              		.cfi_endproc
 233              	.LFE48:
 235              		.align	2
 236              		.globl	_ZN3sem8sem_waitEv
 238              	_ZN3sem8sem_waitEv:
 239              	.LFB49:
  39:src/sem.cpp   **** 
  40:src/sem.cpp   **** int sem::sem_wait() {
 240              		.loc 1 40 21 is_stmt 1
 241              		.cfi_startproc
 242              	.LVL23:
  41:src/sem.cpp   **** 
  42:src/sem.cpp   ****     if(isClosed()) {
 243              		.loc 1 42 5
 244              	.LBB81:
 245              	.LBB82:
 246              		.loc 2 54 29
 247              		.loc 2 54 36 is_stmt 0
 248 00e4 83474500 		lbu	a5,4(a0)
 249              	.LVL24:
 250              	.LBE82:
 251              	.LBE81:
 252              		.loc 1 42 5
 253 00e8 6394070A 		bnez	a5,.L20
  40:src/sem.cpp   **** 
 254              		.loc 1 40 21
 255 00ec 130101FE 		addi	sp,sp,-32
 256              		.cfi_def_cfa_offset 32
GAS LISTING /tmp/ccNMilZP.s 			page 10


 257 00f0 233C1100 		sd	ra,24(sp)
 258 00f4 23388100 		sd	s0,16(sp)
 259 00f8 23349100 		sd	s1,8(sp)
 260 00fc 23302101 		sd	s2,0(sp)
 261              		.cfi_offset 1, -8
 262              		.cfi_offset 8, -16
 263              		.cfi_offset 9, -24
 264              		.cfi_offset 18, -32
 265 0100 13040102 		addi	s0,sp,32
 266              		.cfi_def_cfa 8, 0
 267 0104 93040500 		mv	s1,a0
  43:src/sem.cpp   ****         return -1;
  44:src/sem.cpp   ****     }
  45:src/sem.cpp   **** 
  46:src/sem.cpp   ****     if (--val < 0) {
 268              		.loc 1 46 5 is_stmt 1
 269              		.loc 1 46 11 is_stmt 0
 270 0108 83270500 		lw	a5,0(a0)
 271              		.loc 1 46 9
 272 010c 9B87F7FF 		addiw	a5,a5,-1
 273              		.loc 1 46 15
 274 0110 2320F500 		sw	a5,0(a0)
 275              		.loc 1 46 5
 276 0114 13970702 		slli	a4,a5,32
 277 0118 63440702 		bltz	a4,.L26
 278              	.LVL25:
 279              	.L17:
  47:src/sem.cpp   **** 
  48:src/sem.cpp   ****         TCB::running->setBlocked(true);
  49:src/sem.cpp   ****         blocked.addLast(TCB::running);
  50:src/sem.cpp   ****         TCB::thread_dispatch();
  51:src/sem.cpp   ****     }
  52:src/sem.cpp   **** 
  53:src/sem.cpp   ****     if(isClosed()) {
 280              		.loc 1 53 5 is_stmt 1
 281              	.LBB83:
 282              	.LBB84:
 283              		.loc 2 54 29
 284              		.loc 2 54 36 is_stmt 0
 285 011c 83C74400 		lbu	a5,4(s1)
 286              	.LVL26:
 287              	.LBE84:
 288              	.LBE83:
 289              		.loc 1 53 5
 290 0120 639C0706 		bnez	a5,.L21
  54:src/sem.cpp   ****         return -1;
  55:src/sem.cpp   ****     }
  56:src/sem.cpp   **** 
  57:src/sem.cpp   ****     return 0;
 291              		.loc 1 57 12
 292 0124 13050000 		li	a0,0
 293              	.L16:
  58:src/sem.cpp   **** }
 294              		.loc 1 58 1
 295 0128 83308101 		ld	ra,24(sp)
 296              		.cfi_remember_state
 297              		.cfi_restore 1
GAS LISTING /tmp/ccNMilZP.s 			page 11


 298 012c 03340101 		ld	s0,16(sp)
 299              		.cfi_restore 8
 300              		.cfi_def_cfa 2, 32
 301 0130 83348100 		ld	s1,8(sp)
 302              		.cfi_restore 9
 303              	.LVL27:
 304 0134 03390100 		ld	s2,0(sp)
 305              		.cfi_restore 18
 306 0138 13010102 		addi	sp,sp,32
 307              		.cfi_def_cfa_offset 0
 308 013c 67800000 		jr	ra
 309              	.LVL28:
 310              	.L26:
 311              		.cfi_restore_state
  48:src/sem.cpp   ****         blocked.addLast(TCB::running);
 312              		.loc 1 48 9 is_stmt 1
  48:src/sem.cpp   ****         blocked.addLast(TCB::running);
 313              		.loc 1 48 33 is_stmt 0
 314 0140 97070000 		la	a5,_ZN3TCB7runningE
 314      83B70700 
 315 0148 03B90700 		ld	s2,0(a5)
 316              	.LVL29:
 317              	.LBB85:
 318              	.LBB86:
 319              		.loc 4 45 35 is_stmt 1
 320              		.loc 4 45 43 is_stmt 0
 321 014c 93071000 		li	a5,1
 322 0150 A308F902 		sb	a5,49(s2)
 323              	.LVL30:
 324              	.LBE86:
 325              	.LBE85:
  49:src/sem.cpp   ****         TCB::thread_dispatch();
 326              		.loc 1 49 9 is_stmt 1
 327              	.LBB87:
 328              	.LBB88:
 329              	.LBB89:
 330              	.LBB90:
  28:src/../h/../h/list.hpp ****         }
 331              		.loc 3 28 45 is_stmt 0
 332 0154 13051000 		li	a0,1
 333 0158 97000000 		call	_ZN15memoryAllocator8allocateEm@plt
 333      E7800000 
 334              	.LVL31:
 335              	.LBE90:
 336              	.LBE89:
 337              	.LBB91:
 338              	.LBB92:
  20:src/../h/../h/list.hpp **** 
 339              		.loc 3 20 58
 340 0160 23302501 		sd	s2,0(a0)
 341 0164 23340500 		sd	zero,8(a0)
 342              	.LVL32:
 343              	.LBE92:
 344              	.LBE91:
  76:src/../h/../h/list.hpp ****             tail->next = elem;
 345              		.loc 3 76 13
 346 0168 83B70401 		ld	a5,16(s1)
GAS LISTING /tmp/ccNMilZP.s 			page 12


  76:src/../h/../h/list.hpp ****             tail->next = elem;
 347              		.loc 3 76 9
 348 016c 638C0700 		beqz	a5,.L18
  77:src/../h/../h/list.hpp **** 
 349              		.loc 3 77 13
 350 0170 23B4A700 		sd	a0,8(a5)
  79:src/../h/../h/list.hpp ****         } else {
 351              		.loc 3 79 13
 352 0174 23B8A400 		sd	a0,16(s1)
 353              	.L19:
 354              	.LVL33:
 355              	.LBE88:
 356              	.LBE87:
  50:src/sem.cpp   ****     }
 357              		.loc 1 50 9 is_stmt 1
  50:src/sem.cpp   ****     }
 358              		.loc 1 50 29 is_stmt 0
 359 0178 97000000 		call	_ZN3TCB15thread_dispatchEv@plt
 359      E7800000 
 360              	.LVL34:
 361 0180 6FF0DFF9 		j	.L17
 362              	.LVL35:
 363              	.L18:
 364              	.LBB94:
 365              	.LBB93:
  81:src/../h/../h/list.hpp **** 
 366              		.loc 3 81 13
 367 0184 23B8A400 		sd	a0,16(s1)
 368 0188 23B4A400 		sd	a0,8(s1)
 369 018c 6FF0DFFE 		j	.L19
 370              	.LVL36:
 371              	.L20:
 372              		.cfi_def_cfa_register 2
 373              		.cfi_restore 1
 374              		.cfi_restore 8
 375              		.cfi_restore 9
 376              		.cfi_restore 18
 377              	.LBE93:
 378              	.LBE94:
  43:src/sem.cpp   ****     }
 379              		.loc 1 43 17
 380 0190 1305F0FF 		li	a0,-1
 381              	.LVL37:
 382              		.loc 1 58 1
 383 0194 67800000 		ret
 384              	.LVL38:
 385              	.L21:
 386              		.cfi_def_cfa_register 8
 387              		.cfi_offset 1, -8
 388              		.cfi_offset 8, -16
 389              		.cfi_offset 9, -24
 390              		.cfi_offset 18, -32
  54:src/sem.cpp   ****     }
 391              		.loc 1 54 17
 392 0198 1305F0FF 		li	a0,-1
 393 019c 6FF0DFF8 		j	.L16
 394              		.cfi_endproc
GAS LISTING /tmp/ccNMilZP.s 			page 13


 395              	.LFE49:
 397              		.align	2
 398              		.globl	_ZN3sem10sem_signalEv
 400              	_ZN3sem10sem_signalEv:
 401              	.LFB50:
  59:src/sem.cpp   **** 
  60:src/sem.cpp   **** int sem::sem_signal() {
 402              		.loc 1 60 23 is_stmt 1
 403              		.cfi_startproc
 404              	.LVL39:
  61:src/sem.cpp   **** 
  62:src/sem.cpp   ****     if(isClosed()) {
 405              		.loc 1 62 5
 406              	.LBB95:
 407              	.LBB96:
 408              		.loc 2 54 29
 409              		.loc 2 54 36 is_stmt 0
 410 01a0 03474500 		lbu	a4,4(a0)
 411              	.LVL40:
 412              	.LBE96:
 413              	.LBE95:
 414              		.loc 1 62 5
 415 01a4 63180708 		bnez	a4,.L31
 416 01a8 93070500 		mv	a5,a0
  63:src/sem.cpp   ****         return -1;
  64:src/sem.cpp   ****     }
  65:src/sem.cpp   **** 
  66:src/sem.cpp   ****     if (++val <= 0) {
 417              		.loc 1 66 5 is_stmt 1
 418              	.LBB97:
 419              		.loc 1 66 11 is_stmt 0
 420 01ac 03270500 		lw	a4,0(a0)
 421              		.loc 1 66 9
 422 01b0 1B071700 		addiw	a4,a4,1
 423 01b4 9B060700 		sext.w	a3,a4
 424              		.loc 1 66 15
 425 01b8 2320E500 		sw	a4,0(a0)
 426              		.loc 1 66 5
 427 01bc 6356D000 		blez	a3,.L38
 428              	.LBE97:
  67:src/sem.cpp   **** 
  68:src/sem.cpp   ****         TCB* unblocked = blocked.removeFirst();
  69:src/sem.cpp   ****         unblocked->setBlocked(false);
  70:src/sem.cpp   ****         Scheduler::put(unblocked);
  71:src/sem.cpp   **** 
  72:src/sem.cpp   ****     }
  73:src/sem.cpp   **** 
  74:src/sem.cpp   ****     return 0;
 429              		.loc 1 74 12
 430 01c0 13050000 		li	a0,0
 431              	.LVL41:
  75:src/sem.cpp   **** }
 432              		.loc 1 75 1
 433 01c4 67800000 		ret
 434              	.LVL42:
 435              	.L38:
  60:src/sem.cpp   **** 
GAS LISTING /tmp/ccNMilZP.s 			page 14


 436              		.loc 1 60 23
 437 01c8 130101FE 		addi	sp,sp,-32
 438              		.cfi_def_cfa_offset 32
 439 01cc 233C1100 		sd	ra,24(sp)
 440 01d0 23388100 		sd	s0,16(sp)
 441 01d4 23349100 		sd	s1,8(sp)
 442              		.cfi_offset 1, -8
 443              		.cfi_offset 8, -16
 444              		.cfi_offset 9, -24
 445 01d8 13040102 		addi	s0,sp,32
 446              		.cfi_def_cfa 8, 0
 447              	.LBB108:
 448              	.LBB98:
  68:src/sem.cpp   ****         unblocked->setBlocked(false);
 449              		.loc 1 68 9 is_stmt 1
 450              	.LVL43:
 451              	.LBB99:
 452              	.LBB100:
  88:src/../h/../h/list.hpp **** 
 453              		.loc 3 88 14 is_stmt 0
 454 01dc 03358500 		ld	a0,8(a0)
 455              	.LVL44:
  88:src/../h/../h/list.hpp **** 
 456              		.loc 3 88 9
 457 01e0 63060504 		beqz	a0,.L33
 458              	.LVL45:
  91:src/../h/../h/list.hpp ****         if (!head) { tail = 0; }
 459              		.loc 3 91 22
 460 01e4 03378500 		ld	a4,8(a0)
  91:src/../h/../h/list.hpp ****         if (!head) { tail = 0; }
 461              		.loc 3 91 9
 462 01e8 23B4E700 		sd	a4,8(a5)
  92:src/../h/../h/list.hpp **** 
 463              		.loc 3 92 9
 464 01ec 630C0702 		beqz	a4,.L39
 465              	.L30:
  94:src/../h/../h/list.hpp ****         delete elem;
 466              		.loc 3 94 12
 467 01f0 83340500 		ld	s1,0(a0)
 468              	.LVL46:
 469              	.LBB101:
 470              	.LBB102:
  40:src/../h/../h/list.hpp ****         }
 471              		.loc 3 40 40
 472 01f4 97000000 		call	_ZN15memoryAllocator10deallocateEPv@plt
 472      E7800000 
 473              	.LVL47:
 474              	.L29:
 475              	.LBE102:
 476              	.LBE101:
 477              	.LBE100:
 478              	.LBE99:
  69:src/sem.cpp   ****         Scheduler::put(unblocked);
 479              		.loc 1 69 9 is_stmt 1
 480              	.LBB104:
 481              	.LBB105:
 482              		.loc 4 45 35
GAS LISTING /tmp/ccNMilZP.s 			page 15


 483              		.loc 4 45 43 is_stmt 0
 484 01fc A3880402 		sb	zero,49(s1)
 485              	.LVL48:
 486              	.LBE105:
 487              	.LBE104:
  70:src/sem.cpp   **** 
 488              		.loc 1 70 9 is_stmt 1
  70:src/sem.cpp   **** 
 489              		.loc 1 70 23 is_stmt 0
 490 0200 13850400 		mv	a0,s1
 491 0204 97000000 		call	_ZN9Scheduler3putEP3TCB@plt
 491      E7800000 
 492              	.LVL49:
 493              	.LBE98:
 494              	.LBE108:
  74:src/sem.cpp   **** }
 495              		.loc 1 74 12
 496 020c 13050000 		li	a0,0
 497              		.loc 1 75 1
 498 0210 83308101 		ld	ra,24(sp)
 499              		.cfi_remember_state
 500              		.cfi_restore 1
 501 0214 03340101 		ld	s0,16(sp)
 502              		.cfi_restore 8
 503              		.cfi_def_cfa 2, 32
 504 0218 83348100 		ld	s1,8(sp)
 505              		.cfi_restore 9
 506              	.LVL50:
 507 021c 13010102 		addi	sp,sp,32
 508              		.cfi_def_cfa_offset 0
 509 0220 67800000 		jr	ra
 510              	.LVL51:
 511              	.L39:
 512              		.cfi_restore_state
 513              	.LBB109:
 514              	.LBB107:
 515              	.LBB106:
 516              	.LBB103:
  92:src/../h/../h/list.hpp **** 
 517              		.loc 3 92 22
 518 0224 23B80700 		sd	zero,16(a5)
 519 0228 6FF09FFC 		j	.L30
 520              	.LVL52:
 521              	.L33:
  88:src/../h/../h/list.hpp **** 
 522              		.loc 3 88 29
 523 022c 93040500 		mv	s1,a0
 524 0230 6FF0DFFC 		j	.L29
 525              	.LVL53:
 526              	.L31:
 527              		.cfi_def_cfa_register 2
 528              		.cfi_restore 1
 529              		.cfi_restore 8
 530              		.cfi_restore 9
 531              	.LBE103:
 532              	.LBE106:
 533              	.LBE107:
GAS LISTING /tmp/ccNMilZP.s 			page 16


 534              	.LBE109:
  63:src/sem.cpp   ****     }
 535              		.loc 1 63 17
 536 0234 1305F0FF 		li	a0,-1
 537              	.LVL54:
 538 0238 67800000 		ret
 539              		.cfi_endproc
 540              	.LFE50:
 542              		.align	2
 543              		.globl	_ZN3sem11sem_trywaitEv
 545              	_ZN3sem11sem_trywaitEv:
 546              	.LFB51:
  76:src/sem.cpp   **** 
  77:src/sem.cpp   **** int sem::sem_trywait(){
 547              		.loc 1 77 23 is_stmt 1
 548              		.cfi_startproc
 549              	.LVL55:
 550 023c 130101FF 		addi	sp,sp,-16
 551              		.cfi_def_cfa_offset 16
 552 0240 23348100 		sd	s0,8(sp)
 553              		.cfi_offset 8, -8
 554 0244 13040101 		addi	s0,sp,16
 555              		.cfi_def_cfa 8, 0
  78:src/sem.cpp   **** 
  79:src/sem.cpp   ****     if(isClosed()) {
 556              		.loc 1 79 5
 557              	.LVL56:
 558              	.LBB110:
 559              	.LBB111:
 560              		.loc 2 54 29
 561              		.loc 2 54 36 is_stmt 0
 562 0248 03474500 		lbu	a4,4(a0)
 563              	.LVL57:
 564              	.LBE111:
 565              	.LBE110:
 566              		.loc 1 79 5
 567 024c 63140702 		bnez	a4,.L42
 568 0250 93070500 		mv	a5,a0
  80:src/sem.cpp   ****         return -1;
  81:src/sem.cpp   ****     }
  82:src/sem.cpp   **** 
  83:src/sem.cpp   ****     if(val>0){
 569              		.loc 1 83 5 is_stmt 1
 570              		.loc 1 83 8 is_stmt 0
 571 0254 03270500 		lw	a4,0(a0)
 572              		.loc 1 83 5
 573 0258 6356E002 		blez	a4,.L43
  84:src/sem.cpp   ****         val--;
 574              		.loc 1 84 9 is_stmt 1
 575              		.loc 1 84 12 is_stmt 0
 576 025c 1B07F7FF 		addiw	a4,a4,-1
 577 0260 1B050700 		sext.w	a0,a4
 578              	.LVL58:
 579 0264 23A0E700 		sw	a4,0(a5)
  85:src/sem.cpp   **** 
  86:src/sem.cpp   ****         if(val==0) {
 580              		.loc 1 86 9 is_stmt 1
GAS LISTING /tmp/ccNMilZP.s 			page 17


 581 0268 63080500 		beqz	a0,.L41
  87:src/sem.cpp   ****             return 0;
  88:src/sem.cpp   ****         }
  89:src/sem.cpp   **** 
  90:src/sem.cpp   ****         return 1;
 582              		.loc 1 90 16 is_stmt 0
 583 026c 13051000 		li	a0,1
 584 0270 6F008000 		j	.L41
 585              	.LVL59:
 586              	.L42:
  80:src/sem.cpp   ****     }
 587              		.loc 1 80 17
 588 0274 1305F0FF 		li	a0,-1
 589              	.LVL60:
 590              	.L41:
  91:src/sem.cpp   ****     }
  92:src/sem.cpp   **** 
  93:src/sem.cpp   ****     //semafor je zauzet
  94:src/sem.cpp   **** 
  95:src/sem.cpp   ****     return -1;
  96:src/sem.cpp   **** 
  97:src/sem.cpp   **** 
  98:src/sem.cpp   **** }...
 591              		.loc 1 98 1
 592 0278 03348100 		ld	s0,8(sp)
 593              		.cfi_remember_state
 594              		.cfi_restore 8
 595              		.cfi_def_cfa 2, 16
 596 027c 13010101 		addi	sp,sp,16
 597              		.cfi_def_cfa_offset 0
 598 0280 67800000 		jr	ra
 599              	.LVL61:
 600              	.L43:
 601              		.cfi_restore_state
  95:src/sem.cpp   ****     return -1;
 602              		.loc 1 95 13
 603 0284 1305F0FF 		li	a0,-1
 604              	.LVL62:
 605 0288 6FF01FFF 		j	.L41
 606              		.cfi_endproc
 607              	.LFE51:
 609              	.Letext0:
 610              		.file 5 "src/../h/../h/../lib/hw.h"
 611              		.file 6 "src/../h/../h/memoryAllocator.hpp"
 612              		.file 7 "src/../h/scheduler.hpp"
GAS LISTING /tmp/ccNMilZP.s 			page 18

