GAS LISTING /tmp/ccL31S8z.s 			page 1


   1              		.file	"syscall_cpp.cpp"
   2              		.option pic
   3              		.option norelax
   4              		.text
   5              	.Ltext0:
   6              		.section	.text._ZN6Thread3runEv,"axG",@progbits,_ZN6Thread3runEv,comdat
   7              		.align	2
   8              		.weak	_ZN6Thread3runEv
  10              	_ZN6Thread3runEv:
  11              	.LFB45:
  12              		.file 1 "src/../h/syscall_cpp.hpp"
   1:src/../h/syscall_cpp.hpp **** #ifndef _syscall_cpp
   2:src/../h/syscall_cpp.hpp **** #define _syscall_cpp
   3:src/../h/syscall_cpp.hpp **** 
   4:src/../h/syscall_cpp.hpp **** #include "syscall_c.hpp"
   5:src/../h/syscall_cpp.hpp **** 
   6:src/../h/syscall_cpp.hpp **** void* operator new (size_t);
   7:src/../h/syscall_cpp.hpp **** void operator delete (void*) noexcept;
   8:src/../h/syscall_cpp.hpp **** 
   9:src/../h/syscall_cpp.hpp **** class Thread {
  10:src/../h/syscall_cpp.hpp **** public:
  11:src/../h/syscall_cpp.hpp ****     Thread (void(*body)(void*), void* arg);
  12:src/../h/syscall_cpp.hpp ****     virtual ~Thread();
  13:src/../h/syscall_cpp.hpp **** 
  14:src/../h/syscall_cpp.hpp ****     int start();
  15:src/../h/syscall_cpp.hpp **** 
  16:src/../h/syscall_cpp.hpp ****     void join();
  17:src/../h/syscall_cpp.hpp **** 
  18:src/../h/syscall_cpp.hpp ****     static void dispatch();
  19:src/../h/syscall_cpp.hpp ****     static int sleep(time_t){return 0;};
  20:src/../h/syscall_cpp.hpp **** 
  21:src/../h/syscall_cpp.hpp ****     static int getId();
  22:src/../h/syscall_cpp.hpp ****     static void setMax(int max);
  23:src/../h/syscall_cpp.hpp **** 
  24:src/../h/syscall_cpp.hpp ****     void open();
  25:src/../h/syscall_cpp.hpp ****     void pass();
  26:src/../h/syscall_cpp.hpp ****     void close();
  27:src/../h/syscall_cpp.hpp **** 
  28:src/../h/syscall_cpp.hpp **** protected:
  29:src/../h/syscall_cpp.hpp ****     Thread();
  30:src/../h/syscall_cpp.hpp ****     virtual void run(){};
  13              		.loc 1 30 18
  14              		.cfi_startproc
  15              	.LVL0:
  16 0000 130101FF 		addi	sp,sp,-16
  17              		.cfi_def_cfa_offset 16
  18 0004 23348100 		sd	s0,8(sp)
  19              		.cfi_offset 8, -8
  20 0008 13040101 		addi	s0,sp,16
  21              		.cfi_def_cfa 8, 0
  22              		.loc 1 30 24 is_stmt 0
  23 000c 03348100 		ld	s0,8(sp)
  24              		.cfi_restore 8
  25              		.cfi_def_cfa 2, 16
  26 0010 13010101 		addi	sp,sp,16
  27              		.cfi_def_cfa_offset 0
  28 0014 67800000 		jr	ra
GAS LISTING /tmp/ccL31S8z.s 			page 2


  29              		.cfi_endproc
  30              	.LFE45:
  32              		.text
  33              		.align	2
  34              		.globl	_ZN6Thread10runWrapperEPv
  36              	_ZN6Thread10runWrapperEPv:
  37              	.LFB58:
  38              		.file 2 "src/syscall_cpp.cpp"
   1:src/syscall_cpp.cpp **** //
   2:src/syscall_cpp.cpp **** // Created by os on 8/8/24.
   3:src/syscall_cpp.cpp **** //
   4:src/syscall_cpp.cpp **** 
   5:src/syscall_cpp.cpp **** #include "../h/syscall_cpp.hpp"
   6:src/syscall_cpp.cpp **** 
   7:src/syscall_cpp.cpp **** #include "../h/scheduler.hpp"
   8:src/syscall_cpp.cpp **** #include "../h/syscall_codes.h"
   9:src/syscall_cpp.cpp **** 
  10:src/syscall_cpp.cpp **** 
  11:src/syscall_cpp.cpp **** Thread::Thread (void (*body)(void*), void* arg) {
  12:src/syscall_cpp.cpp **** 	this->arg=arg;
  13:src/syscall_cpp.cpp **** 	this->body=body;
  14:src/syscall_cpp.cpp **** 	thread_create(&this->myHandle, body, arg);
  15:src/syscall_cpp.cpp **** }
  16:src/syscall_cpp.cpp **** 
  17:src/syscall_cpp.cpp **** Thread::~Thread(){
  18:src/syscall_cpp.cpp **** 
  19:src/syscall_cpp.cpp **** 	delete myHandle;
  20:src/syscall_cpp.cpp **** 
  21:src/syscall_cpp.cpp **** }
  22:src/syscall_cpp.cpp **** 
  23:src/syscall_cpp.cpp **** int Thread::start() {
  24:src/syscall_cpp.cpp **** 	thread_start(myHandle);
  25:src/syscall_cpp.cpp **** 	return 0;
  26:src/syscall_cpp.cpp **** }
  27:src/syscall_cpp.cpp **** 
  28:src/syscall_cpp.cpp **** Thread::Thread() {
  29:src/syscall_cpp.cpp **** 	this->body = runWrapper;
  30:src/syscall_cpp.cpp **** 	this->arg = nullptr;
  31:src/syscall_cpp.cpp **** 	thread_create_but_dont_start(&this->myHandle, runWrapper, this);
  32:src/syscall_cpp.cpp **** }
  33:src/syscall_cpp.cpp **** 
  34:src/syscall_cpp.cpp **** void Thread::runWrapper(void *torun) {
  39              		.loc 2 34 38 is_stmt 1
  40              		.cfi_startproc
  41              	.LVL1:
  42 0000 130101FF 		addi	sp,sp,-16
  43              		.cfi_def_cfa_offset 16
  44 0004 23341100 		sd	ra,8(sp)
  45 0008 23308100 		sd	s0,0(sp)
  46              		.cfi_offset 1, -8
  47              		.cfi_offset 8, -16
  48 000c 13040101 		addi	s0,sp,16
  49              		.cfi_def_cfa 8, 0
  35:src/syscall_cpp.cpp **** 	((Thread*)torun)->run();
  50              		.loc 2 35 2
  51              		.loc 2 35 24 is_stmt 0
  52 0010 83370500 		ld	a5,0(a0)
GAS LISTING /tmp/ccL31S8z.s 			page 3


  53 0014 83B70701 		ld	a5,16(a5)
  54              		.loc 2 35 23
  55 0018 E7800700 		jalr	a5
  56              	.LVL2:
  36:src/syscall_cpp.cpp **** }
  57              		.loc 2 36 1
  58 001c 83308100 		ld	ra,8(sp)
  59              		.cfi_restore 1
  60 0020 03340100 		ld	s0,0(sp)
  61              		.cfi_restore 8
  62              		.cfi_def_cfa 2, 16
  63 0024 13010101 		addi	sp,sp,16
  64              		.cfi_def_cfa_offset 0
  65 0028 67800000 		jr	ra
  66              		.cfi_endproc
  67              	.LFE58:
  69              		.align	2
  70              		.globl	_ZN6ThreadD2Ev
  72              	_ZN6ThreadD2Ev:
  73              	.LFB51:
  17:src/syscall_cpp.cpp **** 
  74              		.loc 2 17 1 is_stmt 1
  75              		.cfi_startproc
  76              		.cfi_personality 0x9b,DW.ref.__gxx_personality_v0
  77              		.cfi_lsda 0x1b,.LLSDA51
  78              	.LVL3:
  79              	.LBB11:
  17:src/syscall_cpp.cpp **** 
  80              		.loc 2 17 17 is_stmt 0
  81 002c 97070000 		lla	a5,_ZTV6Thread+16
  81      93870700 
  82 0034 2330F500 		sd	a5,0(a0)
  19:src/syscall_cpp.cpp **** 
  83              		.loc 2 19 2 is_stmt 1
  19:src/syscall_cpp.cpp **** 
  84              		.loc 2 19 9 is_stmt 0
  85 0038 03358500 		ld	a0,8(a0)
  86              	.LVL4:
  19:src/syscall_cpp.cpp **** 
  87              		.loc 2 19 17
  88 003c 63060502 		beqz	a0,.L8
  89              	.LBE11:
  17:src/syscall_cpp.cpp **** 
  90              		.loc 2 17 1
  91 0040 130101FF 		addi	sp,sp,-16
  92              		.cfi_def_cfa_offset 16
  93 0044 23341100 		sd	ra,8(sp)
  94 0048 23308100 		sd	s0,0(sp)
  95              		.cfi_offset 1, -8
  96              		.cfi_offset 8, -16
  97 004c 13040101 		addi	s0,sp,16
  98              		.cfi_def_cfa 8, 0
  99              	.LVL5:
 100              	.LBB14:
 101              	.LBB12:
 102              	.LBB13:
 103              		.file 3 "src/../h/tcb.hpp"
GAS LISTING /tmp/ccL31S8z.s 			page 4


   1:src/../h/tcb.hpp **** //
   2:src/../h/tcb.hpp **** // Created by os on 8/3/24.
   3:src/../h/tcb.hpp **** //
   4:src/../h/tcb.hpp **** 
   5:src/../h/tcb.hpp **** #ifndef OS1_VEZBE07_RISCV_CONTEXT_SWITCH_1_SYNCHRONOUS_TCB_HPP
   6:src/../h/tcb.hpp **** #define OS1_VEZBE07_RISCV_CONTEXT_SWITCH_1_SYNCHRONOUS_TCB_HPP
   7:src/../h/tcb.hpp **** 
   8:src/../h/tcb.hpp **** #include "../lib/hw.h"
   9:src/../h/tcb.hpp **** #include "memoryAllocator.hpp"
  10:src/../h/tcb.hpp **** #include "list.hpp"
  11:src/../h/tcb.hpp **** 
  12:src/../h/tcb.hpp **** 
  13:src/../h/tcb.hpp **** class Barrier;
  14:src/../h/tcb.hpp **** 
  15:src/../h/tcb.hpp **** // Thread Control Block
  16:src/../h/tcb.hpp **** class TCB
  17:src/../h/tcb.hpp **** {
  18:src/../h/tcb.hpp **** public:
  19:src/../h/tcb.hpp ****     ~TCB() {}
  20:src/../h/tcb.hpp **** 
  21:src/../h/tcb.hpp ****     Barrier* barrier;
  22:src/../h/tcb.hpp **** 
  23:src/../h/tcb.hpp ****     static void thread_join(TCB* handle);
  24:src/../h/tcb.hpp **** 
  25:src/../h/tcb.hpp ****     static int id;
  26:src/../h/tcb.hpp **** 
  27:src/../h/tcb.hpp ****     static int active;
  28:src/../h/tcb.hpp **** 
  29:src/../h/tcb.hpp ****     static int max;
  30:src/../h/tcb.hpp **** 
  31:src/../h/tcb.hpp ****     static int getThreadId();
  32:src/../h/tcb.hpp **** 
  33:src/../h/tcb.hpp ****     static List<TCB> capacity;
  34:src/../h/tcb.hpp **** 
  35:src/../h/tcb.hpp ****     bool isFinished() const { return finished; }
  36:src/../h/tcb.hpp **** 
  37:src/../h/tcb.hpp ****     bool isBlocked() const { return blocked; }
  38:src/../h/tcb.hpp **** 
  39:src/../h/tcb.hpp ****     bool isSuspended() const { return suspended; }
  40:src/../h/tcb.hpp **** 
  41:src/../h/tcb.hpp ****     bool isBarriered() const { return barriered; }
  42:src/../h/tcb.hpp **** 
  43:src/../h/tcb.hpp ****     void setFinished(bool value) { finished = value; }
  44:src/../h/tcb.hpp **** 
  45:src/../h/tcb.hpp ****     void setBlocked(bool value) { blocked = value; }
  46:src/../h/tcb.hpp **** 
  47:src/../h/tcb.hpp ****     void setSuspended(bool value) { suspended = value; }
  48:src/../h/tcb.hpp **** 
  49:src/../h/tcb.hpp ****     void setBarriered(bool value) { barriered = value; }
  50:src/../h/tcb.hpp **** 
  51:src/../h/tcb.hpp ****     int getMyID() const { return myID; }
  52:src/../h/tcb.hpp **** 
  53:src/../h/tcb.hpp ****     static int getMax() { return max; }
  54:src/../h/tcb.hpp **** 
  55:src/../h/tcb.hpp ****     static void SetMaximumThreads(int num_of_threads){ max = num_of_threads; };
  56:src/../h/tcb.hpp **** 
  57:src/../h/tcb.hpp ****     static int getActive() { return active; }
GAS LISTING /tmp/ccL31S8z.s 			page 5


  58:src/../h/tcb.hpp **** 
  59:src/../h/tcb.hpp ****     static void setActive(int value) { active = value; }
  60:src/../h/tcb.hpp **** 
  61:src/../h/tcb.hpp ****     using Body = void (*)(void*);
  62:src/../h/tcb.hpp **** 
  63:src/../h/tcb.hpp ****     static TCB* thread_create(Body start_routine, void* arg, void* stack_space);
  64:src/../h/tcb.hpp **** 
  65:src/../h/tcb.hpp ****     static void yield();
  66:src/../h/tcb.hpp **** 
  67:src/../h/tcb.hpp **** 	static int thread_exit();
  68:src/../h/tcb.hpp **** 
  69:src/../h/tcb.hpp ****     static TCB *running;
  70:src/../h/tcb.hpp **** 
  71:src/../h/tcb.hpp ****     static void thread_dispatch();
  72:src/../h/tcb.hpp **** 
  73:src/../h/tcb.hpp ****     void* operator new(size_t size) {
  74:src/../h/tcb.hpp ****         size_t blocks = (size + sizeof(size_t))/ MEM_BLOCK_SIZE;
  75:src/../h/tcb.hpp **** 
  76:src/../h/tcb.hpp ****         if(size + sizeof(size_t) - blocks * MEM_BLOCK_SIZE > 0){
  77:src/../h/tcb.hpp ****             blocks++;
  78:src/../h/tcb.hpp ****         }
  79:src/../h/tcb.hpp ****         return memoryAllocator::allocate(blocks);
  80:src/../h/tcb.hpp ****     }
  81:src/../h/tcb.hpp ****     void* operator new[](size_t size) {
  82:src/../h/tcb.hpp ****         size_t blocks = (size + sizeof(size_t))/ MEM_BLOCK_SIZE;
  83:src/../h/tcb.hpp **** 
  84:src/../h/tcb.hpp ****         if(size + sizeof(size_t) - blocks * MEM_BLOCK_SIZE > 0){
  85:src/../h/tcb.hpp ****             blocks++;
  86:src/../h/tcb.hpp ****         }
  87:src/../h/tcb.hpp ****         return memoryAllocator::allocate(blocks);
  88:src/../h/tcb.hpp ****     }
  89:src/../h/tcb.hpp **** 
  90:src/../h/tcb.hpp ****     void operator delete(void *ptr) {
  91:src/../h/tcb.hpp ****         memoryAllocator::deallocate(ptr);
 104              		.loc 3 91 9 is_stmt 1
 105              		.loc 3 91 36 is_stmt 0
 106 0050 97000000 		call	_ZN15memoryAllocator10deallocateEPv@plt
 106      E7800000 
 107              	.LVL6:
 108              	.LBE13:
 109              	.LBE12:
 110              	.LBE14:
  21:src/syscall_cpp.cpp **** 
 111              		.loc 2 21 1
 112 0058 83308100 		ld	ra,8(sp)
 113              		.cfi_restore 1
 114 005c 03340100 		ld	s0,0(sp)
 115              		.cfi_restore 8
 116              		.cfi_def_cfa 2, 16
 117 0060 13010101 		addi	sp,sp,16
 118              		.cfi_def_cfa_offset 0
 119 0064 67800000 		jr	ra
 120              	.L8:
 121 0068 67800000 		ret
 122              		.cfi_endproc
 123              	.LFE51:
 124              		.globl	__gxx_personality_v0
GAS LISTING /tmp/ccL31S8z.s 			page 6


 125              		.section	.gcc_except_table,"a",@progbits
 126              	.LLSDA51:
 127 0000 FF       		.byte	0xff
 128 0001 FF       		.byte	0xff
 129 0002 03       		.byte	0x3
 130 0003 00       		.byte	0
 131              		.text
 133              		.globl	_ZN6ThreadD1Ev
 134              		.set	_ZN6ThreadD1Ev,_ZN6ThreadD2Ev
 135              		.align	2
 136              		.globl	_ZN9SemaphoreD2Ev
 138              	_ZN9SemaphoreD2Ev:
 139              	.LFB70:
  37:src/syscall_cpp.cpp **** 
  38:src/syscall_cpp.cpp **** void Thread::dispatch() {
  39:src/syscall_cpp.cpp **** 	thread_dispatch();
  40:src/syscall_cpp.cpp **** }
  41:src/syscall_cpp.cpp **** 
  42:src/syscall_cpp.cpp **** int Thread::getId() {
  43:src/syscall_cpp.cpp **** 	return getThreadId();
  44:src/syscall_cpp.cpp **** }
  45:src/syscall_cpp.cpp **** 
  46:src/syscall_cpp.cpp **** void Thread::setMax(int max){
  47:src/syscall_cpp.cpp **** 	setMaxThreads(max);
  48:src/syscall_cpp.cpp **** }
  49:src/syscall_cpp.cpp **** 
  50:src/syscall_cpp.cpp **** void Thread::join() {
  51:src/syscall_cpp.cpp **** 	thread_join(myHandle);
  52:src/syscall_cpp.cpp **** }
  53:src/syscall_cpp.cpp **** 
  54:src/syscall_cpp.cpp **** void Thread::open() {
  55:src/syscall_cpp.cpp **** 	barrier_open(myHandle);
  56:src/syscall_cpp.cpp **** }
  57:src/syscall_cpp.cpp **** 
  58:src/syscall_cpp.cpp **** void Thread::pass() {
  59:src/syscall_cpp.cpp **** 	barrier_pass(myHandle);
  60:src/syscall_cpp.cpp **** }
  61:src/syscall_cpp.cpp **** 
  62:src/syscall_cpp.cpp **** void Thread::close() {
  63:src/syscall_cpp.cpp **** 	barrier_close(myHandle);
  64:src/syscall_cpp.cpp **** }
  65:src/syscall_cpp.cpp **** 
  66:src/syscall_cpp.cpp **** 
  67:src/syscall_cpp.cpp **** Semaphore::Semaphore(unsigned init) {
  68:src/syscall_cpp.cpp **** 	sem_open(&this->myHandle, init);
  69:src/syscall_cpp.cpp **** }
  70:src/syscall_cpp.cpp **** 
  71:src/syscall_cpp.cpp **** Semaphore::~Semaphore() {
 140              		.loc 2 71 1 is_stmt 1
 141              		.cfi_startproc
 142              		.cfi_personality 0x9b,DW.ref.__gxx_personality_v0
 143              		.cfi_lsda 0x1b,.LLSDA70
 144              	.LVL7:
 145              	.LBB15:
 146              		.loc 2 71 23 is_stmt 0
 147 006c 97070000 		lla	a5,_ZTV9Semaphore+16
 147      93870700 
GAS LISTING /tmp/ccL31S8z.s 			page 7


 148 0074 2330F500 		sd	a5,0(a0)
  72:src/syscall_cpp.cpp **** 
  73:src/syscall_cpp.cpp **** 	delete myHandle;
 149              		.loc 2 73 2 is_stmt 1
 150              		.loc 2 73 9 is_stmt 0
 151 0078 03358500 		ld	a0,8(a0)
 152              	.LVL8:
 153              		.loc 2 73 17
 154 007c 63060502 		beqz	a0,.L14
 155              	.LBE15:
  71:src/syscall_cpp.cpp **** 
 156              		.loc 2 71 1 discriminator 1
 157 0080 130101FF 		addi	sp,sp,-16
 158              		.cfi_def_cfa_offset 16
 159 0084 23341100 		sd	ra,8(sp)
 160 0088 23308100 		sd	s0,0(sp)
 161              		.cfi_offset 1, -8
 162              		.cfi_offset 8, -16
 163 008c 13040101 		addi	s0,sp,16
 164              		.cfi_def_cfa 8, 0
 165              	.LVL9:
 166              	.LBB18:
 167              	.LBB16:
 168              	.LBB17:
 169              		.file 4 "src/../h/sem.hpp"
   1:src/../h/sem.hpp **** //
   2:src/../h/sem.hpp **** // Created by os on 8/21/24.
   3:src/../h/sem.hpp **** //
   4:src/../h/sem.hpp **** 
   5:src/../h/sem.hpp **** #ifndef SEM_HPP
   6:src/../h/sem.hpp **** #define SEM_HPP
   7:src/../h/sem.hpp **** 
   8:src/../h/sem.hpp **** #include "../h/list.hpp"
   9:src/../h/sem.hpp **** #include "../h/tcb.hpp"
  10:src/../h/sem.hpp **** 
  11:src/../h/sem.hpp **** 
  12:src/../h/sem.hpp **** 
  13:src/../h/sem.hpp **** 
  14:src/../h/sem.hpp **** class sem {
  15:src/../h/sem.hpp **** 
  16:src/../h/sem.hpp **** public:
  17:src/../h/sem.hpp **** 
  18:src/../h/sem.hpp ****     static sem* sem_open( unsigned init);
  19:src/../h/sem.hpp **** 
  20:src/../h/sem.hpp ****     int sem_close ();
  21:src/../h/sem.hpp **** 
  22:src/../h/sem.hpp ****     int sem_wait ();
  23:src/../h/sem.hpp **** 
  24:src/../h/sem.hpp ****     int sem_signal ();
  25:src/../h/sem.hpp **** 
  26:src/../h/sem.hpp ****     int sem_trywait();
  27:src/../h/sem.hpp **** 
  28:src/../h/sem.hpp ****     void* operator new(size_t size) {
  29:src/../h/sem.hpp ****         size_t blocks = (size + sizeof(size_t))/ MEM_BLOCK_SIZE;
  30:src/../h/sem.hpp **** 
  31:src/../h/sem.hpp ****         if(size + sizeof(size_t) - blocks * MEM_BLOCK_SIZE > 0){
  32:src/../h/sem.hpp ****             blocks++;
GAS LISTING /tmp/ccL31S8z.s 			page 8


  33:src/../h/sem.hpp ****         }
  34:src/../h/sem.hpp ****         return memoryAllocator::allocate(blocks);
  35:src/../h/sem.hpp ****     }
  36:src/../h/sem.hpp ****     void* operator new[](size_t size) {
  37:src/../h/sem.hpp ****         size_t blocks = (size + sizeof(size_t))/ MEM_BLOCK_SIZE;
  38:src/../h/sem.hpp **** 
  39:src/../h/sem.hpp ****         if(size + sizeof(size_t) - blocks * MEM_BLOCK_SIZE > 0){
  40:src/../h/sem.hpp ****             blocks++;
  41:src/../h/sem.hpp ****         }
  42:src/../h/sem.hpp ****         return memoryAllocator::allocate(blocks);
  43:src/../h/sem.hpp ****     }
  44:src/../h/sem.hpp **** 
  45:src/../h/sem.hpp ****     void operator delete(void *ptr) {
  46:src/../h/sem.hpp ****         memoryAllocator::deallocate(ptr);
 170              		.loc 4 46 9 is_stmt 1 discriminator 1
 171              		.loc 4 46 36 is_stmt 0 discriminator 1
 172 0090 97000000 		call	_ZN15memoryAllocator10deallocateEPv@plt
 172      E7800000 
 173              	.LVL10:
 174              	.LBE17:
 175              	.LBE16:
 176              	.LBE18:
  74:src/syscall_cpp.cpp **** 
  75:src/syscall_cpp.cpp **** }
 177              		.loc 2 75 1 discriminator 1
 178 0098 83308100 		ld	ra,8(sp)
 179              		.cfi_restore 1
 180 009c 03340100 		ld	s0,0(sp)
 181              		.cfi_restore 8
 182              		.cfi_def_cfa 2, 16
 183 00a0 13010101 		addi	sp,sp,16
 184              		.cfi_def_cfa_offset 0
 185 00a4 67800000 		jr	ra
 186              	.L14:
 187 00a8 67800000 		ret
 188              		.cfi_endproc
 189              	.LFE70:
 190              		.section	.gcc_except_table
 191              	.LLSDA70:
 192 0004 FF       		.byte	0xff
 193 0005 FF       		.byte	0xff
 194 0006 03       		.byte	0x3
 195 0007 00       		.byte	0
 196              		.text
 198              		.globl	_ZN9SemaphoreD1Ev
 199              		.set	_ZN9SemaphoreD1Ev,_ZN9SemaphoreD2Ev
 200              		.align	2
 201              		.globl	_ZN6ThreadD0Ev
 203              	_ZN6ThreadD0Ev:
 204              	.LFB53:
  17:src/syscall_cpp.cpp **** 
 205              		.loc 2 17 1 is_stmt 1
 206              		.cfi_startproc
 207              	.LVL11:
 208 00ac 130101FE 		addi	sp,sp,-32
 209              		.cfi_def_cfa_offset 32
 210 00b0 233C1100 		sd	ra,24(sp)
GAS LISTING /tmp/ccL31S8z.s 			page 9


 211 00b4 23388100 		sd	s0,16(sp)
 212 00b8 23349100 		sd	s1,8(sp)
 213              		.cfi_offset 1, -8
 214              		.cfi_offset 8, -16
 215              		.cfi_offset 9, -24
 216 00bc 13040102 		addi	s0,sp,32
 217              		.cfi_def_cfa 8, 0
 218 00c0 93040500 		mv	s1,a0
  21:src/syscall_cpp.cpp **** 
 219              		.loc 2 21 1 is_stmt 0
 220 00c4 97000000 		call	_ZN6ThreadD1Ev
 220      E7800000 
 221              	.LVL12:
 222 00cc 13850400 		mv	a0,s1
 223 00d0 97000000 		call	_ZdlPv@plt
 223      E7800000 
 224              	.LVL13:
 225 00d8 83308101 		ld	ra,24(sp)
 226              		.cfi_restore 1
 227 00dc 03340101 		ld	s0,16(sp)
 228              		.cfi_restore 8
 229              		.cfi_def_cfa 2, 32
 230 00e0 83348100 		ld	s1,8(sp)
 231              		.cfi_restore 9
 232              	.LVL14:
 233 00e4 13010102 		addi	sp,sp,32
 234              		.cfi_def_cfa_offset 0
 235 00e8 67800000 		jr	ra
 236              		.cfi_endproc
 237              	.LFE53:
 239              		.align	2
 240              		.globl	_ZN9SemaphoreD0Ev
 242              	_ZN9SemaphoreD0Ev:
 243              	.LFB72:
  71:src/syscall_cpp.cpp **** 
 244              		.loc 2 71 1 is_stmt 1
 245              		.cfi_startproc
 246              	.LVL15:
 247 00ec 130101FE 		addi	sp,sp,-32
 248              		.cfi_def_cfa_offset 32
 249 00f0 233C1100 		sd	ra,24(sp)
 250 00f4 23388100 		sd	s0,16(sp)
 251 00f8 23349100 		sd	s1,8(sp)
 252              		.cfi_offset 1, -8
 253              		.cfi_offset 8, -16
 254              		.cfi_offset 9, -24
 255 00fc 13040102 		addi	s0,sp,32
 256              		.cfi_def_cfa 8, 0
 257 0100 93040500 		mv	s1,a0
 258              		.loc 2 75 1 is_stmt 0
 259 0104 97000000 		call	_ZN9SemaphoreD1Ev
 259      E7800000 
 260              	.LVL16:
 261 010c 13850400 		mv	a0,s1
 262 0110 97000000 		call	_ZdlPv@plt
 262      E7800000 
 263              	.LVL17:
GAS LISTING /tmp/ccL31S8z.s 			page 10


 264 0118 83308101 		ld	ra,24(sp)
 265              		.cfi_restore 1
 266 011c 03340101 		ld	s0,16(sp)
 267              		.cfi_restore 8
 268              		.cfi_def_cfa 2, 32
 269 0120 83348100 		ld	s1,8(sp)
 270              		.cfi_restore 9
 271              	.LVL18:
 272 0124 13010102 		addi	sp,sp,32
 273              		.cfi_def_cfa_offset 0
 274 0128 67800000 		jr	ra
 275              		.cfi_endproc
 276              	.LFE72:
 278              		.align	2
 279              		.globl	_ZN6ThreadC2EPFvPvES0_
 281              	_ZN6ThreadC2EPFvPvES0_:
 282              	.LFB48:
  11:src/syscall_cpp.cpp **** 	this->arg=arg;
 283              		.loc 2 11 1 is_stmt 1
 284              		.cfi_startproc
 285              	.LVL19:
 286 012c 130101FF 		addi	sp,sp,-16
 287              		.cfi_def_cfa_offset 16
 288 0130 23341100 		sd	ra,8(sp)
 289 0134 23308100 		sd	s0,0(sp)
 290              		.cfi_offset 1, -8
 291              		.cfi_offset 8, -16
 292 0138 13040101 		addi	s0,sp,16
 293              		.cfi_def_cfa 8, 0
 294              	.LBB19:
  11:src/syscall_cpp.cpp **** 	this->arg=arg;
 295              		.loc 2 11 47 is_stmt 0
 296 013c 97070000 		lla	a5,_ZTV6Thread+16
 296      93870700 
 297 0144 2330F500 		sd	a5,0(a0)
  12:src/syscall_cpp.cpp **** 	this->body=body;
 298              		.loc 2 12 2 is_stmt 1
  12:src/syscall_cpp.cpp **** 	this->body=body;
 299              		.loc 2 12 11 is_stmt 0
 300 0148 233CC500 		sd	a2,24(a0)
  13:src/syscall_cpp.cpp **** 	thread_create(&this->myHandle, body, arg);
 301              		.loc 2 13 2 is_stmt 1
  13:src/syscall_cpp.cpp **** 	thread_create(&this->myHandle, body, arg);
 302              		.loc 2 13 12 is_stmt 0
 303 014c 2338B500 		sd	a1,16(a0)
  14:src/syscall_cpp.cpp **** }
 304              		.loc 2 14 2 is_stmt 1
  14:src/syscall_cpp.cpp **** }
 305              		.loc 2 14 15 is_stmt 0
 306 0150 13058500 		addi	a0,a0,8
 307              	.LVL20:
 308 0154 97000000 		call	_Z13thread_createPP3TCBPFvPvES2_@plt
 308      E7800000 
 309              	.LVL21:
 310              	.LBE19:
  15:src/syscall_cpp.cpp **** 
 311              		.loc 2 15 1
GAS LISTING /tmp/ccL31S8z.s 			page 11


 312 015c 83308100 		ld	ra,8(sp)
 313              		.cfi_restore 1
 314 0160 03340100 		ld	s0,0(sp)
 315              		.cfi_restore 8
 316              		.cfi_def_cfa 2, 16
 317 0164 13010101 		addi	sp,sp,16
 318              		.cfi_def_cfa_offset 0
 319 0168 67800000 		jr	ra
 320              		.cfi_endproc
 321              	.LFE48:
 323              		.globl	_ZN6ThreadC1EPFvPvES0_
 324              		.set	_ZN6ThreadC1EPFvPvES0_,_ZN6ThreadC2EPFvPvES0_
 325              		.align	2
 326              		.globl	_ZN6Thread5startEv
 328              	_ZN6Thread5startEv:
 329              	.LFB54:
  23:src/syscall_cpp.cpp **** 	thread_start(myHandle);
 330              		.loc 2 23 21 is_stmt 1
 331              		.cfi_startproc
 332              	.LVL22:
 333 016c 130101FF 		addi	sp,sp,-16
 334              		.cfi_def_cfa_offset 16
 335 0170 23341100 		sd	ra,8(sp)
 336 0174 23308100 		sd	s0,0(sp)
 337              		.cfi_offset 1, -8
 338              		.cfi_offset 8, -16
 339 0178 13040101 		addi	s0,sp,16
 340              		.cfi_def_cfa 8, 0
  24:src/syscall_cpp.cpp **** 	return 0;
 341              		.loc 2 24 2
  24:src/syscall_cpp.cpp **** 	return 0;
 342              		.loc 2 24 14 is_stmt 0
 343 017c 03358500 		ld	a0,8(a0)
 344              	.LVL23:
 345 0180 97000000 		call	_Z12thread_startP3TCB@plt
 345      E7800000 
 346              	.LVL24:
  25:src/syscall_cpp.cpp **** }
 347              		.loc 2 25 2 is_stmt 1
  26:src/syscall_cpp.cpp **** 
 348              		.loc 2 26 1 is_stmt 0
 349 0188 13050000 		li	a0,0
 350 018c 83308100 		ld	ra,8(sp)
 351              		.cfi_restore 1
 352 0190 03340100 		ld	s0,0(sp)
 353              		.cfi_restore 8
 354              		.cfi_def_cfa 2, 16
 355 0194 13010101 		addi	sp,sp,16
 356              		.cfi_def_cfa_offset 0
 357 0198 67800000 		jr	ra
 358              		.cfi_endproc
 359              	.LFE54:
 361              		.align	2
 362              		.globl	_ZN6ThreadC2Ev
 364              	_ZN6ThreadC2Ev:
 365              	.LFB56:
  28:src/syscall_cpp.cpp **** 	this->body = runWrapper;
GAS LISTING /tmp/ccL31S8z.s 			page 12


 366              		.loc 2 28 1 is_stmt 1
 367              		.cfi_startproc
 368              	.LVL25:
 369 019c 130101FF 		addi	sp,sp,-16
 370              		.cfi_def_cfa_offset 16
 371 01a0 23341100 		sd	ra,8(sp)
 372 01a4 23308100 		sd	s0,0(sp)
 373              		.cfi_offset 1, -8
 374              		.cfi_offset 8, -16
 375 01a8 13040101 		addi	s0,sp,16
 376              		.cfi_def_cfa 8, 0
 377              	.LBB20:
  28:src/syscall_cpp.cpp **** 	this->body = runWrapper;
 378              		.loc 2 28 16 is_stmt 0
 379 01ac 97070000 		lla	a5,_ZTV6Thread+16
 379      93870700 
 380 01b4 2330F500 		sd	a5,0(a0)
  29:src/syscall_cpp.cpp **** 	this->arg = nullptr;
 381              		.loc 2 29 2 is_stmt 1
  29:src/syscall_cpp.cpp **** 	this->arg = nullptr;
 382              		.loc 2 29 13 is_stmt 0
 383 01b8 97050000 		lla	a1,_ZN6Thread10runWrapperEPv
 383      93850500 
 384 01c0 2338B500 		sd	a1,16(a0)
  30:src/syscall_cpp.cpp **** 	thread_create_but_dont_start(&this->myHandle, runWrapper, this);
 385              		.loc 2 30 2 is_stmt 1
  30:src/syscall_cpp.cpp **** 	thread_create_but_dont_start(&this->myHandle, runWrapper, this);
 386              		.loc 2 30 12 is_stmt 0
 387 01c4 233C0500 		sd	zero,24(a0)
  31:src/syscall_cpp.cpp **** }
 388              		.loc 2 31 2 is_stmt 1
  31:src/syscall_cpp.cpp **** }
 389              		.loc 2 31 30 is_stmt 0
 390 01c8 13060500 		mv	a2,a0
 391 01cc 13058500 		addi	a0,a0,8
 392              	.LVL26:
 393 01d0 97000000 		call	_Z28thread_create_but_dont_startPP3TCBPFvPvES2_@plt
 393      E7800000 
 394              	.LVL27:
 395              	.LBE20:
  32:src/syscall_cpp.cpp **** 
 396              		.loc 2 32 1
 397 01d8 83308100 		ld	ra,8(sp)
 398              		.cfi_restore 1
 399 01dc 03340100 		ld	s0,0(sp)
 400              		.cfi_restore 8
 401              		.cfi_def_cfa 2, 16
 402 01e0 13010101 		addi	sp,sp,16
 403              		.cfi_def_cfa_offset 0
 404 01e4 67800000 		jr	ra
 405              		.cfi_endproc
 406              	.LFE56:
 408              		.globl	_ZN6ThreadC1Ev
 409              		.set	_ZN6ThreadC1Ev,_ZN6ThreadC2Ev
 410              		.align	2
 411              		.globl	_ZN6Thread8dispatchEv
 413              	_ZN6Thread8dispatchEv:
GAS LISTING /tmp/ccL31S8z.s 			page 13


 414              	.LFB59:
  38:src/syscall_cpp.cpp **** 	thread_dispatch();
 415              		.loc 2 38 25 is_stmt 1
 416              		.cfi_startproc
 417 01e8 130101FF 		addi	sp,sp,-16
 418              		.cfi_def_cfa_offset 16
 419 01ec 23341100 		sd	ra,8(sp)
 420 01f0 23308100 		sd	s0,0(sp)
 421              		.cfi_offset 1, -8
 422              		.cfi_offset 8, -16
 423 01f4 13040101 		addi	s0,sp,16
 424              		.cfi_def_cfa 8, 0
  39:src/syscall_cpp.cpp **** }
 425              		.loc 2 39 2
  39:src/syscall_cpp.cpp **** }
 426              		.loc 2 39 17 is_stmt 0
 427 01f8 97000000 		call	_Z15thread_dispatchv@plt
 427      E7800000 
 428              	.LVL28:
  40:src/syscall_cpp.cpp **** 
 429              		.loc 2 40 1
 430 0200 83308100 		ld	ra,8(sp)
 431              		.cfi_restore 1
 432 0204 03340100 		ld	s0,0(sp)
 433              		.cfi_restore 8
 434              		.cfi_def_cfa 2, 16
 435 0208 13010101 		addi	sp,sp,16
 436              		.cfi_def_cfa_offset 0
 437 020c 67800000 		jr	ra
 438              		.cfi_endproc
 439              	.LFE59:
 441              		.align	2
 442              		.globl	_ZN6Thread5getIdEv
 444              	_ZN6Thread5getIdEv:
 445              	.LFB60:
  42:src/syscall_cpp.cpp **** 	return getThreadId();
 446              		.loc 2 42 21 is_stmt 1
 447              		.cfi_startproc
 448 0210 130101FF 		addi	sp,sp,-16
 449              		.cfi_def_cfa_offset 16
 450 0214 23341100 		sd	ra,8(sp)
 451 0218 23308100 		sd	s0,0(sp)
 452              		.cfi_offset 1, -8
 453              		.cfi_offset 8, -16
 454 021c 13040101 		addi	s0,sp,16
 455              		.cfi_def_cfa 8, 0
  43:src/syscall_cpp.cpp **** }
 456              		.loc 2 43 2
  43:src/syscall_cpp.cpp **** }
 457              		.loc 2 43 20 is_stmt 0
 458 0220 97000000 		call	_Z11getThreadIdv@plt
 458      E7800000 
 459              	.LVL29:
  44:src/syscall_cpp.cpp **** 
 460              		.loc 2 44 1
 461 0228 83308100 		ld	ra,8(sp)
 462              		.cfi_restore 1
GAS LISTING /tmp/ccL31S8z.s 			page 14


 463 022c 03340100 		ld	s0,0(sp)
 464              		.cfi_restore 8
 465              		.cfi_def_cfa 2, 16
 466 0230 13010101 		addi	sp,sp,16
 467              		.cfi_def_cfa_offset 0
 468 0234 67800000 		jr	ra
 469              		.cfi_endproc
 470              	.LFE60:
 472              		.align	2
 473              		.globl	_ZN6Thread6setMaxEi
 475              	_ZN6Thread6setMaxEi:
 476              	.LFB61:
  46:src/syscall_cpp.cpp **** 	setMaxThreads(max);
 477              		.loc 2 46 29 is_stmt 1
 478              		.cfi_startproc
 479              	.LVL30:
 480 0238 130101FF 		addi	sp,sp,-16
 481              		.cfi_def_cfa_offset 16
 482 023c 23341100 		sd	ra,8(sp)
 483 0240 23308100 		sd	s0,0(sp)
 484              		.cfi_offset 1, -8
 485              		.cfi_offset 8, -16
 486 0244 13040101 		addi	s0,sp,16
 487              		.cfi_def_cfa 8, 0
  47:src/syscall_cpp.cpp **** }
 488              		.loc 2 47 2
  47:src/syscall_cpp.cpp **** }
 489              		.loc 2 47 15 is_stmt 0
 490 0248 97000000 		call	_Z13setMaxThreadsi@plt
 490      E7800000 
 491              	.LVL31:
  48:src/syscall_cpp.cpp **** 
 492              		.loc 2 48 1
 493 0250 83308100 		ld	ra,8(sp)
 494              		.cfi_restore 1
 495 0254 03340100 		ld	s0,0(sp)
 496              		.cfi_restore 8
 497              		.cfi_def_cfa 2, 16
 498 0258 13010101 		addi	sp,sp,16
 499              		.cfi_def_cfa_offset 0
 500 025c 67800000 		jr	ra
 501              		.cfi_endproc
 502              	.LFE61:
 504              		.align	2
 505              		.globl	_ZN6Thread4joinEv
 507              	_ZN6Thread4joinEv:
 508              	.LFB62:
  50:src/syscall_cpp.cpp **** 	thread_join(myHandle);
 509              		.loc 2 50 21 is_stmt 1
 510              		.cfi_startproc
 511              	.LVL32:
 512 0260 130101FF 		addi	sp,sp,-16
 513              		.cfi_def_cfa_offset 16
 514 0264 23341100 		sd	ra,8(sp)
 515 0268 23308100 		sd	s0,0(sp)
 516              		.cfi_offset 1, -8
 517              		.cfi_offset 8, -16
GAS LISTING /tmp/ccL31S8z.s 			page 15


 518 026c 13040101 		addi	s0,sp,16
 519              		.cfi_def_cfa 8, 0
  51:src/syscall_cpp.cpp **** }
 520              		.loc 2 51 2
  51:src/syscall_cpp.cpp **** }
 521              		.loc 2 51 13 is_stmt 0
 522 0270 03358500 		ld	a0,8(a0)
 523              	.LVL33:
 524 0274 97000000 		call	_Z11thread_joinP3TCB@plt
 524      E7800000 
 525              	.LVL34:
  52:src/syscall_cpp.cpp **** 
 526              		.loc 2 52 1
 527 027c 83308100 		ld	ra,8(sp)
 528              		.cfi_restore 1
 529 0280 03340100 		ld	s0,0(sp)
 530              		.cfi_restore 8
 531              		.cfi_def_cfa 2, 16
 532 0284 13010101 		addi	sp,sp,16
 533              		.cfi_def_cfa_offset 0
 534 0288 67800000 		jr	ra
 535              		.cfi_endproc
 536              	.LFE62:
 538              		.align	2
 539              		.globl	_ZN6Thread4openEv
 541              	_ZN6Thread4openEv:
 542              	.LFB63:
  54:src/syscall_cpp.cpp **** 	barrier_open(myHandle);
 543              		.loc 2 54 21 is_stmt 1
 544              		.cfi_startproc
 545              	.LVL35:
 546 028c 130101FF 		addi	sp,sp,-16
 547              		.cfi_def_cfa_offset 16
 548 0290 23341100 		sd	ra,8(sp)
 549 0294 23308100 		sd	s0,0(sp)
 550              		.cfi_offset 1, -8
 551              		.cfi_offset 8, -16
 552 0298 13040101 		addi	s0,sp,16
 553              		.cfi_def_cfa 8, 0
  55:src/syscall_cpp.cpp **** }
 554              		.loc 2 55 2
  55:src/syscall_cpp.cpp **** }
 555              		.loc 2 55 14 is_stmt 0
 556 029c 03358500 		ld	a0,8(a0)
 557              	.LVL36:
 558 02a0 97000000 		call	_Z12barrier_openP3TCB@plt
 558      E7800000 
 559              	.LVL37:
  56:src/syscall_cpp.cpp **** 
 560              		.loc 2 56 1
 561 02a8 83308100 		ld	ra,8(sp)
 562              		.cfi_restore 1
 563 02ac 03340100 		ld	s0,0(sp)
 564              		.cfi_restore 8
 565              		.cfi_def_cfa 2, 16
 566 02b0 13010101 		addi	sp,sp,16
 567              		.cfi_def_cfa_offset 0
GAS LISTING /tmp/ccL31S8z.s 			page 16


 568 02b4 67800000 		jr	ra
 569              		.cfi_endproc
 570              	.LFE63:
 572              		.align	2
 573              		.globl	_ZN6Thread4passEv
 575              	_ZN6Thread4passEv:
 576              	.LFB64:
  58:src/syscall_cpp.cpp **** 	barrier_pass(myHandle);
 577              		.loc 2 58 21 is_stmt 1
 578              		.cfi_startproc
 579              	.LVL38:
 580 02b8 130101FF 		addi	sp,sp,-16
 581              		.cfi_def_cfa_offset 16
 582 02bc 23341100 		sd	ra,8(sp)
 583 02c0 23308100 		sd	s0,0(sp)
 584              		.cfi_offset 1, -8
 585              		.cfi_offset 8, -16
 586 02c4 13040101 		addi	s0,sp,16
 587              		.cfi_def_cfa 8, 0
  59:src/syscall_cpp.cpp **** }
 588              		.loc 2 59 2
  59:src/syscall_cpp.cpp **** }
 589              		.loc 2 59 14 is_stmt 0
 590 02c8 03358500 		ld	a0,8(a0)
 591              	.LVL39:
 592 02cc 97000000 		call	_Z12barrier_passP3TCB@plt
 592      E7800000 
 593              	.LVL40:
  60:src/syscall_cpp.cpp **** 
 594              		.loc 2 60 1
 595 02d4 83308100 		ld	ra,8(sp)
 596              		.cfi_restore 1
 597 02d8 03340100 		ld	s0,0(sp)
 598              		.cfi_restore 8
 599              		.cfi_def_cfa 2, 16
 600 02dc 13010101 		addi	sp,sp,16
 601              		.cfi_def_cfa_offset 0
 602 02e0 67800000 		jr	ra
 603              		.cfi_endproc
 604              	.LFE64:
 606              		.align	2
 607              		.globl	_ZN6Thread5closeEv
 609              	_ZN6Thread5closeEv:
 610              	.LFB65:
  62:src/syscall_cpp.cpp **** 	barrier_close(myHandle);
 611              		.loc 2 62 22 is_stmt 1
 612              		.cfi_startproc
 613              	.LVL41:
 614 02e4 130101FF 		addi	sp,sp,-16
 615              		.cfi_def_cfa_offset 16
 616 02e8 23341100 		sd	ra,8(sp)
 617 02ec 23308100 		sd	s0,0(sp)
 618              		.cfi_offset 1, -8
 619              		.cfi_offset 8, -16
 620 02f0 13040101 		addi	s0,sp,16
 621              		.cfi_def_cfa 8, 0
  63:src/syscall_cpp.cpp **** }
GAS LISTING /tmp/ccL31S8z.s 			page 17


 622              		.loc 2 63 2
  63:src/syscall_cpp.cpp **** }
 623              		.loc 2 63 15 is_stmt 0
 624 02f4 03358500 		ld	a0,8(a0)
 625              	.LVL42:
 626 02f8 97000000 		call	_Z13barrier_closeP3TCB@plt
 626      E7800000 
 627              	.LVL43:
  64:src/syscall_cpp.cpp **** 
 628              		.loc 2 64 1
 629 0300 83308100 		ld	ra,8(sp)
 630              		.cfi_restore 1
 631 0304 03340100 		ld	s0,0(sp)
 632              		.cfi_restore 8
 633              		.cfi_def_cfa 2, 16
 634 0308 13010101 		addi	sp,sp,16
 635              		.cfi_def_cfa_offset 0
 636 030c 67800000 		jr	ra
 637              		.cfi_endproc
 638              	.LFE65:
 640              		.align	2
 641              		.globl	_ZN9SemaphoreC2Ej
 643              	_ZN9SemaphoreC2Ej:
 644              	.LFB67:
  67:src/syscall_cpp.cpp **** 	sem_open(&this->myHandle, init);
 645              		.loc 2 67 1 is_stmt 1
 646              		.cfi_startproc
 647              	.LVL44:
 648 0310 130101FF 		addi	sp,sp,-16
 649              		.cfi_def_cfa_offset 16
 650 0314 23341100 		sd	ra,8(sp)
 651 0318 23308100 		sd	s0,0(sp)
 652              		.cfi_offset 1, -8
 653              		.cfi_offset 8, -16
 654 031c 13040101 		addi	s0,sp,16
 655              		.cfi_def_cfa 8, 0
 656              	.LBB21:
  67:src/syscall_cpp.cpp **** 	sem_open(&this->myHandle, init);
 657              		.loc 2 67 35 is_stmt 0
 658 0320 97070000 		lla	a5,_ZTV9Semaphore+16
 658      93870700 
 659 0328 2330F500 		sd	a5,0(a0)
  68:src/syscall_cpp.cpp **** }
 660              		.loc 2 68 2 is_stmt 1
  68:src/syscall_cpp.cpp **** }
 661              		.loc 2 68 10 is_stmt 0
 662 032c 13058500 		addi	a0,a0,8
 663              	.LVL45:
 664 0330 97000000 		call	_Z8sem_openPP3semj@plt
 664      E7800000 
 665              	.LVL46:
 666              	.LBE21:
  69:src/syscall_cpp.cpp **** 
 667              		.loc 2 69 1
 668 0338 83308100 		ld	ra,8(sp)
 669              		.cfi_restore 1
 670 033c 03340100 		ld	s0,0(sp)
GAS LISTING /tmp/ccL31S8z.s 			page 18


 671              		.cfi_restore 8
 672              		.cfi_def_cfa 2, 16
 673 0340 13010101 		addi	sp,sp,16
 674              		.cfi_def_cfa_offset 0
 675 0344 67800000 		jr	ra
 676              		.cfi_endproc
 677              	.LFE67:
 679              		.globl	_ZN9SemaphoreC1Ej
 680              		.set	_ZN9SemaphoreC1Ej,_ZN9SemaphoreC2Ej
 681              		.align	2
 682              		.globl	_ZN9Semaphore4waitEv
 684              	_ZN9Semaphore4waitEv:
 685              	.LFB73:
  76:src/syscall_cpp.cpp **** 
  77:src/syscall_cpp.cpp **** 
  78:src/syscall_cpp.cpp **** int Semaphore::wait() {
 686              		.loc 2 78 23 is_stmt 1
 687              		.cfi_startproc
 688              	.LVL47:
 689 0348 130101FF 		addi	sp,sp,-16
 690              		.cfi_def_cfa_offset 16
 691 034c 23341100 		sd	ra,8(sp)
 692 0350 23308100 		sd	s0,0(sp)
 693              		.cfi_offset 1, -8
 694              		.cfi_offset 8, -16
 695 0354 13040101 		addi	s0,sp,16
 696              		.cfi_def_cfa 8, 0
  79:src/syscall_cpp.cpp **** 	return sem_wait(myHandle);
 697              		.loc 2 79 2
 698              		.loc 2 79 17 is_stmt 0
 699 0358 03358500 		ld	a0,8(a0)
 700              	.LVL48:
 701 035c 97000000 		call	_Z8sem_waitP3sem@plt
 701      E7800000 
 702              	.LVL49:
  80:src/syscall_cpp.cpp **** }
 703              		.loc 2 80 1
 704 0364 83308100 		ld	ra,8(sp)
 705              		.cfi_restore 1
 706 0368 03340100 		ld	s0,0(sp)
 707              		.cfi_restore 8
 708              		.cfi_def_cfa 2, 16
 709 036c 13010101 		addi	sp,sp,16
 710              		.cfi_def_cfa_offset 0
 711 0370 67800000 		jr	ra
 712              		.cfi_endproc
 713              	.LFE73:
 715              		.align	2
 716              		.globl	_ZN9Semaphore6signalEv
 718              	_ZN9Semaphore6signalEv:
 719              	.LFB74:
  81:src/syscall_cpp.cpp **** int Semaphore::signal() {
 720              		.loc 2 81 25 is_stmt 1
 721              		.cfi_startproc
 722              	.LVL50:
 723 0374 130101FF 		addi	sp,sp,-16
 724              		.cfi_def_cfa_offset 16
GAS LISTING /tmp/ccL31S8z.s 			page 19


 725 0378 23341100 		sd	ra,8(sp)
 726 037c 23308100 		sd	s0,0(sp)
 727              		.cfi_offset 1, -8
 728              		.cfi_offset 8, -16
 729 0380 13040101 		addi	s0,sp,16
 730              		.cfi_def_cfa 8, 0
  82:src/syscall_cpp.cpp **** 	return sem_signal(myHandle);
 731              		.loc 2 82 2
 732              		.loc 2 82 19 is_stmt 0
 733 0384 03358500 		ld	a0,8(a0)
 734              	.LVL51:
 735 0388 97000000 		call	_Z10sem_signalP3sem@plt
 735      E7800000 
 736              	.LVL52:
  83:src/syscall_cpp.cpp **** }
 737              		.loc 2 83 1
 738 0390 83308100 		ld	ra,8(sp)
 739              		.cfi_restore 1
 740 0394 03340100 		ld	s0,0(sp)
 741              		.cfi_restore 8
 742              		.cfi_def_cfa 2, 16
 743 0398 13010101 		addi	sp,sp,16
 744              		.cfi_def_cfa_offset 0
 745 039c 67800000 		jr	ra
 746              		.cfi_endproc
 747              	.LFE74:
 749              		.align	2
 750              		.globl	_ZN9Semaphore7tryWaitEv
 752              	_ZN9Semaphore7tryWaitEv:
 753              	.LFB75:
  84:src/syscall_cpp.cpp **** int Semaphore::tryWait() {
 754              		.loc 2 84 26 is_stmt 1
 755              		.cfi_startproc
 756              	.LVL53:
 757 03a0 130101FF 		addi	sp,sp,-16
 758              		.cfi_def_cfa_offset 16
 759 03a4 23341100 		sd	ra,8(sp)
 760 03a8 23308100 		sd	s0,0(sp)
 761              		.cfi_offset 1, -8
 762              		.cfi_offset 8, -16
 763 03ac 13040101 		addi	s0,sp,16
 764              		.cfi_def_cfa 8, 0
  85:src/syscall_cpp.cpp **** 	return sem_trywait(myHandle);
 765              		.loc 2 85 2
 766              		.loc 2 85 20 is_stmt 0
 767 03b0 03358500 		ld	a0,8(a0)
 768              	.LVL54:
 769 03b4 97000000 		call	_Z11sem_trywaitP3sem@plt
 769      E7800000 
 770              	.LVL55:
  86:src/syscall_cpp.cpp **** }
 771              		.loc 2 86 1
 772 03bc 83308100 		ld	ra,8(sp)
 773              		.cfi_restore 1
 774 03c0 03340100 		ld	s0,0(sp)
 775              		.cfi_restore 8
 776              		.cfi_def_cfa 2, 16
GAS LISTING /tmp/ccL31S8z.s 			page 20


 777 03c4 13010101 		addi	sp,sp,16
 778              		.cfi_def_cfa_offset 0
 779 03c8 67800000 		jr	ra
 780              		.cfi_endproc
 781              	.LFE75:
 783              		.align	2
 784              		.globl	_ZN7Console4getcEv
 786              	_ZN7Console4getcEv:
 787              	.LFB76:
  87:src/syscall_cpp.cpp **** 
  88:src/syscall_cpp.cpp **** char Console::getc () {
 788              		.loc 2 88 23 is_stmt 1
 789              		.cfi_startproc
 790 03cc 130101FF 		addi	sp,sp,-16
 791              		.cfi_def_cfa_offset 16
 792 03d0 23348100 		sd	s0,8(sp)
 793              		.cfi_offset 8, -8
 794 03d4 13040101 		addi	s0,sp,16
 795              		.cfi_def_cfa 8, 0
  89:src/syscall_cpp.cpp **** 	__asm__ volatile("mv a0, %0" : : "r" (SyscallCodes::GET_C));
 796              		.loc 2 89 2
 797              		.loc 2 89 61 is_stmt 0
 798 03d8 93071004 		li	a5,65
 799              	#APP
 800              	# 89 "src/syscall_cpp.cpp" 1
  90              	
  91:src/syscall_cpp.cpp **** 	__asm__ volatile("ecall");
 801              		mv a0, a5
 802              	# 0 "" 2
 803              		.loc 2 91 2 is_stmt 1
 804              		.loc 2 91 27 is_stmt 0
 805              	# 91 "src/syscall_cpp.cpp" 1
  92              	
  93:src/syscall_cpp.cpp **** 	char res;
 806              		ecall
 807              	# 0 "" 2
 808              		.loc 2 93 2 is_stmt 1
  94:src/syscall_cpp.cpp **** 	__asm__ volatile ("mv %0, a0" : "=r" (res));
 809              		.loc 2 94 2
 810              		.loc 2 94 45 is_stmt 0
 811              	# 94 "src/syscall_cpp.cpp" 1
  95              		return res;
 812              		mv a0, a0
 813              	# 0 "" 2
 814              	.LVL56:
 815              		.loc 2 95 2 is_stmt 1
  96:src/syscall_cpp.cpp **** }
 816              		.loc 2 96 1 is_stmt 0
 817              	#NO_APP
 818 03e8 1375F50F 		andi	a0,a0,0xff
 819 03ec 03348100 		ld	s0,8(sp)
 820              		.cfi_restore 8
 821              		.cfi_def_cfa 2, 16
 822 03f0 13010101 		addi	sp,sp,16
 823              		.cfi_def_cfa_offset 0
 824 03f4 67800000 		jr	ra
 825              		.cfi_endproc
GAS LISTING /tmp/ccL31S8z.s 			page 21


 826              	.LFE76:
 828              		.align	2
 829              		.globl	_ZN7Console4putcEc
 831              	_ZN7Console4putcEc:
 832              	.LFB77:
  97:src/syscall_cpp.cpp **** 
  98:src/syscall_cpp.cpp **** void Console::putc(char c) {
 833              		.loc 2 98 28 is_stmt 1
 834              		.cfi_startproc
 835              	.LVL57:
 836 03f8 130101FF 		addi	sp,sp,-16
 837              		.cfi_def_cfa_offset 16
 838 03fc 23348100 		sd	s0,8(sp)
 839              		.cfi_offset 8, -8
 840 0400 13040101 		addi	s0,sp,16
 841              		.cfi_def_cfa 8, 0
  99:src/syscall_cpp.cpp **** 	__asm__ volatile("mv a1, %0" : : "r" (c));
 842              		.loc 2 99 2
 843              		.loc 2 99 43 is_stmt 0
 844              	#APP
 845              	# 99 "src/syscall_cpp.cpp" 1
 100              	
 101:src/syscall_cpp.cpp **** 	__asm__ volatile("mv a0, %0" : : "r" (SyscallCodes::PUT_C));
 846              		mv a1, a0
 847              	# 0 "" 2
 848              		.loc 2 101 2 is_stmt 1
 849              		.loc 2 101 61 is_stmt 0
 850              	#NO_APP
 851 0408 93072004 		li	a5,66
 852              	#APP
 853              	# 101 "src/syscall_cpp.cpp" 1
 102              	
 103:src/syscall_cpp.cpp **** 	__asm__ volatile("ecall");
 854              		mv a0, a5
 855              	# 0 "" 2
 856              		.loc 2 103 2 is_stmt 1
 857              		.loc 2 103 27 is_stmt 0
 858              	# 103 "src/syscall_cpp.cpp" 1
 104              	}
 859              		ecall
 860              	# 0 "" 2
 861              		.loc 2 104 1
 862              	#NO_APP
 863 0414 03348100 		ld	s0,8(sp)
 864              		.cfi_restore 8
 865              		.cfi_def_cfa 2, 16
 866 0418 13010101 		addi	sp,sp,16
 867              		.cfi_def_cfa_offset 0
 868 041c 67800000 		jr	ra
 869              		.cfi_endproc
 870              	.LFE77:
 872              		.weak	_ZTV6Thread
 873              		.section	.data.rel.ro.local._ZTV6Thread,"awG",@progbits,_ZTV6Thread,comdat
 874              		.align	3
 877              	_ZTV6Thread:
 878 0000 00000000 		.dword	0
 878      00000000 
GAS LISTING /tmp/ccL31S8z.s 			page 22


 879 0008 00000000 		.dword	0
 879      00000000 
 880 0010 00000000 		.dword	_ZN6ThreadD1Ev
 880      00000000 
 881 0018 00000000 		.dword	_ZN6ThreadD0Ev
 881      00000000 
 882 0020 00000000 		.dword	_ZN6Thread3runEv
 882      00000000 
 883              		.weak	_ZTV9Semaphore
 884              		.section	.data.rel.ro.local._ZTV9Semaphore,"awG",@progbits,_ZTV9Semaphore,comdat
 885              		.align	3
 888              	_ZTV9Semaphore:
 889 0000 00000000 		.dword	0
 889      00000000 
 890 0008 00000000 		.dword	0
 890      00000000 
 891 0010 00000000 		.dword	_ZN9SemaphoreD1Ev
 891      00000000 
 892 0018 00000000 		.dword	_ZN9SemaphoreD0Ev
 892      00000000 
 893              		.text
 894              	.Letext0:
 895              		.file 5 "src/../h/../lib/hw.h"
 896              		.file 6 "src/../h/memoryAllocator.hpp"
 897              		.file 7 "src/../h/list.hpp"
 898              		.file 8 "src/../h/syscall_c.hpp"
 899              		.file 9 "src/../h/syscall_codes.h"
 5354              		.align	3
 5357              	DW.ref.__gxx_personality_v0:
 5358 0000 00000000 		.dword	__gxx_personality_v0
 5358      00000000 
 5359              		.ident	"GCC: (Ubuntu 9.4.0-1ubuntu1~20.04) 9.4.0"
 5360              		.section	.note.GNU-stack,"",@progbits
GAS LISTING /tmp/ccL31S8z.s 			page 23

