GAS LISTING /tmp/cc5R1iUN.s 			page 1


   1              		.file	"tcb.cpp"
   2              		.option pic
   3              		.option norelax
   4              		.text
   5              	.Ltext0:
   6              		.align	2
   8              	_Z41__static_initialization_and_destruction_0ii:
   9              	.LFB77:
  10              		.file 1 "src/tcb.cpp"
   1:src/tcb.cpp   **** //
   2:src/tcb.cpp   **** // Created by Andrija
   3:src/tcb.cpp   **** //
   4:src/tcb.cpp   **** 
   5:src/tcb.cpp   **** #include "../h/tcb.hpp"
   6:src/tcb.cpp   **** #include "../h/riscv.hpp"
   7:src/tcb.cpp   **** #include "../h/memoryAllocator.hpp"
   8:src/tcb.cpp   **** #include "../h/scheduler.hpp"
   9:src/tcb.cpp   **** #include "../h/syscall_codes.h"
  10:src/tcb.cpp   **** #include "../h/print.hpp"
  11:src/tcb.cpp   **** 
  12:src/tcb.cpp   **** 
  13:src/tcb.cpp   **** TCB* TCB::running = nullptr;
  14:src/tcb.cpp   **** 
  15:src/tcb.cpp   **** int TCB::id = 0;
  16:src/tcb.cpp   **** 
  17:src/tcb.cpp   **** int TCB:: max=0;
  18:src/tcb.cpp   **** 
  19:src/tcb.cpp   **** int TCB::active = 2;
  20:src/tcb.cpp   **** 
  21:src/tcb.cpp   **** List<TCB> TCB::capacity;
  22:src/tcb.cpp   **** 
  23:src/tcb.cpp   **** TCB::TCB(Body start_routine, void* arg, void*stack_space):
  24:src/tcb.cpp   ****     barrier(new Barrier(1, this)),
  25:src/tcb.cpp   ****     start_routine(start_routine),
  26:src/tcb.cpp   ****     arg(arg),
  27:src/tcb.cpp   ****     stack_space(start_routine != nullptr ? stack_space:nullptr),
  28:src/tcb.cpp   ****     context({(uint64) &threadWrapper,
  29:src/tcb.cpp   ****             stack_space != nullptr ? (uint64) stack_space + STACK_SIZE : 0}),
  30:src/tcb.cpp   ****     finished(false),
  31:src/tcb.cpp   ****     blocked(false),
  32:src/tcb.cpp   ****     suspended(false),
  33:src/tcb.cpp   ****     barriered(false),
  34:src/tcb.cpp   ****     myID(id++)
  35:src/tcb.cpp   **** {
  36:src/tcb.cpp   **** 
  37:src/tcb.cpp   **** }
  38:src/tcb.cpp   **** 
  39:src/tcb.cpp   **** TCB* TCB::thread_create(Body start_routine, void* arg, void* stack_space){
  40:src/tcb.cpp   **** 
  41:src/tcb.cpp   ****     TCB* newThread = new TCB(start_routine, arg, stack_space);
  42:src/tcb.cpp   **** 
  43:src/tcb.cpp   ****     return newThread;
  44:src/tcb.cpp   **** }
  45:src/tcb.cpp   **** 
  46:src/tcb.cpp   **** void TCB::yield()
  47:src/tcb.cpp   **** {
  48:src/tcb.cpp   ****     __asm__ volatile("mv a0, %0" : : "r"(SyscallCodes::THREAD_DISPATCH));
GAS LISTING /tmp/cc5R1iUN.s 			page 2


  49:src/tcb.cpp   **** 
  50:src/tcb.cpp   ****     __asm__ volatile("ecall");
  51:src/tcb.cpp   **** }
  52:src/tcb.cpp   **** 
  53:src/tcb.cpp   **** void TCB::thread_dispatch()
  54:src/tcb.cpp   **** {
  55:src/tcb.cpp   ****     TCB *old = running;
  56:src/tcb.cpp   ****     if (!old->isFinished() && !old->isBlocked() && !old->isSuspended() && !old->isBarriered()) {
  57:src/tcb.cpp   ****         Scheduler::put(old);
  58:src/tcb.cpp   ****     }
  59:src/tcb.cpp   **** 
  60:src/tcb.cpp   ****     if(old->isFinished()) {
  61:src/tcb.cpp   ****         TCB::setActive(TCB::getActive()-1);
  62:src/tcb.cpp   ****         if(TCB::getActive()<TCB::getMax() && capacity.peekFirst()) {
  63:src/tcb.cpp   ****             Scheduler::put(TCB::capacity.removeFirst());
  64:src/tcb.cpp   ****         }
  65:src/tcb.cpp   **** 
  66:src/tcb.cpp   ****     }
  67:src/tcb.cpp   ****     running = Scheduler::get();
  68:src/tcb.cpp   **** 
  69:src/tcb.cpp   **** 
  70:src/tcb.cpp   ****     TCB::contextSwitch(&old->context, &running->context);
  71:src/tcb.cpp   **** }
  72:src/tcb.cpp   **** 
  73:src/tcb.cpp   **** int TCB::thread_exit(){
  74:src/tcb.cpp   **** 
  75:src/tcb.cpp   ****     running->setFinished(true);
  76:src/tcb.cpp   **** 
  77:src/tcb.cpp   ****     memoryAllocator::deallocate(TCB::running->stack_space);
  78:src/tcb.cpp   ****     memoryAllocator::deallocate(TCB::running);
  79:src/tcb.cpp   **** 
  80:src/tcb.cpp   ****     TCB::thread_dispatch();
  81:src/tcb.cpp   **** 
  82:src/tcb.cpp   ****     return 0;
  83:src/tcb.cpp   **** 
  84:src/tcb.cpp   **** 
  85:src/tcb.cpp   **** }
  86:src/tcb.cpp   **** 
  87:src/tcb.cpp   **** int TCB::getThreadId() {
  88:src/tcb.cpp   **** 
  89:src/tcb.cpp   ****     int id = running->getMyID();
  90:src/tcb.cpp   **** 
  91:src/tcb.cpp   ****     return id;
  92:src/tcb.cpp   **** }
  93:src/tcb.cpp   **** 
  94:src/tcb.cpp   **** void TCB::thread_join(TCB* handle) {
  95:src/tcb.cpp   **** 
  96:src/tcb.cpp   ****     if(!handle->isFinished()) {
  97:src/tcb.cpp   ****         handle->suspendedList.addLast(running);
  98:src/tcb.cpp   **** 
  99:src/tcb.cpp   ****         running->setSuspended(true);
 100:src/tcb.cpp   **** 
 101:src/tcb.cpp   ****         TCB::thread_dispatch();
 102:src/tcb.cpp   ****     }
 103:src/tcb.cpp   **** }
 104:src/tcb.cpp   **** 
 105:src/tcb.cpp   **** void TCB::relise() {
GAS LISTING /tmp/cc5R1iUN.s 			page 3


 106:src/tcb.cpp   ****     while(this->suspendedList.peekFirst()) {
 107:src/tcb.cpp   ****         TCB* un = suspendedList.removeFirst();
 108:src/tcb.cpp   ****         un->setSuspended(false);
 109:src/tcb.cpp   ****         Scheduler::put(un);
 110:src/tcb.cpp   ****     }
 111:src/tcb.cpp   **** }
 112:src/tcb.cpp   **** 
 113:src/tcb.cpp   **** void TCB::threadWrapper() {
 114:src/tcb.cpp   **** 
 115:src/tcb.cpp   **** 
 116:src/tcb.cpp   ****     Riscv::popSppSpie();
 117:src/tcb.cpp   ****     running->start_routine(running->arg);
 118:src/tcb.cpp   ****     running->setFinished(true);
 119:src/tcb.cpp   **** 
 120:src/tcb.cpp   ****     // relise suspended threads from join
 121:src/tcb.cpp   ****     running->relise();
 122:src/tcb.cpp   **** 
 123:src/tcb.cpp   ****     memoryAllocator::deallocate(TCB::running->stack_space);
 124:src/tcb.cpp   ****     memoryAllocator::deallocate(TCB::running);
 125:src/tcb.cpp   ****     TCB::thread_dispatch();
 126:src/tcb.cpp   **** 
 127:src/tcb.cpp   **** }
 128:src/tcb.cpp   **** 
 129:src/tcb.cpp   **** void Barrier::open() {
 130:src/tcb.cpp   ****     key = 1; if(owner->isBarriered()) {
 131:src/tcb.cpp   ****         owner->setBarriered(false);
 132:src/tcb.cpp   ****         Scheduler::put(owner);
 133:src/tcb.cpp   ****     }
 134:src/tcb.cpp   **** }...
  11              		.loc 1 134 1
  12              		.cfi_startproc
  13              	.LVL0:
  14 0000 130101FF 		addi	sp,sp,-16
  15              		.cfi_def_cfa_offset 16
  16 0004 23348100 		sd	s0,8(sp)
  17              		.cfi_offset 8, -8
  18 0008 13040101 		addi	s0,sp,16
  19              		.cfi_def_cfa 8, 0
  20              		.loc 1 134 1 is_stmt 0
  21 000c 93071000 		li	a5,1
  22 0010 6308F500 		beq	a0,a5,.L4
  23              	.L1:
  24 0014 03348100 		ld	s0,8(sp)
  25              		.cfi_remember_state
  26              		.cfi_restore 8
  27              		.cfi_def_cfa 2, 16
  28 0018 13010101 		addi	sp,sp,16
  29              		.cfi_def_cfa_offset 0
  30 001c 67800000 		jr	ra
  31              	.L4:
  32              		.cfi_restore_state
  33              		.loc 1 134 1 discriminator 1
  34 0020 B7070100 		li	a5,65536
  35 0024 9387F7FF 		addi	a5,a5,-1
  36 0028 E396F5FE 		bne	a1,a5,.L1
  37              	.LVL1:
  38              	.LBB77:
GAS LISTING /tmp/cc5R1iUN.s 			page 4


  39              	.LBB78:
  40              	.LBB79:
  41              		.file 2 "src/../h/list.hpp"
   1:src/../h/list.hpp **** //
   2:src/../h/list.hpp **** // Created by os on 8/3/24.
   3:src/../h/list.hpp **** //
   4:src/../h/list.hpp **** 
   5:src/../h/list.hpp **** #ifndef OS1_VEZBE07_RISCV_CONTEXT_SWITCH_1_SYNCHRONOUS_LIST_HPP
   6:src/../h/list.hpp **** #define OS1_VEZBE07_RISCV_CONTEXT_SWITCH_1_SYNCHRONOUS_LIST_HPP
   7:src/../h/list.hpp **** 
   8:src/../h/list.hpp **** #include "memoryAllocator.hpp"
   9:src/../h/list.hpp **** #include "print.hpp"
  10:src/../h/list.hpp **** 
  11:src/../h/list.hpp **** template<typename T>
  12:src/../h/list.hpp **** class List
  13:src/../h/list.hpp **** {
  14:src/../h/list.hpp **** public:
  15:src/../h/list.hpp ****     struct Elem
  16:src/../h/list.hpp ****     {
  17:src/../h/list.hpp ****         T *data;
  18:src/../h/list.hpp ****         Elem *next;
  19:src/../h/list.hpp **** 
  20:src/../h/list.hpp ****         Elem(T *data, Elem *next) : data(data), next(next) {}
  21:src/../h/list.hpp **** 
  22:src/../h/list.hpp ****         void* operator new(size_t size) {
  23:src/../h/list.hpp ****             size_t blocks = (size + sizeof(size_t))/ MEM_BLOCK_SIZE;
  24:src/../h/list.hpp **** 
  25:src/../h/list.hpp ****             if(size + sizeof(size_t) - blocks * MEM_BLOCK_SIZE > 0){
  26:src/../h/list.hpp ****                 blocks++;
  27:src/../h/list.hpp ****             }
  28:src/../h/list.hpp ****             return memoryAllocator::allocate(blocks);
  29:src/../h/list.hpp ****         }
  30:src/../h/list.hpp ****         void* operator new[](size_t size) {
  31:src/../h/list.hpp ****             size_t blocks = (size + sizeof(size_t))/ MEM_BLOCK_SIZE;
  32:src/../h/list.hpp **** 
  33:src/../h/list.hpp ****             if(size + sizeof(size_t) - blocks * MEM_BLOCK_SIZE > 0){
  34:src/../h/list.hpp ****                 blocks++;
  35:src/../h/list.hpp ****             }
  36:src/../h/list.hpp ****             return memoryAllocator::allocate(blocks);
  37:src/../h/list.hpp ****         }
  38:src/../h/list.hpp **** 
  39:src/../h/list.hpp ****         void operator delete(void *ptr) {
  40:src/../h/list.hpp ****             memoryAllocator::deallocate(ptr);
  41:src/../h/list.hpp ****         }
  42:src/../h/list.hpp ****         void operator delete[](void *ptr) {
  43:src/../h/list.hpp ****             memoryAllocator::deallocate(ptr);
  44:src/../h/list.hpp ****         }
  45:src/../h/list.hpp **** 
  46:src/../h/list.hpp ****     };
  47:src/../h/list.hpp **** 
  48:src/../h/list.hpp ****     Elem *head, *tail;
  49:src/../h/list.hpp **** 
  50:src/../h/list.hpp **** 
  51:src/../h/list.hpp ****     List() : head(0), tail(0) {}
  42              		.loc 2 51 29
  43 002c 97070000 		lla	a5,.LANCHOR0
  43      93870700 
GAS LISTING /tmp/cc5R1iUN.s 			page 5


  44 0034 23B00700 		sd	zero,0(a5)
  45 0038 23B40700 		sd	zero,8(a5)
  46              	.LVL2:
  47              	.LBE79:
  48              	.LBE78:
  49              	.LBE77:
  50              		.loc 1 134 1
  51 003c 6FF09FFD 		j	.L1
  52              		.cfi_endproc
  53              	.LFE77:
  55              		.align	2
  56              		.globl	_ZN3TCBC2EPFvPvES0_S0_
  58              	_ZN3TCBC2EPFvPvES0_S0_:
  59              	.LFB55:
  23:src/tcb.cpp   **** TCB::TCB(Body start_routine, void* arg, void*stack_space):
  60              		.loc 1 23 1 is_stmt 1
  61              		.cfi_startproc
  62              	.LVL3:
  63 0040 130101FD 		addi	sp,sp,-48
  64              		.cfi_def_cfa_offset 48
  65 0044 23341102 		sd	ra,40(sp)
  66 0048 23308102 		sd	s0,32(sp)
  67 004c 233C9100 		sd	s1,24(sp)
  68 0050 23382101 		sd	s2,16(sp)
  69 0054 23343101 		sd	s3,8(sp)
  70 0058 23304101 		sd	s4,0(sp)
  71              		.cfi_offset 1, -8
  72              		.cfi_offset 8, -16
  73              		.cfi_offset 9, -24
  74              		.cfi_offset 18, -32
  75              		.cfi_offset 19, -40
  76              		.cfi_offset 20, -48
  77 005c 13040103 		addi	s0,sp,48
  78              		.cfi_def_cfa 8, 0
  79 0060 93040500 		mv	s1,a0
  80 0064 93890500 		mv	s3,a1
  81 0068 130A0600 		mv	s4,a2
  82 006c 13890600 		mv	s2,a3
  83              	.LBB80:
  24:src/tcb.cpp   ****     barrier(new Barrier(1, this)),
  84              		.loc 1 24 32 is_stmt 0
  85 0070 13050001 		li	a0,16
  86              	.LVL4:
  87 0074 97000000 		call	_Znwm@plt
  87      E7800000 
  88              	.LVL5:
  89              	.LBB81:
  90              	.LBB82:
  91              		.file 3 "src/../h/tcb.hpp"
   1:src/../h/tcb.hpp **** //
   2:src/../h/tcb.hpp **** // Created by os on 8/3/24.
   3:src/../h/tcb.hpp **** //
   4:src/../h/tcb.hpp **** 
   5:src/../h/tcb.hpp **** #ifndef OS1_VEZBE07_RISCV_CONTEXT_SWITCH_1_SYNCHRONOUS_TCB_HPP
   6:src/../h/tcb.hpp **** #define OS1_VEZBE07_RISCV_CONTEXT_SWITCH_1_SYNCHRONOUS_TCB_HPP
   7:src/../h/tcb.hpp **** 
   8:src/../h/tcb.hpp **** #include "../lib/hw.h"
GAS LISTING /tmp/cc5R1iUN.s 			page 6


   9:src/../h/tcb.hpp **** #include "memoryAllocator.hpp"
  10:src/../h/tcb.hpp **** #include "list.hpp"
  11:src/../h/tcb.hpp **** 
  12:src/../h/tcb.hpp **** 
  13:src/../h/tcb.hpp **** class Barrier;
  14:src/../h/tcb.hpp **** 
  15:src/../h/tcb.hpp **** // Thread Control Block
  16:src/../h/tcb.hpp **** class TCB
  17:src/../h/tcb.hpp **** {
  18:src/../h/tcb.hpp **** public:
  19:src/../h/tcb.hpp ****     ~TCB() {}
  20:src/../h/tcb.hpp **** 
  21:src/../h/tcb.hpp ****     Barrier* barrier;
  22:src/../h/tcb.hpp **** 
  23:src/../h/tcb.hpp ****     static void thread_join(TCB* handle);
  24:src/../h/tcb.hpp **** 
  25:src/../h/tcb.hpp ****     static int id;
  26:src/../h/tcb.hpp **** 
  27:src/../h/tcb.hpp ****     static int active;
  28:src/../h/tcb.hpp **** 
  29:src/../h/tcb.hpp ****     static int max;
  30:src/../h/tcb.hpp **** 
  31:src/../h/tcb.hpp ****     static int getThreadId();
  32:src/../h/tcb.hpp **** 
  33:src/../h/tcb.hpp ****     static List<TCB> capacity;
  34:src/../h/tcb.hpp **** 
  35:src/../h/tcb.hpp ****     bool isFinished() const { return finished; }
  36:src/../h/tcb.hpp **** 
  37:src/../h/tcb.hpp ****     bool isBlocked() const { return blocked; }
  38:src/../h/tcb.hpp **** 
  39:src/../h/tcb.hpp ****     bool isSuspended() const { return suspended; }
  40:src/../h/tcb.hpp **** 
  41:src/../h/tcb.hpp ****     bool isBarriered() const { return barriered; }
  42:src/../h/tcb.hpp **** 
  43:src/../h/tcb.hpp ****     void setFinished(bool value) { finished = value; }
  44:src/../h/tcb.hpp **** 
  45:src/../h/tcb.hpp ****     void setBlocked(bool value) { blocked = value; }
  46:src/../h/tcb.hpp **** 
  47:src/../h/tcb.hpp ****     void setSuspended(bool value) { suspended = value; }
  48:src/../h/tcb.hpp **** 
  49:src/../h/tcb.hpp ****     void setBarriered(bool value) { barriered = value; }
  50:src/../h/tcb.hpp **** 
  51:src/../h/tcb.hpp ****     int getMyID() const { return myID; }
  52:src/../h/tcb.hpp **** 
  53:src/../h/tcb.hpp ****     static int getMax() { return max; }
  54:src/../h/tcb.hpp **** 
  55:src/../h/tcb.hpp ****     static void SetMaximumThreads(int num_of_threads){ max = num_of_threads; };
  56:src/../h/tcb.hpp **** 
  57:src/../h/tcb.hpp ****     static int getActive() { return active; }
  58:src/../h/tcb.hpp **** 
  59:src/../h/tcb.hpp ****     static void setActive(int value) { active = value; }
  60:src/../h/tcb.hpp **** 
  61:src/../h/tcb.hpp ****     using Body = void (*)(void*);
  62:src/../h/tcb.hpp **** 
  63:src/../h/tcb.hpp ****     static TCB* thread_create(Body start_routine, void* arg, void* stack_space);
  64:src/../h/tcb.hpp **** 
  65:src/../h/tcb.hpp ****     static void yield();
GAS LISTING /tmp/cc5R1iUN.s 			page 7


  66:src/../h/tcb.hpp **** 
  67:src/../h/tcb.hpp **** 	static int thread_exit();
  68:src/../h/tcb.hpp **** 
  69:src/../h/tcb.hpp ****     static TCB *running;
  70:src/../h/tcb.hpp **** 
  71:src/../h/tcb.hpp ****     static void thread_dispatch();
  72:src/../h/tcb.hpp **** 
  73:src/../h/tcb.hpp ****     void* operator new(size_t size) {
  74:src/../h/tcb.hpp ****         size_t blocks = (size + sizeof(size_t))/ MEM_BLOCK_SIZE;
  75:src/../h/tcb.hpp **** 
  76:src/../h/tcb.hpp ****         if(size + sizeof(size_t) - blocks * MEM_BLOCK_SIZE > 0){
  77:src/../h/tcb.hpp ****             blocks++;
  78:src/../h/tcb.hpp ****         }
  79:src/../h/tcb.hpp ****         return memoryAllocator::allocate(blocks);
  80:src/../h/tcb.hpp ****     }
  81:src/../h/tcb.hpp ****     void* operator new[](size_t size) {
  82:src/../h/tcb.hpp ****         size_t blocks = (size + sizeof(size_t))/ MEM_BLOCK_SIZE;
  83:src/../h/tcb.hpp **** 
  84:src/../h/tcb.hpp ****         if(size + sizeof(size_t) - blocks * MEM_BLOCK_SIZE > 0){
  85:src/../h/tcb.hpp ****             blocks++;
  86:src/../h/tcb.hpp ****         }
  87:src/../h/tcb.hpp ****         return memoryAllocator::allocate(blocks);
  88:src/../h/tcb.hpp ****     }
  89:src/../h/tcb.hpp **** 
  90:src/../h/tcb.hpp ****     void operator delete(void *ptr) {
  91:src/../h/tcb.hpp ****         memoryAllocator::deallocate(ptr);
  92:src/../h/tcb.hpp ****     }
  93:src/../h/tcb.hpp ****     void operator delete[](void *ptr) {
  94:src/../h/tcb.hpp ****         memoryAllocator::deallocate(ptr);
  95:src/../h/tcb.hpp ****     }
  96:src/../h/tcb.hpp **** 
  97:src/../h/tcb.hpp **** private:
  98:src/../h/tcb.hpp ****     explicit TCB(Body body, void* arg, void* stack_space);
  99:src/../h/tcb.hpp **** 
 100:src/../h/tcb.hpp ****     Body start_routine;
 101:src/../h/tcb.hpp ****     void* arg;
 102:src/../h/tcb.hpp ****     void* stack_space;
 103:src/../h/tcb.hpp **** 
 104:src/../h/tcb.hpp ****     struct Context
 105:src/../h/tcb.hpp ****     {
 106:src/../h/tcb.hpp ****         uint64 ra; //return address
 107:src/../h/tcb.hpp ****         uint64 sp; // stack pointer
 108:src/../h/tcb.hpp ****     };
 109:src/../h/tcb.hpp **** 
 110:src/../h/tcb.hpp ****     Context context;
 111:src/../h/tcb.hpp ****     bool finished;
 112:src/../h/tcb.hpp ****     bool blocked;
 113:src/../h/tcb.hpp ****     bool suspended;
 114:src/../h/tcb.hpp ****     bool barriered;
 115:src/../h/tcb.hpp ****     int myID;
 116:src/../h/tcb.hpp **** 
 117:src/../h/tcb.hpp ****     List<TCB> suspendedList;
 118:src/../h/tcb.hpp **** 
 119:src/../h/tcb.hpp **** 
 120:src/../h/tcb.hpp ****     static void threadWrapper();
 121:src/../h/tcb.hpp **** 
 122:src/../h/tcb.hpp ****     static void contextSwitch(Context* oldContext, Context* newContext);
GAS LISTING /tmp/cc5R1iUN.s 			page 8


 123:src/../h/tcb.hpp **** 
 124:src/../h/tcb.hpp ****     void relise();
 125:src/../h/tcb.hpp **** 
 126:src/../h/tcb.hpp ****     static uint64 constexpr STACK_SIZE = DEFAULT_STACK_SIZE;
 127:src/../h/tcb.hpp **** };
 128:src/../h/tcb.hpp **** 
 129:src/../h/tcb.hpp **** class Barrier {
 130:src/../h/tcb.hpp **** public:
 131:src/../h/tcb.hpp ****     Barrier (int open, TCB* owner){ key = open; owner = owner;};
  92              		.loc 3 131 37 is_stmt 1
  93              		.loc 3 131 41 is_stmt 0
  94 007c 93071000 		li	a5,1
  95 0080 2324F500 		sw	a5,8(a0)
  96              		.loc 3 131 49 is_stmt 1
  97              	.LVL6:
  98              	.LBE82:
  99              	.LBE81:
  34:src/tcb.cpp   ****     myID(id++)
 100              		.loc 1 34 14 is_stmt 0
 101 0084 23B0A400 		sd	a0,0(s1)
 102 0088 23B43401 		sd	s3,8(s1)
 103 008c 23B84401 		sd	s4,16(s1)
  27:src/tcb.cpp   ****     stack_space(start_routine != nullptr ? stack_space:nullptr),
 104              		.loc 1 27 42
 105 0090 638C0906 		beqz	s3,.L8
 106 0094 93070900 		mv	a5,s2
 107              	.L6:
  34:src/tcb.cpp   ****     myID(id++)
 108              		.loc 1 34 14
 109 0098 23BCF400 		sd	a5,24(s1)
 110 009c 97070000 		lla	a5,_ZN3TCB13threadWrapperEv
 110      93870700 
 111 00a4 23B0F402 		sd	a5,32(s1)
  29:src/tcb.cpp   ****             stack_space != nullptr ? (uint64) stack_space + STACK_SIZE : 0}),
 112              		.loc 1 29 36
 113 00a8 63040906 		beqz	s2,.L9
  29:src/tcb.cpp   ****             stack_space != nullptr ? (uint64) stack_space + STACK_SIZE : 0}),
 114              		.loc 1 29 36 discriminator 1
 115 00ac B7160000 		li	a3,4096
 116 00b0 3309D900 		add	s2,s2,a3
 117              	.LVL7:
 118              	.L7:
  34:src/tcb.cpp   ****     myID(id++)
 119              		.loc 1 34 14
 120 00b4 23B42403 		sd	s2,40(s1)
 121 00b8 23880402 		sb	zero,48(s1)
 122 00bc A3880402 		sb	zero,49(s1)
 123 00c0 23890402 		sb	zero,50(s1)
 124 00c4 A3890402 		sb	zero,51(s1)
  34:src/tcb.cpp   ****     myID(id++)
 125              		.loc 1 34 12
 126 00c8 17070000 		lla	a4,.LANCHOR0
 126      13070700 
 127 00d0 83270701 		lw	a5,16(a4)
 128 00d4 9B861700 		addiw	a3,a5,1
 129 00d8 2328D700 		sw	a3,16(a4)
  34:src/tcb.cpp   ****     myID(id++)
GAS LISTING /tmp/cc5R1iUN.s 			page 9


 130              		.loc 1 34 14
 131 00dc 23AAF402 		sw	a5,52(s1)
 132              	.LVL8:
 133              	.LBB83:
 134              	.LBB84:
 135              		.loc 2 51 29
 136 00e0 23BC0402 		sd	zero,56(s1)
 137 00e4 23B00404 		sd	zero,64(s1)
 138              	.LVL9:
 139              	.LBE84:
 140              	.LBE83:
 141              	.LBE80:
  37:src/tcb.cpp   **** }
 142              		.loc 1 37 1
 143 00e8 83308102 		ld	ra,40(sp)
 144              		.cfi_remember_state
 145              		.cfi_restore 1
 146 00ec 03340102 		ld	s0,32(sp)
 147              		.cfi_restore 8
 148              		.cfi_def_cfa 2, 48
 149 00f0 83348101 		ld	s1,24(sp)
 150              		.cfi_restore 9
 151              	.LVL10:
 152 00f4 03390101 		ld	s2,16(sp)
 153              		.cfi_restore 18
 154 00f8 83398100 		ld	s3,8(sp)
 155              		.cfi_restore 19
 156              	.LVL11:
 157 00fc 033A0100 		ld	s4,0(sp)
 158              		.cfi_restore 20
 159              	.LVL12:
 160 0100 13010103 		addi	sp,sp,48
 161              		.cfi_def_cfa_offset 0
 162 0104 67800000 		jr	ra
 163              	.LVL13:
 164              	.L8:
 165              		.cfi_restore_state
 166              	.LBB85:
  27:src/tcb.cpp   ****     stack_space(start_routine != nullptr ? stack_space:nullptr),
 167              		.loc 1 27 42
 168 0108 93070000 		li	a5,0
 169 010c 6FF0DFF8 		j	.L6
 170              	.L9:
  29:src/tcb.cpp   ****             stack_space != nullptr ? (uint64) stack_space + STACK_SIZE : 0}),
 171              		.loc 1 29 36
 172 0110 13090000 		li	s2,0
 173              	.LVL14:
 174 0114 6FF01FFA 		j	.L7
 175              	.LBE85:
 176              		.cfi_endproc
 177              	.LFE55:
 179              		.globl	_ZN3TCBC1EPFvPvES0_S0_
 180              		.set	_ZN3TCBC1EPFvPvES0_S0_,_ZN3TCBC2EPFvPvES0_S0_
 181              		.align	2
 182              		.globl	_ZN3TCB13thread_createEPFvPvES0_S0_
 184              	_ZN3TCB13thread_createEPFvPvES0_S0_:
 185              	.LFB57:
GAS LISTING /tmp/cc5R1iUN.s 			page 10


  39:src/tcb.cpp   **** TCB* TCB::thread_create(Body start_routine, void* arg, void* stack_space){
 186              		.loc 1 39 74 is_stmt 1
 187              		.cfi_startproc
 188              		.cfi_personality 0x9b,DW.ref.__gxx_personality_v0
 189              		.cfi_lsda 0x1b,.LLSDA57
 190              	.LVL15:
 191 0118 130101FD 		addi	sp,sp,-48
 192              		.cfi_def_cfa_offset 48
 193 011c 23341102 		sd	ra,40(sp)
 194 0120 23308102 		sd	s0,32(sp)
 195 0124 233C9100 		sd	s1,24(sp)
 196 0128 23382101 		sd	s2,16(sp)
 197 012c 23343101 		sd	s3,8(sp)
 198 0130 23304101 		sd	s4,0(sp)
 199              		.cfi_offset 1, -8
 200              		.cfi_offset 8, -16
 201              		.cfi_offset 9, -24
 202              		.cfi_offset 18, -32
 203              		.cfi_offset 19, -40
 204              		.cfi_offset 20, -48
 205 0134 13040103 		addi	s0,sp,48
 206              		.cfi_def_cfa 8, 0
 207 0138 13090500 		mv	s2,a0
 208 013c 93890500 		mv	s3,a1
 209 0140 130A0600 		mv	s4,a2
  41:src/tcb.cpp   ****     TCB* newThread = new TCB(start_routine, arg, stack_space);
 210              		.loc 1 41 5
 211              	.LVL16:
 212              	.LBB86:
 213              	.LBB87:
  74:src/../h/tcb.hpp **** 
 214              		.loc 3 74 9
  76:src/../h/tcb.hpp ****             blocks++;
 215              		.loc 3 76 9
  77:src/../h/tcb.hpp ****         }
 216              		.loc 3 77 13
  79:src/../h/tcb.hpp ****     }
 217              		.loc 3 79 9
  79:src/../h/tcb.hpp ****     }
 218              		.loc 3 79 41 is_stmt 0
 219 0144 13052000 		li	a0,2
 220              	.LVL17:
 221              	.LEHB0:
 222 0148 97000000 		call	_ZN15memoryAllocator8allocateEm@plt
 222      E7800000 
 223              	.LVL18:
 224              	.LEHE0:
 225 0150 93040500 		mv	s1,a0
 226              	.LVL19:
 227              	.LBE87:
 228              	.LBE86:
  41:src/tcb.cpp   ****     TCB* newThread = new TCB(start_routine, arg, stack_space);
 229              		.loc 1 41 61
 230 0154 93060A00 		mv	a3,s4
 231 0158 13860900 		mv	a2,s3
 232 015c 93050900 		mv	a1,s2
 233              	.LEHB1:
GAS LISTING /tmp/cc5R1iUN.s 			page 11


 234 0160 97000000 		call	_ZN3TCBC1EPFvPvES0_S0_
 234      E7800000 
 235              	.LVL20:
 236              	.LEHE1:
 237 0168 6F000002 		j	.L16
 238              	.L13:
 239 016c 13090500 		mv	s2,a0
 240              	.LVL21:
 241              	.LBB88:
 242              	.LBB89:
  91:src/../h/tcb.hpp ****     }
 243              		.loc 3 91 9 is_stmt 1
  91:src/../h/tcb.hpp ****     }
 244              		.loc 3 91 36 is_stmt 0
 245 0170 13850400 		mv	a0,s1
 246 0174 97000000 		call	_ZN15memoryAllocator10deallocateEPv@plt
 246      E7800000 
 247              	.LVL22:
 248 017c 13050900 		mv	a0,s2
 249              	.LEHB2:
 250 0180 97000000 		call	_Unwind_Resume@plt
 250      E7800000 
 251              	.LVL23:
 252              	.LEHE2:
 253              	.L16:
 254              	.LBE89:
 255              	.LBE88:
  44:src/tcb.cpp   **** }
 256              		.loc 1 44 1
 257 0188 13850400 		mv	a0,s1
 258 018c 83308102 		ld	ra,40(sp)
 259              		.cfi_restore 1
 260 0190 03340102 		ld	s0,32(sp)
 261              		.cfi_restore 8
 262              		.cfi_def_cfa 2, 48
 263 0194 83348101 		ld	s1,24(sp)
 264              		.cfi_restore 9
 265 0198 03390101 		ld	s2,16(sp)
 266              		.cfi_restore 18
 267              	.LVL24:
 268 019c 83398100 		ld	s3,8(sp)
 269              		.cfi_restore 19
 270              	.LVL25:
 271 01a0 033A0100 		ld	s4,0(sp)
 272              		.cfi_restore 20
 273              	.LVL26:
 274 01a4 13010103 		addi	sp,sp,48
 275              		.cfi_def_cfa_offset 0
 276 01a8 67800000 		jr	ra
 277              		.cfi_endproc
 278              	.LFE57:
 279              		.globl	__gxx_personality_v0
 280              		.section	.gcc_except_table,"a",@progbits
 281              	.LLSDA57:
 282 0000 FF       		.byte	0xff
 283 0001 FF       		.byte	0xff
 284 0002 03       		.byte	0x3
GAS LISTING /tmp/cc5R1iUN.s 			page 12


 285 0003 27       		.byte	0x27
 286 0004 00000000 		.4byte	.LEHB0-.LFB57
 287 0008 00000000 		.4byte	.LEHE0-.LEHB0
 288 000c 00000000 		.4byte	0
 289 0010 00       		.byte	0
 290 0011 00000000 		.4byte	.LEHB1-.LFB57
 291 0015 00000000 		.4byte	.LEHE1-.LEHB1
 292 0019 00000000 		.4byte	.L13-.LFB57
 293 001d 00       		.byte	0
 294 001e 00000000 		.4byte	.LEHB2-.LFB57
 295 0022 00000000 		.4byte	.LEHE2-.LEHB2
 296 0026 00000000 		.4byte	0
 297 002a 00       		.byte	0
 298              		.text
 300              		.align	2
 301              		.globl	_ZN3TCB5yieldEv
 303              	_ZN3TCB5yieldEv:
 304              	.LFB58:
  47:src/tcb.cpp   **** {
 305              		.loc 1 47 1 is_stmt 1
 306              		.cfi_startproc
 307 01ac 130101FF 		addi	sp,sp,-16
 308              		.cfi_def_cfa_offset 16
 309 01b0 23348100 		sd	s0,8(sp)
 310              		.cfi_offset 8, -8
 311 01b4 13040101 		addi	s0,sp,16
 312              		.cfi_def_cfa 8, 0
  48:src/tcb.cpp   ****     __asm__ volatile("mv a0, %0" : : "r"(SyscallCodes::THREAD_DISPATCH));
 313              		.loc 1 48 5
  48:src/tcb.cpp   ****     __asm__ volatile("mv a0, %0" : : "r"(SyscallCodes::THREAD_DISPATCH));
 314              		.loc 1 48 73 is_stmt 0
 315 01b8 93073001 		li	a5,19
 316              	#APP
 317              	# 48 "src/tcb.cpp" 1
  50:src/tcb.cpp   ****     __asm__ volatile("ecall");
 318              		mv a0, a5
 319              	# 0 "" 2
 320              		.loc 1 50 5 is_stmt 1
  50:src/tcb.cpp   ****     __asm__ volatile("ecall");
 321              		.loc 1 50 30 is_stmt 0
 322              	# 50 "src/tcb.cpp" 1
  51:src/tcb.cpp   **** }
 323              		ecall
 324              	# 0 "" 2
 325              		.loc 1 51 1
 326              	#NO_APP
 327 01c4 03348100 		ld	s0,8(sp)
 328              		.cfi_restore 8
 329              		.cfi_def_cfa 2, 16
 330 01c8 13010101 		addi	sp,sp,16
 331              		.cfi_def_cfa_offset 0
 332 01cc 67800000 		jr	ra
 333              		.cfi_endproc
 334              	.LFE58:
 336              		.align	2
 337              		.globl	_ZN3TCB15thread_dispatchEv
 339              	_ZN3TCB15thread_dispatchEv:
GAS LISTING /tmp/cc5R1iUN.s 			page 13


 340              	.LFB59:
  54:src/tcb.cpp   **** {
 341              		.loc 1 54 1 is_stmt 1
 342              		.cfi_startproc
 343 01d0 130101FE 		addi	sp,sp,-32
 344              		.cfi_def_cfa_offset 32
 345 01d4 233C1100 		sd	ra,24(sp)
 346 01d8 23388100 		sd	s0,16(sp)
 347 01dc 23349100 		sd	s1,8(sp)
 348 01e0 23302101 		sd	s2,0(sp)
 349              		.cfi_offset 1, -8
 350              		.cfi_offset 8, -16
 351              		.cfi_offset 9, -24
 352              		.cfi_offset 18, -32
 353 01e4 13040102 		addi	s0,sp,32
 354              		.cfi_def_cfa 8, 0
  55:src/tcb.cpp   ****     TCB *old = running;
 355              		.loc 1 55 5
  55:src/tcb.cpp   ****     TCB *old = running;
 356              		.loc 1 55 10 is_stmt 0
 357 01e8 97040000 		ld	s1,.LANCHOR0+24
 357      83B40400 
 358              	.LVL27:
  56:src/tcb.cpp   ****     if (!old->isFinished() && !old->isBlocked() && !old->isSuspended() && !old->isBarriered()) {
 359              		.loc 1 56 5 is_stmt 1
 360              	.LBB90:
 361              	.LBB91:
  35:src/../h/tcb.hpp **** 
 362              		.loc 3 35 31
  35:src/../h/tcb.hpp **** 
 363              		.loc 3 35 38 is_stmt 0
 364 01f0 83C70403 		lbu	a5,48(s1)
 365              	.LVL28:
 366              	.LBE91:
 367              	.LBE90:
  56:src/tcb.cpp   ****     if (!old->isFinished() && !old->isBlocked() && !old->isSuspended() && !old->isBarriered()) {
 368              		.loc 1 56 72
 369 01f4 639E0700 		bnez	a5,.L20
 370              	.LVL29:
 371              	.LBB92:
 372              	.LBB93:
  37:src/../h/tcb.hpp **** 
 373              		.loc 3 37 30 is_stmt 1
  37:src/../h/tcb.hpp **** 
 374              		.loc 3 37 37 is_stmt 0
 375 01f8 83C71403 		lbu	a5,49(s1)
 376              	.LVL30:
 377              	.LBE93:
 378              	.LBE92:
  56:src/tcb.cpp   ****     if (!old->isFinished() && !old->isBlocked() && !old->isSuspended() && !old->isBarriered()) {
 379              		.loc 1 56 28
 380 01fc 639A0700 		bnez	a5,.L20
 381              	.LVL31:
 382              	.LBB94:
 383              	.LBB95:
  39:src/../h/tcb.hpp **** 
 384              		.loc 3 39 32 is_stmt 1
GAS LISTING /tmp/cc5R1iUN.s 			page 14


  39:src/../h/tcb.hpp **** 
 385              		.loc 3 39 39 is_stmt 0
 386 0200 83C72403 		lbu	a5,50(s1)
 387              	.LVL32:
 388              	.LBE95:
 389              	.LBE94:
  56:src/tcb.cpp   ****     if (!old->isFinished() && !old->isBlocked() && !old->isSuspended() && !old->isBarriered()) {
 390              		.loc 1 56 49
 391 0204 63960700 		bnez	a5,.L20
 392              	.LVL33:
 393              	.LBB96:
 394              	.LBB97:
  41:src/../h/tcb.hpp **** 
 395              		.loc 3 41 32 is_stmt 1
  41:src/../h/tcb.hpp **** 
 396              		.loc 3 41 39 is_stmt 0
 397 0208 83C73403 		lbu	a5,51(s1)
 398              	.LVL34:
 399              	.LBE97:
 400              	.LBE96:
  56:src/tcb.cpp   ****     if (!old->isFinished() && !old->isBlocked() && !old->isSuspended() && !old->isBarriered()) {
 401              		.loc 1 56 72
 402 020c 6382070A 		beqz	a5,.L24
 403              	.L20:
  60:src/tcb.cpp   ****     if(old->isFinished()) {
 404              		.loc 1 60 5 is_stmt 1
 405              	.LVL35:
 406              	.LBB98:
 407              	.LBB99:
  35:src/../h/tcb.hpp **** 
 408              		.loc 3 35 31
  35:src/../h/tcb.hpp **** 
 409              		.loc 3 35 38 is_stmt 0
 410 0210 83C70403 		lbu	a5,48(s1)
 411              	.LVL36:
 412              	.LBE99:
 413              	.LBE98:
  60:src/tcb.cpp   ****     if(old->isFinished()) {
 414              		.loc 1 60 5
 415 0214 63820706 		beqz	a5,.L21
  61:src/tcb.cpp   ****         TCB::setActive(TCB::getActive()-1);
 416              		.loc 1 61 9 is_stmt 1
 417              	.LBB100:
 418              	.LBB101:
  57:src/../h/tcb.hpp **** 
 419              		.loc 3 57 30
  57:src/../h/tcb.hpp **** 
 420              		.loc 3 57 37 is_stmt 0
 421 0218 17070000 		lla	a4,.LANCHOR1
 421      13070700 
 422 0220 83270700 		lw	a5,0(a4)
 423              	.LBE101:
 424              	.LBE100:
  61:src/tcb.cpp   ****         TCB::setActive(TCB::getActive()-1);
 425              		.loc 1 61 23
 426 0224 9B87F7FF 		addiw	a5,a5,-1
 427 0228 9B860700 		sext.w	a3,a5
GAS LISTING /tmp/cc5R1iUN.s 			page 15


 428              	.LVL37:
 429              	.LBB102:
 430              	.LBB103:
  59:src/../h/tcb.hpp **** 
 431              		.loc 3 59 40 is_stmt 1
  59:src/../h/tcb.hpp **** 
 432              		.loc 3 59 47 is_stmt 0
 433 022c 2320F700 		sw	a5,0(a4)
 434              	.LVL38:
 435              	.LBE103:
 436              	.LBE102:
  62:src/tcb.cpp   ****         if(TCB::getActive()<TCB::getMax() && capacity.peekFirst()) {
 437              		.loc 1 62 9 is_stmt 1
  57:src/../h/tcb.hpp **** 
 438              		.loc 3 57 30
 439              	.LBB104:
 440              	.LBB105:
  53:src/../h/tcb.hpp **** 
 441              		.loc 3 53 27
  53:src/../h/tcb.hpp **** 
 442              		.loc 3 53 34 is_stmt 0
 443 0230 97070000 		lw	a5,.LANCHOR0+32
 443      83A70700 
 444              	.LBE105:
 445              	.LBE104:
  62:src/tcb.cpp   ****         if(TCB::getActive()<TCB::getMax() && capacity.peekFirst()) {
 446              		.loc 1 62 43
 447 0238 63D0F604 		bge	a3,a5,.L21
 448              	.LVL39:
 449              	.LBB106:
 450              	.LBB107:
  52:src/../h/list.hpp **** 
  53:src/../h/list.hpp ****     List(const List<T> &) = delete;
  54:src/../h/list.hpp **** 
  55:src/../h/list.hpp ****     List<T> &operator=(const List<T> &) = delete;
  56:src/../h/list.hpp **** 
  57:src/../h/list.hpp ****     Elem* getHead() {
  58:src/../h/list.hpp **** 
  59:src/../h/list.hpp ****         return head;
  60:src/../h/list.hpp **** 
  61:src/../h/list.hpp ****     }
  62:src/../h/list.hpp **** 
  63:src/../h/list.hpp ****     void addFirst(T *data)
  64:src/../h/list.hpp ****     {
  65:src/../h/list.hpp ****         Elem *elem = new Elem(data, head);
  66:src/../h/list.hpp ****         head = elem;
  67:src/../h/list.hpp ****         if (!tail) { tail = head; }
  68:src/../h/list.hpp ****     }
  69:src/../h/list.hpp **** 
  70:src/../h/list.hpp ****     void addLast(T *data)
  71:src/../h/list.hpp ****     {
  72:src/../h/list.hpp **** 
  73:src/../h/list.hpp ****         Elem *elem = new Elem(data, 0);
  74:src/../h/list.hpp **** 
  75:src/../h/list.hpp **** 
  76:src/../h/list.hpp ****         if (tail) {
  77:src/../h/list.hpp ****             tail->next = elem;
GAS LISTING /tmp/cc5R1iUN.s 			page 16


  78:src/../h/list.hpp **** 
  79:src/../h/list.hpp ****             tail = elem;
  80:src/../h/list.hpp ****         } else {
  81:src/../h/list.hpp ****             head = tail = elem;
  82:src/../h/list.hpp **** 
  83:src/../h/list.hpp ****         }
  84:src/../h/list.hpp ****     }
  85:src/../h/list.hpp **** 
  86:src/../h/list.hpp ****     T *removeFirst()
  87:src/../h/list.hpp ****     {
  88:src/../h/list.hpp ****         if (!head) { return 0; }
  89:src/../h/list.hpp **** 
  90:src/../h/list.hpp ****         Elem *elem = head;
  91:src/../h/list.hpp ****         head = head->next;
  92:src/../h/list.hpp ****         if (!head) { tail = 0; }
  93:src/../h/list.hpp **** 
  94:src/../h/list.hpp ****         T *ret = elem->data;
  95:src/../h/list.hpp ****         delete elem;
  96:src/../h/list.hpp ****         return ret;
  97:src/../h/list.hpp ****     }
  98:src/../h/list.hpp **** 
  99:src/../h/list.hpp ****     T *peekFirst()
 100:src/../h/list.hpp ****     {
 101:src/../h/list.hpp ****         if (!head) { return 0; }
 451              		.loc 2 101 14
 452 023c 17050000 		ld	a0,.LANCHOR0
 452      03350500 
 453              		.loc 2 101 9
 454 0244 630A0502 		beqz	a0,.L21
 102:src/../h/list.hpp ****         return head->data;
 455              		.loc 2 102 22
 456 0248 83370500 		ld	a5,0(a0)
 457              	.LVL40:
 458              	.LBE107:
 459              	.LBE106:
  62:src/tcb.cpp   ****         if(TCB::getActive()<TCB::getMax() && capacity.peekFirst()) {
 460              		.loc 1 62 43
 461 024c 63860702 		beqz	a5,.L21
  63:src/tcb.cpp   ****             Scheduler::put(TCB::capacity.removeFirst());
 462              		.loc 1 63 13 is_stmt 1
 463              	.LVL41:
 464              	.LBB108:
 465              	.LBB109:
  91:src/../h/list.hpp ****         if (!head) { tail = 0; }
 466              		.loc 2 91 22 is_stmt 0
 467 0250 83378500 		ld	a5,8(a0)
  91:src/../h/list.hpp ****         if (!head) { tail = 0; }
 468              		.loc 2 91 9
 469 0254 17070000 		sd	a5,.LANCHOR0,a4
 469      2330F700 
  92:src/../h/list.hpp **** 
 470              		.loc 2 92 9
 471 025c 63820706 		beqz	a5,.L25
 472              	.L22:
  94:src/../h/list.hpp ****         delete elem;
 473              		.loc 2 94 12
 474 0260 03390500 		ld	s2,0(a0)
GAS LISTING /tmp/cc5R1iUN.s 			page 17


 475              	.LVL42:
 476              	.LBB110:
 477              	.LBB111:
  40:src/../h/list.hpp ****         }
 478              		.loc 2 40 40
 479 0264 97000000 		call	_ZN15memoryAllocator10deallocateEPv@plt
 479      E7800000 
 480              	.LVL43:
 481              	.LBE111:
 482              	.LBE110:
 483              	.LBE109:
 484              	.LBE108:
  63:src/tcb.cpp   ****             Scheduler::put(TCB::capacity.removeFirst());
 485              		.loc 1 63 27
 486 026c 13050900 		mv	a0,s2
 487 0270 97000000 		call	_ZN9Scheduler3putEP3TCB@plt
 487      E7800000 
 488              	.LVL44:
 489              	.L21:
  67:src/tcb.cpp   ****     running = Scheduler::get();
 490              		.loc 1 67 5 is_stmt 1
  67:src/tcb.cpp   ****     running = Scheduler::get();
 491              		.loc 1 67 29 is_stmt 0
 492 0278 97000000 		call	_ZN9Scheduler3getEv@plt
 492      E7800000 
 493              	.LVL45:
  67:src/tcb.cpp   ****     running = Scheduler::get();
 494              		.loc 1 67 13
 495 0280 97070000 		sd	a0,.LANCHOR0+24,a5
 495      23B0A700 
  70:src/tcb.cpp   ****     TCB::contextSwitch(&old->context, &running->context);
 496              		.loc 1 70 5 is_stmt 1
  70:src/tcb.cpp   ****     TCB::contextSwitch(&old->context, &running->context);
 497              		.loc 1 70 23 is_stmt 0
 498 0288 93050502 		addi	a1,a0,32
 499 028c 13850402 		addi	a0,s1,32
 500 0290 97000000 		call	_ZN3TCB13contextSwitchEPNS_7ContextES1_@plt
 500      E7800000 
 501              	.LVL46:
  71:src/tcb.cpp   **** }
 502              		.loc 1 71 1
 503 0298 83308101 		ld	ra,24(sp)
 504              		.cfi_remember_state
 505              		.cfi_restore 1
 506 029c 03340101 		ld	s0,16(sp)
 507              		.cfi_restore 8
 508              		.cfi_def_cfa 2, 32
 509 02a0 83348100 		ld	s1,8(sp)
 510              		.cfi_restore 9
 511              	.LVL47:
 512 02a4 03390100 		ld	s2,0(sp)
 513              		.cfi_restore 18
 514 02a8 13010102 		addi	sp,sp,32
 515              		.cfi_def_cfa_offset 0
 516 02ac 67800000 		jr	ra
 517              	.LVL48:
 518              	.L24:
GAS LISTING /tmp/cc5R1iUN.s 			page 18


 519              		.cfi_restore_state
  57:src/tcb.cpp   ****         Scheduler::put(old);
 520              		.loc 1 57 9 is_stmt 1
  57:src/tcb.cpp   ****         Scheduler::put(old);
 521              		.loc 1 57 23 is_stmt 0
 522 02b0 13850400 		mv	a0,s1
 523 02b4 97000000 		call	_ZN9Scheduler3putEP3TCB@plt
 523      E7800000 
 524              	.LVL49:
 525 02bc 6FF05FF5 		j	.L20
 526              	.LVL50:
 527              	.L25:
 528              	.LBB113:
 529              	.LBB112:
  92:src/../h/list.hpp **** 
 530              		.loc 2 92 22
 531 02c0 97070000 		sd	zero,.LANCHOR0+8,a5
 531      23B00700 
 532 02c8 6FF09FF9 		j	.L22
 533              	.LBE112:
 534              	.LBE113:
 535              		.cfi_endproc
 536              	.LFE59:
 538              		.align	2
 539              		.globl	_ZN3TCB11thread_exitEv
 541              	_ZN3TCB11thread_exitEv:
 542              	.LFB60:
  73:src/tcb.cpp   **** int TCB::thread_exit(){
 543              		.loc 1 73 23 is_stmt 1
 544              		.cfi_startproc
 545 02cc 130101FE 		addi	sp,sp,-32
 546              		.cfi_def_cfa_offset 32
 547 02d0 233C1100 		sd	ra,24(sp)
 548 02d4 23388100 		sd	s0,16(sp)
 549 02d8 23349100 		sd	s1,8(sp)
 550              		.cfi_offset 1, -8
 551              		.cfi_offset 8, -16
 552              		.cfi_offset 9, -24
 553 02dc 13040102 		addi	s0,sp,32
 554              		.cfi_def_cfa 8, 0
  75:src/tcb.cpp   ****     running->setFinished(true);
 555              		.loc 1 75 5
  75:src/tcb.cpp   ****     running->setFinished(true);
 556              		.loc 1 75 25 is_stmt 0
 557 02e0 97040000 		lla	s1,.LANCHOR0
 557      93840400 
 558 02e8 83B78401 		ld	a5,24(s1)
 559              	.LVL51:
 560              	.LBB114:
 561              	.LBB115:
  43:src/../h/tcb.hpp **** 
 562              		.loc 3 43 36 is_stmt 1
  43:src/../h/tcb.hpp **** 
 563              		.loc 3 43 45 is_stmt 0
 564 02ec 13071000 		li	a4,1
 565 02f0 2388E702 		sb	a4,48(a5)
 566              	.LVL52:
GAS LISTING /tmp/cc5R1iUN.s 			page 19


 567              	.LBE115:
 568              	.LBE114:
  77:src/tcb.cpp   ****     memoryAllocator::deallocate(TCB::running->stack_space);
 569              		.loc 1 77 5 is_stmt 1
  77:src/tcb.cpp   ****     memoryAllocator::deallocate(TCB::running->stack_space);
 570              		.loc 1 77 32 is_stmt 0
 571 02f4 03B58701 		ld	a0,24(a5)
 572 02f8 97000000 		call	_ZN15memoryAllocator10deallocateEPv@plt
 572      E7800000 
 573              	.LVL53:
  78:src/tcb.cpp   ****     memoryAllocator::deallocate(TCB::running);
 574              		.loc 1 78 5 is_stmt 1
  78:src/tcb.cpp   ****     memoryAllocator::deallocate(TCB::running);
 575              		.loc 1 78 32 is_stmt 0
 576 0300 03B58401 		ld	a0,24(s1)
 577 0304 97000000 		call	_ZN15memoryAllocator10deallocateEPv@plt
 577      E7800000 
 578              	.LVL54:
  80:src/tcb.cpp   ****     TCB::thread_dispatch();
 579              		.loc 1 80 5 is_stmt 1
  80:src/tcb.cpp   ****     TCB::thread_dispatch();
 580              		.loc 1 80 25 is_stmt 0
 581 030c 97000000 		call	_ZN3TCB15thread_dispatchEv
 581      E7800000 
 582              	.LVL55:
  82:src/tcb.cpp   ****     return 0;
 583              		.loc 1 82 5 is_stmt 1
  85:src/tcb.cpp   **** }
 584              		.loc 1 85 1 is_stmt 0
 585 0314 13050000 		li	a0,0
 586 0318 83308101 		ld	ra,24(sp)
 587              		.cfi_restore 1
 588 031c 03340101 		ld	s0,16(sp)
 589              		.cfi_restore 8
 590              		.cfi_def_cfa 2, 32
 591 0320 83348100 		ld	s1,8(sp)
 592              		.cfi_restore 9
 593 0324 13010102 		addi	sp,sp,32
 594              		.cfi_def_cfa_offset 0
 595 0328 67800000 		jr	ra
 596              		.cfi_endproc
 597              	.LFE60:
 599              		.align	2
 600              		.globl	_ZN3TCB11getThreadIdEv
 602              	_ZN3TCB11getThreadIdEv:
 603              	.LFB61:
  87:src/tcb.cpp   **** int TCB::getThreadId() {
 604              		.loc 1 87 24 is_stmt 1
 605              		.cfi_startproc
 606 032c 130101FF 		addi	sp,sp,-16
 607              		.cfi_def_cfa_offset 16
 608 0330 23348100 		sd	s0,8(sp)
 609              		.cfi_offset 8, -8
 610 0334 13040101 		addi	s0,sp,16
 611              		.cfi_def_cfa 8, 0
  89:src/tcb.cpp   ****     int id = running->getMyID();
 612              		.loc 1 89 5
GAS LISTING /tmp/cc5R1iUN.s 			page 20


 613              	.LVL56:
 614              	.LBB116:
 615              	.LBB117:
  51:src/../h/tcb.hpp **** 
 616              		.loc 3 51 27
 617              	.LBE117:
 618              	.LBE116:
  91:src/tcb.cpp   ****     return id;
 619              		.loc 1 91 5
  92:src/tcb.cpp   **** }
 620              		.loc 1 92 1 is_stmt 0
 621 0338 97070000 		ld	a5,.LANCHOR0+24
 621      83B70700 
 622 0340 03A54703 		lw	a0,52(a5)
 623 0344 03348100 		ld	s0,8(sp)
 624              		.cfi_restore 8
 625              		.cfi_def_cfa 2, 16
 626 0348 13010101 		addi	sp,sp,16
 627              		.cfi_def_cfa_offset 0
 628 034c 67800000 		jr	ra
 629              		.cfi_endproc
 630              	.LFE61:
 632              		.align	2
 633              		.globl	_ZN3TCB11thread_joinEPS_
 635              	_ZN3TCB11thread_joinEPS_:
 636              	.LFB62:
  94:src/tcb.cpp   **** void TCB::thread_join(TCB* handle) {
 637              		.loc 1 94 36 is_stmt 1
 638              		.cfi_startproc
 639              	.LVL57:
  96:src/tcb.cpp   ****     if(!handle->isFinished()) {
 640              		.loc 1 96 5
 641              	.LBB118:
 642              	.LBB119:
  35:src/../h/tcb.hpp **** 
 643              		.loc 3 35 31
  35:src/../h/tcb.hpp **** 
 644              		.loc 3 35 38 is_stmt 0
 645 0350 83470503 		lbu	a5,48(a0)
 646              	.LVL58:
 647              	.LBE119:
 648              	.LBE118:
  96:src/tcb.cpp   ****     if(!handle->isFinished()) {
 649              		.loc 1 96 5
 650 0354 63840700 		beqz	a5,.L38
 651 0358 67800000 		ret
 652              	.L38:
  94:src/tcb.cpp   **** void TCB::thread_join(TCB* handle) {
 653              		.loc 1 94 36
 654 035c 130101FE 		addi	sp,sp,-32
 655              		.cfi_def_cfa_offset 32
 656 0360 233C1100 		sd	ra,24(sp)
 657 0364 23388100 		sd	s0,16(sp)
 658 0368 23349100 		sd	s1,8(sp)
 659 036c 23302101 		sd	s2,0(sp)
 660              		.cfi_offset 1, -8
 661              		.cfi_offset 8, -16
GAS LISTING /tmp/cc5R1iUN.s 			page 21


 662              		.cfi_offset 9, -24
 663              		.cfi_offset 18, -32
 664 0370 13040102 		addi	s0,sp,32
 665              		.cfi_def_cfa 8, 0
 666 0374 93040500 		mv	s1,a0
  97:src/tcb.cpp   ****         handle->suspendedList.addLast(running);
 667              		.loc 1 97 9 is_stmt 1
  97:src/tcb.cpp   ****         handle->suspendedList.addLast(running);
 668              		.loc 1 97 38 is_stmt 0
 669 0378 17090000 		ld	s2,.LANCHOR0+24
 669      03390900 
 670              	.LVL59:
 671              	.LBB120:
 672              	.LBB121:
 673              	.LBB122:
 674              	.LBB123:
  28:src/../h/list.hpp ****         }
 675              		.loc 2 28 45
 676 0380 13051000 		li	a0,1
 677              	.LVL60:
 678 0384 97000000 		call	_ZN15memoryAllocator8allocateEm@plt
 678      E7800000 
 679              	.LVL61:
 680              	.LBE123:
 681              	.LBE122:
 682              	.LBB124:
 683              	.LBB125:
  20:src/../h/list.hpp **** 
 684              		.loc 2 20 58
 685 038c 23302501 		sd	s2,0(a0)
 686 0390 23340500 		sd	zero,8(a0)
 687              	.LVL62:
 688              	.LBE125:
 689              	.LBE124:
  76:src/../h/list.hpp ****             tail->next = elem;
 690              		.loc 2 76 13
 691 0394 83B70404 		ld	a5,64(s1)
  76:src/../h/list.hpp ****             tail->next = elem;
 692              		.loc 2 76 9
 693 0398 638E0702 		beqz	a5,.L32
  77:src/../h/list.hpp **** 
 694              		.loc 2 77 13
 695 039c 23B4A700 		sd	a0,8(a5)
  79:src/../h/list.hpp ****         } else {
 696              		.loc 2 79 13
 697 03a0 23B0A404 		sd	a0,64(s1)
 698              	.L33:
 699              	.LVL63:
 700              	.LBE121:
 701              	.LBE120:
  99:src/tcb.cpp   ****         running->setSuspended(true);
 702              		.loc 1 99 9 is_stmt 1
 703              	.LBB127:
 704              	.LBB128:
  47:src/../h/tcb.hpp **** 
 705              		.loc 3 47 37
  47:src/../h/tcb.hpp **** 
GAS LISTING /tmp/cc5R1iUN.s 			page 22


 706              		.loc 3 47 47 is_stmt 0
 707 03a4 97070000 		ld	a5,.LANCHOR0+24
 707      83B70700 
 708 03ac 13071000 		li	a4,1
 709 03b0 2389E702 		sb	a4,50(a5)
 710              	.LVL64:
 711              	.LBE128:
 712              	.LBE127:
 101:src/tcb.cpp   ****         TCB::thread_dispatch();
 713              		.loc 1 101 9 is_stmt 1
 101:src/tcb.cpp   ****         TCB::thread_dispatch();
 714              		.loc 1 101 29 is_stmt 0
 715 03b4 97000000 		call	_ZN3TCB15thread_dispatchEv
 715      E7800000 
 716              	.LVL65:
 103:src/tcb.cpp   **** }
 717              		.loc 1 103 1
 718 03bc 83308101 		ld	ra,24(sp)
 719              		.cfi_remember_state
 720              		.cfi_restore 1
 721 03c0 03340101 		ld	s0,16(sp)
 722              		.cfi_restore 8
 723              		.cfi_def_cfa 2, 32
 724 03c4 83348100 		ld	s1,8(sp)
 725              		.cfi_restore 9
 726              	.LVL66:
 727 03c8 03390100 		ld	s2,0(sp)
 728              		.cfi_restore 18
 729 03cc 13010102 		addi	sp,sp,32
 730              		.cfi_def_cfa_offset 0
 731 03d0 67800000 		jr	ra
 732              	.LVL67:
 733              	.L32:
 734              		.cfi_restore_state
 735              	.LBB129:
 736              	.LBB126:
  81:src/../h/list.hpp **** 
 737              		.loc 2 81 13
 738 03d4 23B0A404 		sd	a0,64(s1)
 739 03d8 23BCA402 		sd	a0,56(s1)
 740 03dc 6FF09FFC 		j	.L33
 741              	.LBE126:
 742              	.LBE129:
 743              		.cfi_endproc
 744              	.LFE62:
 746              		.align	2
 747              		.globl	_ZN3TCB6reliseEv
 749              	_ZN3TCB6reliseEv:
 750              	.LFB63:
 105:src/tcb.cpp   **** void TCB::relise() {
 751              		.loc 1 105 20 is_stmt 1
 752              		.cfi_startproc
 753              	.LVL68:
 754 03e0 130101FE 		addi	sp,sp,-32
 755              		.cfi_def_cfa_offset 32
 756 03e4 233C1100 		sd	ra,24(sp)
 757 03e8 23388100 		sd	s0,16(sp)
GAS LISTING /tmp/cc5R1iUN.s 			page 23


 758 03ec 23349100 		sd	s1,8(sp)
 759 03f0 23302101 		sd	s2,0(sp)
 760              		.cfi_offset 1, -8
 761              		.cfi_offset 8, -16
 762              		.cfi_offset 9, -24
 763              		.cfi_offset 18, -32
 764 03f4 13040102 		addi	s0,sp,32
 765              		.cfi_def_cfa 8, 0
 766 03f8 13090500 		mv	s2,a0
 767 03fc 6F004002 		j	.L42
 768              	.LVL69:
 769              	.L44:
 770              	.LBB130:
 771              	.LBB131:
 772              	.LBB132:
  92:src/../h/list.hpp **** 
 773              		.loc 2 92 22 is_stmt 0
 774 0400 23300904 		sd	zero,64(s2)
 775              	.L41:
  94:src/../h/list.hpp ****         delete elem;
 776              		.loc 2 94 12
 777 0404 83340500 		ld	s1,0(a0)
 778              	.LVL70:
 779              	.LBB133:
 780              	.LBB134:
  40:src/../h/list.hpp ****         }
 781              		.loc 2 40 40
 782 0408 97000000 		call	_ZN15memoryAllocator10deallocateEPv@plt
 782      E7800000 
 783              	.LVL71:
 784              	.LBE134:
 785              	.LBE133:
 786              	.LBE132:
 787              	.LBE131:
 108:src/tcb.cpp   ****         un->setSuspended(false);
 788              		.loc 1 108 9 is_stmt 1
 789              	.LBB136:
 790              	.LBB137:
  47:src/../h/tcb.hpp **** 
 791              		.loc 3 47 37
  47:src/../h/tcb.hpp **** 
 792              		.loc 3 47 47 is_stmt 0
 793 0410 23890402 		sb	zero,50(s1)
 794              	.LVL72:
 795              	.LBE137:
 796              	.LBE136:
 109:src/tcb.cpp   ****         Scheduler::put(un);
 797              		.loc 1 109 9 is_stmt 1
 109:src/tcb.cpp   ****         Scheduler::put(un);
 798              		.loc 1 109 23 is_stmt 0
 799 0414 13850400 		mv	a0,s1
 800 0418 97000000 		call	_ZN9Scheduler3putEP3TCB@plt
 800      E7800000 
 801              	.LVL73:
 802              	.L42:
 803              	.LBE130:
 106:src/tcb.cpp   ****     while(this->suspendedList.peekFirst()) {
GAS LISTING /tmp/cc5R1iUN.s 			page 24


 804              		.loc 1 106 5 is_stmt 1
 106:src/tcb.cpp   ****     while(this->suspendedList.peekFirst()) {
 805              		.loc 1 106 41
 806              	.LBB139:
 807              	.LBB140:
 101:src/../h/list.hpp ****         return head->data;
 808              		.loc 2 101 14 is_stmt 0
 809 0420 03358903 		ld	a0,56(s2)
 101:src/../h/list.hpp ****         return head->data;
 810              		.loc 2 101 9
 811 0424 630E0500 		beqz	a0,.L39
 812              		.loc 2 102 22
 813 0428 83370500 		ld	a5,0(a0)
 814              	.LVL74:
 815              	.LBE140:
 816              	.LBE139:
 106:src/tcb.cpp   ****     while(this->suspendedList.peekFirst()) {
 817              		.loc 1 106 41
 818 042c 638A0700 		beqz	a5,.L39
 819              	.LBB141:
 107:src/tcb.cpp   ****         TCB* un = suspendedList.removeFirst();
 820              		.loc 1 107 9 is_stmt 1
 821              	.LVL75:
 822              	.LBB138:
 823              	.LBB135:
  91:src/../h/list.hpp ****         if (!head) { tail = 0; }
 824              		.loc 2 91 22 is_stmt 0
 825 0430 83378500 		ld	a5,8(a0)
  91:src/../h/list.hpp ****         if (!head) { tail = 0; }
 826              		.loc 2 91 9
 827 0434 233CF902 		sd	a5,56(s2)
  92:src/../h/list.hpp **** 
 828              		.loc 2 92 9
 829 0438 E39607FC 		bnez	a5,.L41
 830 043c 6FF05FFC 		j	.L44
 831              	.LVL76:
 832              	.L39:
 833              	.LBE135:
 834              	.LBE138:
 835              	.LBE141:
 111:src/tcb.cpp   **** }
 836              		.loc 1 111 1
 837 0440 83308101 		ld	ra,24(sp)
 838              		.cfi_restore 1
 839 0444 03340101 		ld	s0,16(sp)
 840              		.cfi_restore 8
 841              		.cfi_def_cfa 2, 32
 842 0448 83348100 		ld	s1,8(sp)
 843              		.cfi_restore 9
 844 044c 03390100 		ld	s2,0(sp)
 845              		.cfi_restore 18
 846              	.LVL77:
 847 0450 13010102 		addi	sp,sp,32
 848              		.cfi_def_cfa_offset 0
 849 0454 67800000 		jr	ra
 850              		.cfi_endproc
 851              	.LFE63:
GAS LISTING /tmp/cc5R1iUN.s 			page 25


 853              		.align	2
 854              		.globl	_ZN3TCB13threadWrapperEv
 856              	_ZN3TCB13threadWrapperEv:
 857              	.LFB64:
 113:src/tcb.cpp   **** void TCB::threadWrapper() {
 858              		.loc 1 113 27 is_stmt 1
 859              		.cfi_startproc
 860 0458 130101FE 		addi	sp,sp,-32
 861              		.cfi_def_cfa_offset 32
 862 045c 233C1100 		sd	ra,24(sp)
 863 0460 23388100 		sd	s0,16(sp)
 864 0464 23349100 		sd	s1,8(sp)
 865              		.cfi_offset 1, -8
 866              		.cfi_offset 8, -16
 867              		.cfi_offset 9, -24
 868 0468 13040102 		addi	s0,sp,32
 869              		.cfi_def_cfa 8, 0
 116:src/tcb.cpp   ****     Riscv::popSppSpie();
 870              		.loc 1 116 5
 116:src/tcb.cpp   ****     Riscv::popSppSpie();
 871              		.loc 1 116 22 is_stmt 0
 872 046c 97000000 		call	_ZN5Riscv10popSppSpieEv@plt
 872      E7800000 
 873              	.LVL78:
 117:src/tcb.cpp   ****     running->start_routine(running->arg);
 874              		.loc 1 117 5 is_stmt 1
 117:src/tcb.cpp   ****     running->start_routine(running->arg);
 875              		.loc 1 117 14 is_stmt 0
 876 0474 97040000 		lla	s1,.LANCHOR0
 876      93840400 
 877 047c 83B78401 		ld	a5,24(s1)
 878 0480 03B78700 		ld	a4,8(a5)
 117:src/tcb.cpp   ****     running->start_routine(running->arg);
 879              		.loc 1 117 27
 880 0484 03B50701 		ld	a0,16(a5)
 881 0488 E7000700 		jalr	a4
 882              	.LVL79:
 118:src/tcb.cpp   ****     running->setFinished(true);
 883              		.loc 1 118 5 is_stmt 1
 118:src/tcb.cpp   ****     running->setFinished(true);
 884              		.loc 1 118 25 is_stmt 0
 885 048c 03B58401 		ld	a0,24(s1)
 886              	.LVL80:
 887              	.LBB142:
 888              	.LBB143:
  43:src/../h/tcb.hpp **** 
 889              		.loc 3 43 36 is_stmt 1
  43:src/../h/tcb.hpp **** 
 890              		.loc 3 43 45 is_stmt 0
 891 0490 93071000 		li	a5,1
 892 0494 2308F502 		sb	a5,48(a0)
 893              	.LVL81:
 894              	.LBE143:
 895              	.LBE142:
 121:src/tcb.cpp   ****     running->relise();
 896              		.loc 1 121 5 is_stmt 1
 121:src/tcb.cpp   ****     running->relise();
GAS LISTING /tmp/cc5R1iUN.s 			page 26


 897              		.loc 1 121 20 is_stmt 0
 898 0498 97000000 		call	_ZN3TCB6reliseEv
 898      E7800000 
 899              	.LVL82:
 123:src/tcb.cpp   ****     memoryAllocator::deallocate(TCB::running->stack_space);
 900              		.loc 1 123 5 is_stmt 1
 123:src/tcb.cpp   ****     memoryAllocator::deallocate(TCB::running->stack_space);
 901              		.loc 1 123 32 is_stmt 0
 902 04a0 83B78401 		ld	a5,24(s1)
 903 04a4 03B58701 		ld	a0,24(a5)
 904 04a8 97000000 		call	_ZN15memoryAllocator10deallocateEPv@plt
 904      E7800000 
 905              	.LVL83:
 124:src/tcb.cpp   ****     memoryAllocator::deallocate(TCB::running);
 906              		.loc 1 124 5 is_stmt 1
 124:src/tcb.cpp   ****     memoryAllocator::deallocate(TCB::running);
 907              		.loc 1 124 32 is_stmt 0
 908 04b0 03B58401 		ld	a0,24(s1)
 909 04b4 97000000 		call	_ZN15memoryAllocator10deallocateEPv@plt
 909      E7800000 
 910              	.LVL84:
 125:src/tcb.cpp   ****     TCB::thread_dispatch();
 911              		.loc 1 125 5 is_stmt 1
 125:src/tcb.cpp   ****     TCB::thread_dispatch();
 912              		.loc 1 125 25 is_stmt 0
 913 04bc 97000000 		call	_ZN3TCB15thread_dispatchEv
 913      E7800000 
 914              	.LVL85:
 127:src/tcb.cpp   **** }
 915              		.loc 1 127 1
 916 04c4 83308101 		ld	ra,24(sp)
 917              		.cfi_restore 1
 918 04c8 03340101 		ld	s0,16(sp)
 919              		.cfi_restore 8
 920              		.cfi_def_cfa 2, 32
 921 04cc 83348100 		ld	s1,8(sp)
 922              		.cfi_restore 9
 923 04d0 13010102 		addi	sp,sp,32
 924              		.cfi_def_cfa_offset 0
 925 04d4 67800000 		jr	ra
 926              		.cfi_endproc
 927              	.LFE64:
 929              		.align	2
 930              		.globl	_ZN7Barrier4openEv
 932              	_ZN7Barrier4openEv:
 933              	.LFB65:
 129:src/tcb.cpp   **** void Barrier::open() {
 934              		.loc 1 129 22 is_stmt 1
 935              		.cfi_startproc
 936              	.LVL86:
 130:src/tcb.cpp   ****     key = 1; if(owner->isBarriered()) {
 937              		.loc 1 130 5
 130:src/tcb.cpp   ****     key = 1; if(owner->isBarriered()) {
 938              		.loc 1 130 9 is_stmt 0
 939 04d8 93071000 		li	a5,1
 940 04dc 2324F500 		sw	a5,8(a0)
 130:src/tcb.cpp   ****     key = 1; if(owner->isBarriered()) {
GAS LISTING /tmp/cc5R1iUN.s 			page 27


 941              		.loc 1 130 14 is_stmt 1
 130:src/tcb.cpp   ****     key = 1; if(owner->isBarriered()) {
 942              		.loc 1 130 17 is_stmt 0
 943 04e0 83370500 		ld	a5,0(a0)
 944              	.LVL87:
 945              	.LBB144:
 946              	.LBB145:
  41:src/../h/tcb.hpp **** 
 947              		.loc 3 41 32 is_stmt 1
  41:src/../h/tcb.hpp **** 
 948              		.loc 3 41 39 is_stmt 0
 949 04e4 03C73703 		lbu	a4,51(a5)
 950              	.LVL88:
 951              	.LBE145:
 952              	.LBE144:
 130:src/tcb.cpp   ****     key = 1; if(owner->isBarriered()) {
 953              		.loc 1 130 14
 954 04e8 63140700 		bnez	a4,.L53
 955 04ec 67800000 		ret
 956              	.L53:
 129:src/tcb.cpp   **** void Barrier::open() {
 957              		.loc 1 129 22
 958 04f0 130101FF 		addi	sp,sp,-16
 959              		.cfi_def_cfa_offset 16
 960 04f4 23341100 		sd	ra,8(sp)
 961 04f8 23308100 		sd	s0,0(sp)
 962              		.cfi_offset 1, -8
 963              		.cfi_offset 8, -16
 964 04fc 13040101 		addi	s0,sp,16
 965              		.cfi_def_cfa 8, 0
 131:src/tcb.cpp   ****         owner->setBarriered(false);
 966              		.loc 1 131 9 is_stmt 1
 967              	.LVL89:
 968              	.LBB146:
 969              	.LBB147:
  49:src/../h/tcb.hpp **** 
 970              		.loc 3 49 37
  49:src/../h/tcb.hpp **** 
 971              		.loc 3 49 47 is_stmt 0
 972 0500 A3890702 		sb	zero,51(a5)
 973              	.LVL90:
 974              	.LBE147:
 975              	.LBE146:
 132:src/tcb.cpp   ****         Scheduler::put(owner);
 976              		.loc 1 132 9 is_stmt 1
 132:src/tcb.cpp   ****         Scheduler::put(owner);
 977              		.loc 1 132 23 is_stmt 0
 978 0504 03350500 		ld	a0,0(a0)
 979              	.LVL91:
 980 0508 97000000 		call	_ZN9Scheduler3putEP3TCB@plt
 980      E7800000 
 981              	.LVL92:
 982              		.loc 1 134 1
 983 0510 83308100 		ld	ra,8(sp)
 984              		.cfi_restore 1
 985 0514 03340100 		ld	s0,0(sp)
 986              		.cfi_restore 8
GAS LISTING /tmp/cc5R1iUN.s 			page 28


 987              		.cfi_def_cfa 2, 16
 988 0518 13010101 		addi	sp,sp,16
 989              		.cfi_def_cfa_offset 0
 990 051c 67800000 		jr	ra
 991              		.cfi_endproc
 992              	.LFE65:
 994              		.align	2
 996              	_GLOBAL__sub_I__ZN3TCB7runningE:
 997              	.LFB78:
 998              		.loc 1 134 1 is_stmt 1
 999              		.cfi_startproc
 1000 0520 130101FF 		addi	sp,sp,-16
 1001              		.cfi_def_cfa_offset 16
 1002 0524 23341100 		sd	ra,8(sp)
 1003 0528 23308100 		sd	s0,0(sp)
 1004              		.cfi_offset 1, -8
 1005              		.cfi_offset 8, -16
 1006 052c 13040101 		addi	s0,sp,16
 1007              		.cfi_def_cfa 8, 0
 1008              		.loc 1 134 1 is_stmt 0
 1009 0530 B7050100 		li	a1,65536
 1010 0534 9385F5FF 		addi	a1,a1,-1
 1011 0538 13051000 		li	a0,1
 1012 053c 97000000 		call	_Z41__static_initialization_and_destruction_0ii
 1012      E7800000 
 1013              	.LVL93:
 1014 0544 83308100 		ld	ra,8(sp)
 1015              		.cfi_restore 1
 1016 0548 03340100 		ld	s0,0(sp)
 1017              		.cfi_restore 8
 1018              		.cfi_def_cfa 2, 16
 1019 054c 13010101 		addi	sp,sp,16
 1020              		.cfi_def_cfa_offset 0
 1021 0550 67800000 		jr	ra
 1022              		.cfi_endproc
 1023              	.LFE78:
 1025              		.section	.init_array,"aw"
 1026              		.align	3
 1027 0000 00000000 		.dword	_GLOBAL__sub_I__ZN3TCB7runningE
 1027      00000000 
 1028              		.globl	_ZN3TCB8capacityE
 1029              		.globl	_ZN3TCB6activeE
 1030              		.globl	_ZN3TCB3maxE
 1031              		.globl	_ZN3TCB2idE
 1032              		.globl	_ZN3TCB7runningE
 1033              		.data
 1034              		.align	2
 1035              		.set	.LANCHOR1,. + 0
 1038              	_ZN3TCB6activeE:
 1039 0000 02000000 		.word	2
 1040              		.bss
 1041              		.align	3
 1042              		.set	.LANCHOR0,. + 0
 1045              	_ZN3TCB8capacityE:
 1046 0000 00000000 		.zero	16
 1046      00000000 
 1046      00000000 
GAS LISTING /tmp/cc5R1iUN.s 			page 29


 1046      00000000 
 1049              	_ZN3TCB2idE:
 1050 0010 00000000 		.zero	4
 1051 0014 00000000 		.zero	4
 1054              	_ZN3TCB7runningE:
 1055 0018 00000000 		.zero	8
 1055      00000000 
 1058              	_ZN3TCB3maxE:
 1059 0020 00000000 		.zero	4
 1060              		.text
 1061              	.Letext0:
 1062              		.file 4 "src/../h/../lib/hw.h"
 1063              		.file 5 "src/../h/memoryAllocator.hpp"
 1064              		.file 6 "src/../h/riscv.hpp"
 1065              		.file 7 "src/../h/scheduler.hpp"
 1066              		.file 8 "src/../h/syscall_codes.h"
 6142              		.align	3
 6145              	DW.ref.__gxx_personality_v0:
 6146 0000 00000000 		.dword	__gxx_personality_v0
 6146      00000000 
 6147              		.ident	"GCC: (Ubuntu 9.4.0-1ubuntu1~20.04) 9.4.0"
 6148              		.section	.note.GNU-stack,"",@progbits
GAS LISTING /tmp/cc5R1iUN.s 			page 30


DEFINED SYMBOLS
                            *ABS*:0000000000000000 tcb.cpp
     /tmp/cc5R1iUN.s:8      .text:0000000000000000 _Z41__static_initialization_and_destruction_0ii
     /tmp/cc5R1iUN.s:12     .text:0000000000000000 .L0 
     /tmp/cc5R1iUN.s:14     .text:0000000000000000 .L0 
     /tmp/cc5R1iUN.s:15     .text:0000000000000004 .L0 
     /tmp/cc5R1iUN.s:17     .text:0000000000000008 .L0 
     /tmp/cc5R1iUN.s:19     .text:000000000000000c .L0 
     /tmp/cc5R1iUN.s:21     .text:000000000000000c .L0 
     /tmp/cc5R1iUN.s:25     .text:0000000000000018 .L0 
     /tmp/cc5R1iUN.s:26     .text:0000000000000018 .L0 
     /tmp/cc5R1iUN.s:27     .text:0000000000000018 .L0 
     /tmp/cc5R1iUN.s:29     .text:000000000000001c .L0 
     /tmp/cc5R1iUN.s:32     .text:0000000000000020 .L0 
     /tmp/cc5R1iUN.s:34     .text:0000000000000020 .L0 
     /tmp/cc5R1iUN.s:43     .text:000000000000002c .L0 
     /tmp/cc5R1iUN.s:51     .text:000000000000003c .L0 
     /tmp/cc5R1iUN.s:52     .text:0000000000000040 .L0 
     /tmp/cc5R1iUN.s:58     .text:0000000000000040 _ZN3TCBC2EPFvPvES0_S0_
     /tmp/cc5R1iUN.s:61     .text:0000000000000040 .L0 
     /tmp/cc5R1iUN.s:63     .text:0000000000000040 .L0 
     /tmp/cc5R1iUN.s:64     .text:0000000000000044 .L0 
     /tmp/cc5R1iUN.s:71     .text:000000000000005c .L0 
     /tmp/cc5R1iUN.s:72     .text:000000000000005c .L0 
     /tmp/cc5R1iUN.s:73     .text:000000000000005c .L0 
     /tmp/cc5R1iUN.s:74     .text:000000000000005c .L0 
     /tmp/cc5R1iUN.s:75     .text:000000000000005c .L0 
     /tmp/cc5R1iUN.s:76     .text:000000000000005c .L0 
     /tmp/cc5R1iUN.s:78     .text:0000000000000060 .L0 
     /tmp/cc5R1iUN.s:85     .text:0000000000000070 .L0 
     /tmp/cc5R1iUN.s:93     .text:000000000000007c .L0 
     /tmp/cc5R1iUN.s:94     .text:000000000000007c .L0 
     /tmp/cc5R1iUN.s:100    .text:0000000000000084 .L0 
     /tmp/cc5R1iUN.s:101    .text:0000000000000084 .L0 
     /tmp/cc5R1iUN.s:105    .text:0000000000000090 .L0 
     /tmp/cc5R1iUN.s:109    .text:0000000000000098 .L0 
     /tmp/cc5R1iUN.s:856    .text:0000000000000458 _ZN3TCB13threadWrapperEv
     /tmp/cc5R1iUN.s:113    .text:00000000000000a8 .L0 
     /tmp/cc5R1iUN.s:115    .text:00000000000000ac .L0 
     /tmp/cc5R1iUN.s:120    .text:00000000000000b4 .L0 
     /tmp/cc5R1iUN.s:126    .text:00000000000000c8 .L0 
     /tmp/cc5R1iUN.s:131    .text:00000000000000dc .L0 
     /tmp/cc5R1iUN.s:136    .text:00000000000000e0 .L0 
     /tmp/cc5R1iUN.s:143    .text:00000000000000e8 .L0 
     /tmp/cc5R1iUN.s:144    .text:00000000000000ec .L0 
     /tmp/cc5R1iUN.s:145    .text:00000000000000ec .L0 
     /tmp/cc5R1iUN.s:147    .text:00000000000000f0 .L0 
     /tmp/cc5R1iUN.s:148    .text:00000000000000f0 .L0 
     /tmp/cc5R1iUN.s:150    .text:00000000000000f4 .L0 
     /tmp/cc5R1iUN.s:153    .text:00000000000000f8 .L0 
     /tmp/cc5R1iUN.s:155    .text:00000000000000fc .L0 
     /tmp/cc5R1iUN.s:158    .text:0000000000000100 .L0 
     /tmp/cc5R1iUN.s:161    .text:0000000000000104 .L0 
     /tmp/cc5R1iUN.s:165    .text:0000000000000108 .L0 
     /tmp/cc5R1iUN.s:168    .text:0000000000000108 .L0 
     /tmp/cc5R1iUN.s:172    .text:0000000000000110 .L0 
     /tmp/cc5R1iUN.s:176    .text:0000000000000118 .L0 
GAS LISTING /tmp/cc5R1iUN.s 			page 31


     /tmp/cc5R1iUN.s:58     .text:0000000000000040 _ZN3TCBC1EPFvPvES0_S0_
     /tmp/cc5R1iUN.s:184    .text:0000000000000118 _ZN3TCB13thread_createEPFvPvES0_S0_
     /tmp/cc5R1iUN.s:187    .text:0000000000000118 .L0 
     /tmp/cc5R1iUN.s:6145   .data.rel.local.DW.ref.__gxx_personality_v0:0000000000000000 DW.ref.__gxx_personality_v0
     /tmp/cc5R1iUN.s:191    .text:0000000000000118 .L0 
     /tmp/cc5R1iUN.s:192    .text:000000000000011c .L0 
     /tmp/cc5R1iUN.s:199    .text:0000000000000134 .L0 
     /tmp/cc5R1iUN.s:200    .text:0000000000000134 .L0 
     /tmp/cc5R1iUN.s:201    .text:0000000000000134 .L0 
     /tmp/cc5R1iUN.s:202    .text:0000000000000134 .L0 
     /tmp/cc5R1iUN.s:203    .text:0000000000000134 .L0 
     /tmp/cc5R1iUN.s:204    .text:0000000000000134 .L0 
     /tmp/cc5R1iUN.s:206    .text:0000000000000138 .L0 
     /tmp/cc5R1iUN.s:214    .text:0000000000000144 .L0 
     /tmp/cc5R1iUN.s:215    .text:0000000000000144 .L0 
     /tmp/cc5R1iUN.s:216    .text:0000000000000144 .L0 
     /tmp/cc5R1iUN.s:217    .text:0000000000000144 .L0 
     /tmp/cc5R1iUN.s:218    .text:0000000000000144 .L0 
     /tmp/cc5R1iUN.s:219    .text:0000000000000144 .L0 
     /tmp/cc5R1iUN.s:230    .text:0000000000000154 .L0 
     /tmp/cc5R1iUN.s:244    .text:0000000000000170 .L0 
     /tmp/cc5R1iUN.s:245    .text:0000000000000170 .L0 
     /tmp/cc5R1iUN.s:257    .text:0000000000000188 .L0 
     /tmp/cc5R1iUN.s:259    .text:0000000000000190 .L0 
     /tmp/cc5R1iUN.s:261    .text:0000000000000194 .L0 
     /tmp/cc5R1iUN.s:262    .text:0000000000000194 .L0 
     /tmp/cc5R1iUN.s:264    .text:0000000000000198 .L0 
     /tmp/cc5R1iUN.s:266    .text:000000000000019c .L0 
     /tmp/cc5R1iUN.s:269    .text:00000000000001a0 .L0 
     /tmp/cc5R1iUN.s:272    .text:00000000000001a4 .L0 
     /tmp/cc5R1iUN.s:275    .text:00000000000001a8 .L0 
     /tmp/cc5R1iUN.s:277    .text:00000000000001ac .L0 
     /tmp/cc5R1iUN.s:303    .text:00000000000001ac _ZN3TCB5yieldEv
     /tmp/cc5R1iUN.s:306    .text:00000000000001ac .L0 
     /tmp/cc5R1iUN.s:307    .text:00000000000001ac .L0 
     /tmp/cc5R1iUN.s:308    .text:00000000000001b0 .L0 
     /tmp/cc5R1iUN.s:310    .text:00000000000001b4 .L0 
     /tmp/cc5R1iUN.s:312    .text:00000000000001b8 .L0 
     /tmp/cc5R1iUN.s:314    .text:00000000000001b8 .L0 
     /tmp/cc5R1iUN.s:315    .text:00000000000001b8 .L0 
     /tmp/cc5R1iUN.s:321    .text:00000000000001c0 .L0 
         src/tcb.cpp:50     .text:00000000000001c0 .L0 
     /tmp/cc5R1iUN.s:327    .text:00000000000001c4 .L0 
     /tmp/cc5R1iUN.s:328    .text:00000000000001c8 .L0 
     /tmp/cc5R1iUN.s:329    .text:00000000000001c8 .L0 
     /tmp/cc5R1iUN.s:331    .text:00000000000001cc .L0 
     /tmp/cc5R1iUN.s:333    .text:00000000000001d0 .L0 
     /tmp/cc5R1iUN.s:339    .text:00000000000001d0 _ZN3TCB15thread_dispatchEv
     /tmp/cc5R1iUN.s:342    .text:00000000000001d0 .L0 
     /tmp/cc5R1iUN.s:343    .text:00000000000001d0 .L0 
     /tmp/cc5R1iUN.s:344    .text:00000000000001d4 .L0 
     /tmp/cc5R1iUN.s:349    .text:00000000000001e4 .L0 
     /tmp/cc5R1iUN.s:350    .text:00000000000001e4 .L0 
     /tmp/cc5R1iUN.s:351    .text:00000000000001e4 .L0 
     /tmp/cc5R1iUN.s:352    .text:00000000000001e4 .L0 
     /tmp/cc5R1iUN.s:354    .text:00000000000001e8 .L0 
     /tmp/cc5R1iUN.s:356    .text:00000000000001e8 .L0 
GAS LISTING /tmp/cc5R1iUN.s 			page 32


     /tmp/cc5R1iUN.s:357    .text:00000000000001e8 .L0 
     /tmp/cc5R1iUN.s:362    .text:00000000000001f0 .L0 
     /tmp/cc5R1iUN.s:363    .text:00000000000001f0 .L0 
     /tmp/cc5R1iUN.s:364    .text:00000000000001f0 .L0 
     /tmp/cc5R1iUN.s:369    .text:00000000000001f4 .L0 
     /tmp/cc5R1iUN.s:374    .text:00000000000001f8 .L0 
     /tmp/cc5R1iUN.s:375    .text:00000000000001f8 .L0 
     /tmp/cc5R1iUN.s:380    .text:00000000000001fc .L0 
     /tmp/cc5R1iUN.s:385    .text:0000000000000200 .L0 
     /tmp/cc5R1iUN.s:386    .text:0000000000000200 .L0 
     /tmp/cc5R1iUN.s:391    .text:0000000000000204 .L0 
     /tmp/cc5R1iUN.s:396    .text:0000000000000208 .L0 
     /tmp/cc5R1iUN.s:397    .text:0000000000000208 .L0 
     /tmp/cc5R1iUN.s:402    .text:000000000000020c .L0 
     /tmp/cc5R1iUN.s:408    .text:0000000000000210 .L0 
     /tmp/cc5R1iUN.s:409    .text:0000000000000210 .L0 
     /tmp/cc5R1iUN.s:410    .text:0000000000000210 .L0 
     /tmp/cc5R1iUN.s:415    .text:0000000000000214 .L0 
     /tmp/cc5R1iUN.s:419    .text:0000000000000218 .L0 
     /tmp/cc5R1iUN.s:420    .text:0000000000000218 .L0 
     /tmp/cc5R1iUN.s:421    .text:0000000000000218 .L0 
     /tmp/cc5R1iUN.s:426    .text:0000000000000224 .L0 
     /tmp/cc5R1iUN.s:432    .text:000000000000022c .L0 
     /tmp/cc5R1iUN.s:433    .text:000000000000022c .L0 
     /tmp/cc5R1iUN.s:438    .text:0000000000000230 .L0 
     /tmp/cc5R1iUN.s:441    .text:0000000000000230 .L0 
     /tmp/cc5R1iUN.s:442    .text:0000000000000230 .L0 
     /tmp/cc5R1iUN.s:443    .text:0000000000000230 .L0 
     /tmp/cc5R1iUN.s:447    .text:0000000000000238 .L0 
     /tmp/cc5R1iUN.s:452    .text:000000000000023c .L0 
     /tmp/cc5R1iUN.s:454    .text:0000000000000244 .L0 
     /tmp/cc5R1iUN.s:456    .text:0000000000000248 .L0 
     /tmp/cc5R1iUN.s:461    .text:000000000000024c .L0 
     /tmp/cc5R1iUN.s:466    .text:0000000000000250 .L0 
     /tmp/cc5R1iUN.s:467    .text:0000000000000250 .L0 
     /tmp/cc5R1iUN.s:469    .text:0000000000000254 .L0 
     /tmp/cc5R1iUN.s:471    .text:000000000000025c .L0 
     /tmp/cc5R1iUN.s:474    .text:0000000000000260 .L0 
     /tmp/cc5R1iUN.s:479    .text:0000000000000264 .L0 
     /tmp/cc5R1iUN.s:486    .text:000000000000026c .L0 
     /tmp/cc5R1iUN.s:491    .text:0000000000000278 .L0 
     /tmp/cc5R1iUN.s:492    .text:0000000000000278 .L0 
     /tmp/cc5R1iUN.s:495    .text:0000000000000280 .L0 
     /tmp/cc5R1iUN.s:497    .text:0000000000000288 .L0 
     /tmp/cc5R1iUN.s:498    .text:0000000000000288 .L0 
     /tmp/cc5R1iUN.s:503    .text:0000000000000298 .L0 
     /tmp/cc5R1iUN.s:504    .text:000000000000029c .L0 
     /tmp/cc5R1iUN.s:505    .text:000000000000029c .L0 
     /tmp/cc5R1iUN.s:507    .text:00000000000002a0 .L0 
     /tmp/cc5R1iUN.s:508    .text:00000000000002a0 .L0 
     /tmp/cc5R1iUN.s:510    .text:00000000000002a4 .L0 
     /tmp/cc5R1iUN.s:513    .text:00000000000002a8 .L0 
     /tmp/cc5R1iUN.s:515    .text:00000000000002ac .L0 
     /tmp/cc5R1iUN.s:519    .text:00000000000002b0 .L0 
     /tmp/cc5R1iUN.s:521    .text:00000000000002b0 .L0 
     /tmp/cc5R1iUN.s:522    .text:00000000000002b0 .L0 
     /tmp/cc5R1iUN.s:531    .text:00000000000002c0 .L0 
GAS LISTING /tmp/cc5R1iUN.s 			page 33


     /tmp/cc5R1iUN.s:535    .text:00000000000002cc .L0 
     /tmp/cc5R1iUN.s:541    .text:00000000000002cc _ZN3TCB11thread_exitEv
     /tmp/cc5R1iUN.s:544    .text:00000000000002cc .L0 
     /tmp/cc5R1iUN.s:545    .text:00000000000002cc .L0 
     /tmp/cc5R1iUN.s:546    .text:00000000000002d0 .L0 
     /tmp/cc5R1iUN.s:550    .text:00000000000002dc .L0 
     /tmp/cc5R1iUN.s:551    .text:00000000000002dc .L0 
     /tmp/cc5R1iUN.s:552    .text:00000000000002dc .L0 
     /tmp/cc5R1iUN.s:554    .text:00000000000002e0 .L0 
     /tmp/cc5R1iUN.s:556    .text:00000000000002e0 .L0 
     /tmp/cc5R1iUN.s:557    .text:00000000000002e0 .L0 
     /tmp/cc5R1iUN.s:563    .text:00000000000002ec .L0 
     /tmp/cc5R1iUN.s:564    .text:00000000000002ec .L0 
     /tmp/cc5R1iUN.s:570    .text:00000000000002f4 .L0 
     /tmp/cc5R1iUN.s:571    .text:00000000000002f4 .L0 
     /tmp/cc5R1iUN.s:575    .text:0000000000000300 .L0 
     /tmp/cc5R1iUN.s:576    .text:0000000000000300 .L0 
     /tmp/cc5R1iUN.s:580    .text:000000000000030c .L0 
     /tmp/cc5R1iUN.s:581    .text:000000000000030c .L0 
     /tmp/cc5R1iUN.s:584    .text:0000000000000314 .L0 
     /tmp/cc5R1iUN.s:585    .text:0000000000000314 .L0 
     /tmp/cc5R1iUN.s:587    .text:000000000000031c .L0 
     /tmp/cc5R1iUN.s:589    .text:0000000000000320 .L0 
     /tmp/cc5R1iUN.s:590    .text:0000000000000320 .L0 
     /tmp/cc5R1iUN.s:592    .text:0000000000000324 .L0 
     /tmp/cc5R1iUN.s:594    .text:0000000000000328 .L0 
     /tmp/cc5R1iUN.s:596    .text:000000000000032c .L0 
     /tmp/cc5R1iUN.s:602    .text:000000000000032c _ZN3TCB11getThreadIdEv
     /tmp/cc5R1iUN.s:605    .text:000000000000032c .L0 
     /tmp/cc5R1iUN.s:606    .text:000000000000032c .L0 
     /tmp/cc5R1iUN.s:607    .text:0000000000000330 .L0 
     /tmp/cc5R1iUN.s:609    .text:0000000000000334 .L0 
     /tmp/cc5R1iUN.s:611    .text:0000000000000338 .L0 
     /tmp/cc5R1iUN.s:616    .text:0000000000000338 .L0 
     /tmp/cc5R1iUN.s:619    .text:0000000000000338 .L0 
     /tmp/cc5R1iUN.s:620    .text:0000000000000338 .L0 
     /tmp/cc5R1iUN.s:621    .text:0000000000000338 .L0 
     /tmp/cc5R1iUN.s:624    .text:0000000000000348 .L0 
     /tmp/cc5R1iUN.s:625    .text:0000000000000348 .L0 
     /tmp/cc5R1iUN.s:627    .text:000000000000034c .L0 
     /tmp/cc5R1iUN.s:629    .text:0000000000000350 .L0 
     /tmp/cc5R1iUN.s:635    .text:0000000000000350 _ZN3TCB11thread_joinEPS_
     /tmp/cc5R1iUN.s:638    .text:0000000000000350 .L0 
     /tmp/cc5R1iUN.s:640    .text:0000000000000350 .L0 
     /tmp/cc5R1iUN.s:643    .text:0000000000000350 .L0 
     /tmp/cc5R1iUN.s:644    .text:0000000000000350 .L0 
     /tmp/cc5R1iUN.s:645    .text:0000000000000350 .L0 
     /tmp/cc5R1iUN.s:650    .text:0000000000000354 .L0 
     /tmp/cc5R1iUN.s:654    .text:000000000000035c .L0 
     /tmp/cc5R1iUN.s:655    .text:0000000000000360 .L0 
     /tmp/cc5R1iUN.s:660    .text:0000000000000370 .L0 
     /tmp/cc5R1iUN.s:661    .text:0000000000000370 .L0 
     /tmp/cc5R1iUN.s:662    .text:0000000000000370 .L0 
     /tmp/cc5R1iUN.s:663    .text:0000000000000370 .L0 
     /tmp/cc5R1iUN.s:665    .text:0000000000000374 .L0 
     /tmp/cc5R1iUN.s:668    .text:0000000000000378 .L0 
     /tmp/cc5R1iUN.s:669    .text:0000000000000378 .L0 
GAS LISTING /tmp/cc5R1iUN.s 			page 34


     /tmp/cc5R1iUN.s:676    .text:0000000000000380 .L0 
     /tmp/cc5R1iUN.s:685    .text:000000000000038c .L0 
     /tmp/cc5R1iUN.s:691    .text:0000000000000394 .L0 
     /tmp/cc5R1iUN.s:693    .text:0000000000000398 .L0 
     /tmp/cc5R1iUN.s:695    .text:000000000000039c .L0 
     /tmp/cc5R1iUN.s:697    .text:00000000000003a0 .L0 
     /tmp/cc5R1iUN.s:705    .text:00000000000003a4 .L0 
     /tmp/cc5R1iUN.s:706    .text:00000000000003a4 .L0 
     /tmp/cc5R1iUN.s:707    .text:00000000000003a4 .L0 
     /tmp/cc5R1iUN.s:714    .text:00000000000003b4 .L0 
     /tmp/cc5R1iUN.s:715    .text:00000000000003b4 .L0 
     /tmp/cc5R1iUN.s:718    .text:00000000000003bc .L0 
     /tmp/cc5R1iUN.s:719    .text:00000000000003c0 .L0 
     /tmp/cc5R1iUN.s:720    .text:00000000000003c0 .L0 
     /tmp/cc5R1iUN.s:722    .text:00000000000003c4 .L0 
     /tmp/cc5R1iUN.s:723    .text:00000000000003c4 .L0 
     /tmp/cc5R1iUN.s:725    .text:00000000000003c8 .L0 
     /tmp/cc5R1iUN.s:728    .text:00000000000003cc .L0 
     /tmp/cc5R1iUN.s:730    .text:00000000000003d0 .L0 
     /tmp/cc5R1iUN.s:734    .text:00000000000003d4 .L0 
     /tmp/cc5R1iUN.s:738    .text:00000000000003d4 .L0 
     /tmp/cc5R1iUN.s:743    .text:00000000000003e0 .L0 
     /tmp/cc5R1iUN.s:749    .text:00000000000003e0 _ZN3TCB6reliseEv
     /tmp/cc5R1iUN.s:752    .text:00000000000003e0 .L0 
     /tmp/cc5R1iUN.s:754    .text:00000000000003e0 .L0 
     /tmp/cc5R1iUN.s:755    .text:00000000000003e4 .L0 
     /tmp/cc5R1iUN.s:760    .text:00000000000003f4 .L0 
     /tmp/cc5R1iUN.s:761    .text:00000000000003f4 .L0 
     /tmp/cc5R1iUN.s:762    .text:00000000000003f4 .L0 
     /tmp/cc5R1iUN.s:763    .text:00000000000003f4 .L0 
     /tmp/cc5R1iUN.s:765    .text:00000000000003f8 .L0 
     /tmp/cc5R1iUN.s:774    .text:0000000000000400 .L0 
     /tmp/cc5R1iUN.s:777    .text:0000000000000404 .L0 
     /tmp/cc5R1iUN.s:782    .text:0000000000000408 .L0 
     /tmp/cc5R1iUN.s:791    .text:0000000000000410 .L0 
     /tmp/cc5R1iUN.s:792    .text:0000000000000410 .L0 
     /tmp/cc5R1iUN.s:793    .text:0000000000000410 .L0 
     /tmp/cc5R1iUN.s:798    .text:0000000000000414 .L0 
     /tmp/cc5R1iUN.s:799    .text:0000000000000414 .L0 
     /tmp/cc5R1iUN.s:805    .text:0000000000000420 .L0 
     /tmp/cc5R1iUN.s:808    .text:0000000000000420 .L0 
     /tmp/cc5R1iUN.s:809    .text:0000000000000420 .L0 
     /tmp/cc5R1iUN.s:811    .text:0000000000000424 .L0 
     /tmp/cc5R1iUN.s:813    .text:0000000000000428 .L0 
     /tmp/cc5R1iUN.s:818    .text:000000000000042c .L0 
     /tmp/cc5R1iUN.s:824    .text:0000000000000430 .L0 
     /tmp/cc5R1iUN.s:825    .text:0000000000000430 .L0 
     /tmp/cc5R1iUN.s:827    .text:0000000000000434 .L0 
     /tmp/cc5R1iUN.s:829    .text:0000000000000438 .L0 
     /tmp/cc5R1iUN.s:837    .text:0000000000000440 .L0 
     /tmp/cc5R1iUN.s:838    .text:0000000000000444 .L0 
     /tmp/cc5R1iUN.s:840    .text:0000000000000448 .L0 
     /tmp/cc5R1iUN.s:841    .text:0000000000000448 .L0 
     /tmp/cc5R1iUN.s:843    .text:000000000000044c .L0 
     /tmp/cc5R1iUN.s:845    .text:0000000000000450 .L0 
     /tmp/cc5R1iUN.s:848    .text:0000000000000454 .L0 
     /tmp/cc5R1iUN.s:850    .text:0000000000000458 .L0 
GAS LISTING /tmp/cc5R1iUN.s 			page 35


     /tmp/cc5R1iUN.s:859    .text:0000000000000458 .L0 
     /tmp/cc5R1iUN.s:860    .text:0000000000000458 .L0 
     /tmp/cc5R1iUN.s:861    .text:000000000000045c .L0 
     /tmp/cc5R1iUN.s:865    .text:0000000000000468 .L0 
     /tmp/cc5R1iUN.s:866    .text:0000000000000468 .L0 
     /tmp/cc5R1iUN.s:867    .text:0000000000000468 .L0 
     /tmp/cc5R1iUN.s:869    .text:000000000000046c .L0 
     /tmp/cc5R1iUN.s:871    .text:000000000000046c .L0 
     /tmp/cc5R1iUN.s:872    .text:000000000000046c .L0 
     /tmp/cc5R1iUN.s:875    .text:0000000000000474 .L0 
     /tmp/cc5R1iUN.s:876    .text:0000000000000474 .L0 
     /tmp/cc5R1iUN.s:880    .text:0000000000000484 .L0 
     /tmp/cc5R1iUN.s:884    .text:000000000000048c .L0 
     /tmp/cc5R1iUN.s:885    .text:000000000000048c .L0 
     /tmp/cc5R1iUN.s:890    .text:0000000000000490 .L0 
     /tmp/cc5R1iUN.s:891    .text:0000000000000490 .L0 
     /tmp/cc5R1iUN.s:897    .text:0000000000000498 .L0 
     /tmp/cc5R1iUN.s:898    .text:0000000000000498 .L0 
     /tmp/cc5R1iUN.s:901    .text:00000000000004a0 .L0 
     /tmp/cc5R1iUN.s:902    .text:00000000000004a0 .L0 
     /tmp/cc5R1iUN.s:907    .text:00000000000004b0 .L0 
     /tmp/cc5R1iUN.s:908    .text:00000000000004b0 .L0 
     /tmp/cc5R1iUN.s:912    .text:00000000000004bc .L0 
     /tmp/cc5R1iUN.s:913    .text:00000000000004bc .L0 
     /tmp/cc5R1iUN.s:916    .text:00000000000004c4 .L0 
     /tmp/cc5R1iUN.s:917    .text:00000000000004c8 .L0 
     /tmp/cc5R1iUN.s:919    .text:00000000000004cc .L0 
     /tmp/cc5R1iUN.s:920    .text:00000000000004cc .L0 
     /tmp/cc5R1iUN.s:922    .text:00000000000004d0 .L0 
     /tmp/cc5R1iUN.s:924    .text:00000000000004d4 .L0 
     /tmp/cc5R1iUN.s:926    .text:00000000000004d8 .L0 
     /tmp/cc5R1iUN.s:932    .text:00000000000004d8 _ZN7Barrier4openEv
     /tmp/cc5R1iUN.s:935    .text:00000000000004d8 .L0 
     /tmp/cc5R1iUN.s:937    .text:00000000000004d8 .L0 
     /tmp/cc5R1iUN.s:938    .text:00000000000004d8 .L0 
     /tmp/cc5R1iUN.s:939    .text:00000000000004d8 .L0 
     /tmp/cc5R1iUN.s:942    .text:00000000000004e0 .L0 
     /tmp/cc5R1iUN.s:943    .text:00000000000004e0 .L0 
     /tmp/cc5R1iUN.s:948    .text:00000000000004e4 .L0 
     /tmp/cc5R1iUN.s:949    .text:00000000000004e4 .L0 
     /tmp/cc5R1iUN.s:954    .text:00000000000004e8 .L0 
     /tmp/cc5R1iUN.s:958    .text:00000000000004f0 .L0 
     /tmp/cc5R1iUN.s:959    .text:00000000000004f4 .L0 
     /tmp/cc5R1iUN.s:962    .text:00000000000004fc .L0 
     /tmp/cc5R1iUN.s:963    .text:00000000000004fc .L0 
     /tmp/cc5R1iUN.s:965    .text:0000000000000500 .L0 
     /tmp/cc5R1iUN.s:970    .text:0000000000000500 .L0 
     /tmp/cc5R1iUN.s:971    .text:0000000000000500 .L0 
     /tmp/cc5R1iUN.s:972    .text:0000000000000500 .L0 
     /tmp/cc5R1iUN.s:977    .text:0000000000000504 .L0 
     /tmp/cc5R1iUN.s:978    .text:0000000000000504 .L0 
     /tmp/cc5R1iUN.s:983    .text:0000000000000510 .L0 
     /tmp/cc5R1iUN.s:984    .text:0000000000000514 .L0 
     /tmp/cc5R1iUN.s:986    .text:0000000000000518 .L0 
     /tmp/cc5R1iUN.s:987    .text:0000000000000518 .L0 
     /tmp/cc5R1iUN.s:989    .text:000000000000051c .L0 
     /tmp/cc5R1iUN.s:991    .text:0000000000000520 .L0 
GAS LISTING /tmp/cc5R1iUN.s 			page 36


     /tmp/cc5R1iUN.s:996    .text:0000000000000520 _GLOBAL__sub_I__ZN3TCB7runningE
     /tmp/cc5R1iUN.s:999    .text:0000000000000520 .L0 
     /tmp/cc5R1iUN.s:1000   .text:0000000000000520 .L0 
     /tmp/cc5R1iUN.s:1001   .text:0000000000000524 .L0 
     /tmp/cc5R1iUN.s:1004   .text:000000000000052c .L0 
     /tmp/cc5R1iUN.s:1005   .text:000000000000052c .L0 
     /tmp/cc5R1iUN.s:1007   .text:0000000000000530 .L0 
     /tmp/cc5R1iUN.s:1009   .text:0000000000000530 .L0 
     /tmp/cc5R1iUN.s:1015   .text:0000000000000548 .L0 
     /tmp/cc5R1iUN.s:1017   .text:000000000000054c .L0 
     /tmp/cc5R1iUN.s:1018   .text:000000000000054c .L0 
     /tmp/cc5R1iUN.s:1020   .text:0000000000000550 .L0 
     /tmp/cc5R1iUN.s:1022   .text:0000000000000554 .L0 
     /tmp/cc5R1iUN.s:1045   .bss:0000000000000000 _ZN3TCB8capacityE
     /tmp/cc5R1iUN.s:1038   .data:0000000000000000 _ZN3TCB6activeE
     /tmp/cc5R1iUN.s:1058   .bss:0000000000000020 _ZN3TCB3maxE
     /tmp/cc5R1iUN.s:1049   .bss:0000000000000010 _ZN3TCB2idE
     /tmp/cc5R1iUN.s:1054   .bss:0000000000000018 _ZN3TCB7runningE
     /tmp/cc5R1iUN.s:1035   .data:0000000000000000 .LANCHOR1
     /tmp/cc5R1iUN.s:1042   .bss:0000000000000000 .LANCHOR0
     /tmp/cc5R1iUN.s:1067   .text:0000000000000554 .L0 
     /tmp/cc5R1iUN.s:43     .text:000000000000002c .L0 
     /tmp/cc5R1iUN.s:110    .text:000000000000009c .L0 
     /tmp/cc5R1iUN.s:126    .text:00000000000000c8 .L0 
     /tmp/cc5R1iUN.s:357    .text:00000000000001e8 .L0 
     /tmp/cc5R1iUN.s:421    .text:0000000000000218 .L0 
     /tmp/cc5R1iUN.s:443    .text:0000000000000230 .L0 
     /tmp/cc5R1iUN.s:452    .text:000000000000023c .L0 
     /tmp/cc5R1iUN.s:469    .text:0000000000000254 .L0 
     /tmp/cc5R1iUN.s:495    .text:0000000000000280 .L0 
     /tmp/cc5R1iUN.s:531    .text:00000000000002c0 .L0 
     /tmp/cc5R1iUN.s:557    .text:00000000000002e0 .L0 
     /tmp/cc5R1iUN.s:621    .text:0000000000000338 .L0 
     /tmp/cc5R1iUN.s:669    .text:0000000000000378 .L0 
     /tmp/cc5R1iUN.s:707    .text:00000000000003a4 .L0 
     /tmp/cc5R1iUN.s:876    .text:0000000000000474 .L0 
     /tmp/cc5R1iUN.s:31     .text:0000000000000020 .L4
     /tmp/cc5R1iUN.s:23     .text:0000000000000014 .L1
     /tmp/cc5R1iUN.s:164    .text:0000000000000108 .L8
     /tmp/cc5R1iUN.s:170    .text:0000000000000110 .L9
     /tmp/cc5R1iUN.s:107    .text:0000000000000098 .L6
     /tmp/cc5R1iUN.s:118    .text:00000000000000b4 .L7
     /tmp/cc5R1iUN.s:253    .text:0000000000000188 .L16
     /tmp/cc5R1iUN.s:403    .text:0000000000000210 .L20
     /tmp/cc5R1iUN.s:518    .text:00000000000002b0 .L24
     /tmp/cc5R1iUN.s:489    .text:0000000000000278 .L21
     /tmp/cc5R1iUN.s:527    .text:00000000000002c0 .L25
     /tmp/cc5R1iUN.s:472    .text:0000000000000260 .L22
     /tmp/cc5R1iUN.s:652    .text:000000000000035c .L38
     /tmp/cc5R1iUN.s:733    .text:00000000000003d4 .L32
     /tmp/cc5R1iUN.s:698    .text:00000000000003a4 .L33
     /tmp/cc5R1iUN.s:802    .text:0000000000000420 .L42
     /tmp/cc5R1iUN.s:832    .text:0000000000000440 .L39
     /tmp/cc5R1iUN.s:775    .text:0000000000000404 .L41
     /tmp/cc5R1iUN.s:769    .text:0000000000000400 .L44
     /tmp/cc5R1iUN.s:956    .text:00000000000004f0 .L53
     /tmp/cc5R1iUN.s:221    .text:0000000000000148 .LEHB0
GAS LISTING /tmp/cc5R1iUN.s 			page 37


     /tmp/cc5R1iUN.s:185    .text:0000000000000118 .LFB57
     /tmp/cc5R1iUN.s:224    .text:0000000000000150 .LEHE0
     /tmp/cc5R1iUN.s:233    .text:0000000000000160 .LEHB1
     /tmp/cc5R1iUN.s:236    .text:0000000000000168 .LEHE1
     /tmp/cc5R1iUN.s:238    .text:000000000000016c .L13
     /tmp/cc5R1iUN.s:249    .text:0000000000000180 .LEHB2
     /tmp/cc5R1iUN.s:252    .text:0000000000000188 .LEHE2
     /tmp/cc5R1iUN.s:3623   .debug_abbrev:0000000000000000 .Ldebug_abbrev0
     /tmp/cc5R1iUN.s:6041   .debug_str:0000000000000aed .LASF219
     /tmp/cc5R1iUN.s:5827   .debug_str:00000000000004d5 .LASF220
     /tmp/cc5R1iUN.s:5987   .debug_str:0000000000000942 .LASF221
     /tmp/cc5R1iUN.s:5      .text:0000000000000000 .Ltext0
     /tmp/cc5R1iUN.s:1061   .text:0000000000000554 .Letext0
     /tmp/cc5R1iUN.s:5673   .debug_line:0000000000000000 .Ldebug_line0
     /tmp/cc5R1iUN.s:5829   .debug_str:00000000000004e1 .LASF0
     /tmp/cc5R1iUN.s:5855   .debug_str:0000000000000591 .LASF1
     /tmp/cc5R1iUN.s:5967   .debug_str:00000000000008c2 .LASF2
     /tmp/cc5R1iUN.s:5979   .debug_str:000000000000091c .LASF4
     /tmp/cc5R1iUN.s:5839   .debug_str:000000000000050f .LASF3
     /tmp/cc5R1iUN.s:5689   .debug_str:00000000000000a6 .LASF5
     /tmp/cc5R1iUN.s:5923   .debug_str:0000000000000776 .LASF6
     /tmp/cc5R1iUN.s:5845   .debug_str:0000000000000551 .LASF7
     /tmp/cc5R1iUN.s:5797   .debug_str:00000000000003e6 .LASF8
     /tmp/cc5R1iUN.s:5805   .debug_str:000000000000042a .LASF9
     /tmp/cc5R1iUN.s:5729   .debug_str:00000000000001f9 .LASF10
     /tmp/cc5R1iUN.s:5785   .debug_str:000000000000039f .LASF11
     /tmp/cc5R1iUN.s:5743   .debug_str:0000000000000247 .LASF12
     /tmp/cc5R1iUN.s:5727   .debug_str:00000000000001e9 .LASF13
     /tmp/cc5R1iUN.s:6015   .debug_str:0000000000000a46 .LASF14
     /tmp/cc5R1iUN.s:5771   .debug_str:000000000000030b .LASF15
     /tmp/cc5R1iUN.s:5999   .debug_str:00000000000009c3 .LASF16
     /tmp/cc5R1iUN.s:5851   .debug_str:000000000000057c .LASF20
     /tmp/cc5R1iUN.s:6037   .debug_str:0000000000000add .LASF26
     /tmp/cc5R1iUN.s:5853   .debug_str:000000000000058c .LASF17
     /tmp/cc5R1iUN.s:5731   .debug_str:0000000000000208 .LASF18
     /tmp/cc5R1iUN.s:5703   .debug_str:0000000000000115 .LASF19
     /tmp/cc5R1iUN.s:5899   .debug_str:00000000000006c9 .LASF22
     /tmp/cc5R1iUN.s:5831   .debug_str:00000000000004ee .LASF34
     /tmp/cc5R1iUN.s:5885   .debug_str:000000000000065f .LASF36
     /tmp/cc5R1iUN.s:6117   .debug_str:0000000000000de7 .LASF68
     /tmp/cc5R1iUN.s:5825   .debug_str:00000000000004b8 .LASF70
     /tmp/cc5R1iUN.s:6135   .debug_str:0000000000000e8b .LASF21
     /tmp/cc5R1iUN.s:6109   .debug_str:0000000000000d80 .LASF23
     /tmp/cc5R1iUN.s:5881   .debug_str:000000000000063e .LASF24
     /tmp/cc5R1iUN.s:5675   .debug_str:0000000000000000 .LASF25
     /tmp/cc5R1iUN.s:5995   .debug_str:00000000000009a6 .LASF30
     /tmp/cc5R1iUN.s:6023   .debug_str:0000000000000a6f .LASF27
     /tmp/cc5R1iUN.s:5981   .debug_str:0000000000000923 .LASF28
     /tmp/cc5R1iUN.s:5685   .debug_str:000000000000007f .LASF29
     /tmp/cc5R1iUN.s:6091   .debug_str:0000000000000d13 .LASF31
     /tmp/cc5R1iUN.s:5905   .debug_str:0000000000000701 .LASF58
     /tmp/cc5R1iUN.s:6007   .debug_str:0000000000000a04 .LASF60
     /tmp/cc5R1iUN.s:5761   .debug_str:00000000000002ba .LASF32
     /tmp/cc5R1iUN.s:6113   .debug_str:0000000000000db7 .LASF54
     /tmp/cc5R1iUN.s:5931   .debug_str:00000000000007cb .LASF56
     /tmp/cc5R1iUN.s:5677   .debug_str:0000000000000024 .LASF33
     /tmp/cc5R1iUN.s:6025   .debug_str:0000000000000a77 .LASF35
GAS LISTING /tmp/cc5R1iUN.s 			page 38


     /tmp/cc5R1iUN.s:5893   .debug_str:00000000000006a1 .LASF37
     /tmp/cc5R1iUN.s:5971   .debug_str:00000000000008dd .LASF38
     /tmp/cc5R1iUN.s:5721   .debug_str:00000000000001b0 .LASF39
     /tmp/cc5R1iUN.s:5799   .debug_str:00000000000003f6 .LASF40
     /tmp/cc5R1iUN.s:6031   .debug_str:0000000000000aa1 .LASF41
     /tmp/cc5R1iUN.s:6079   .debug_str:0000000000000cb6 .LASF42
     /tmp/cc5R1iUN.s:5693   .debug_str:00000000000000b8 .LASF43
     /tmp/cc5R1iUN.s:5713   .debug_str:0000000000000180 .LASF44
     /tmp/cc5R1iUN.s:6061   .debug_str:0000000000000c33 .LASF45
     /tmp/cc5R1iUN.s:6029   .debug_str:0000000000000a96 .LASF46
     /tmp/cc5R1iUN.s:5781   .debug_str:0000000000000371 .LASF47
     /tmp/cc5R1iUN.s:5939   .debug_str:0000000000000803 .LASF48
     /tmp/cc5R1iUN.s:5815   .debug_str:0000000000000468 .LASF49
     /tmp/cc5R1iUN.s:5907   .debug_str:000000000000070d .LASF50
     /tmp/cc5R1iUN.s:5783   .debug_str:0000000000000387 .LASF51
     /tmp/cc5R1iUN.s:6101   .debug_str:0000000000000d46 .LASF52
     /tmp/cc5R1iUN.s:6003   .debug_str:00000000000009ec .LASF53
     /tmp/cc5R1iUN.s:5725   .debug_str:00000000000001e2 .LASF55
     /tmp/cc5R1iUN.s:5857   .debug_str:00000000000005a4 .LASF57
     /tmp/cc5R1iUN.s:5975   .debug_str:00000000000008ff .LASF59
     /tmp/cc5R1iUN.s:5763   .debug_str:00000000000002c1 .LASF61
     /tmp/cc5R1iUN.s:5963   .debug_str:00000000000008ad .LASF62
     /tmp/cc5R1iUN.s:6067   .debug_str:0000000000000c64 .LASF63
     /tmp/cc5R1iUN.s:5871   .debug_str:0000000000000603 .LASF64
     /tmp/cc5R1iUN.s:5863   .debug_str:00000000000005da .LASF65
     /tmp/cc5R1iUN.s:6013   .debug_str:0000000000000a38 .LASF66
     /tmp/cc5R1iUN.s:6115   .debug_str:0000000000000dc3 .LASF67
     /tmp/cc5R1iUN.s:5917   .debug_str:0000000000000751 .LASF222
     /tmp/cc5R1iUN.s:5719   .debug_str:00000000000001aa .LASF69
     /tmp/cc5R1iUN.s:6045   .debug_str:0000000000000bb6 .LASF71
     /tmp/cc5R1iUN.s:5879   .debug_str:0000000000000632 .LASF72
     /tmp/cc5R1iUN.s:5887   .debug_str:0000000000000678 .LASF73
     /tmp/cc5R1iUN.s:6039   .debug_str:0000000000000ae5 .LASF74
     /tmp/cc5R1iUN.s:5947   .debug_str:0000000000000840 .LASF75
     /tmp/cc5R1iUN.s:5989   .debug_str:0000000000000971 .LASF76
     /tmp/cc5R1iUN.s:6131   .debug_str:0000000000000e76 .LASF77
     /tmp/cc5R1iUN.s:5801   .debug_str:0000000000000402 .LASF78
     /tmp/cc5R1iUN.s:5717   .debug_str:000000000000019a .LASF79
     /tmp/cc5R1iUN.s:5793   .debug_str:00000000000003d0 .LASF80
     /tmp/cc5R1iUN.s:5679   .debug_str:000000000000002d .LASF81
     /tmp/cc5R1iUN.s:5873   .debug_str:000000000000060d .LASF82
     /tmp/cc5R1iUN.s:5997   .debug_str:00000000000009b0 .LASF83
     /tmp/cc5R1iUN.s:5969   .debug_str:00000000000008d0 .LASF84
     /tmp/cc5R1iUN.s:6071   .debug_str:0000000000000c7e .LASF223
     /tmp/cc5R1iUN.s:5933   .debug_str:00000000000007e2 .LASF85
     /tmp/cc5R1iUN.s:5877   .debug_str:0000000000000626 .LASF86
     /tmp/cc5R1iUN.s:6057   .debug_str:0000000000000c16 .LASF87
     /tmp/cc5R1iUN.s:6021   .debug_str:0000000000000a66 .LASF88
     /tmp/cc5R1iUN.s:5913   .debug_str:000000000000073f .LASF89
     /tmp/cc5R1iUN.s:5915   .debug_str:0000000000000747 .LASF90
     /tmp/cc5R1iUN.s:5741   .debug_str:000000000000023d .LASF91
     /tmp/cc5R1iUN.s:5837   .debug_str:000000000000050a .LASF92
     /tmp/cc5R1iUN.s:6093   .debug_str:0000000000000d1b .LASF93
     /tmp/cc5R1iUN.s:5715   .debug_str:000000000000018c .LASF171
     /tmp/cc5R1iUN.s:5859   .debug_str:00000000000005b5 .LASF173
     /tmp/cc5R1iUN.s:5747   .debug_str:000000000000025c .LASF102
     /tmp/cc5R1iUN.s:5683   .debug_str:0000000000000057 .LASF103
GAS LISTING /tmp/cc5R1iUN.s 			page 39


     /tmp/cc5R1iUN.s:6053   .debug_str:0000000000000bfc .LASF94
     /tmp/cc5R1iUN.s:6063   .debug_str:0000000000000c4a .LASF95
     /tmp/cc5R1iUN.s:5977   .debug_str:0000000000000911 .LASF224
     /tmp/cc5R1iUN.s:6081   .debug_str:0000000000000cc2 .LASF96
     /tmp/cc5R1iUN.s:5745   .debug_str:0000000000000257 .LASF98
     /tmp/cc5R1iUN.s:5849   .debug_str:0000000000000577 .LASF97
     /tmp/cc5R1iUN.s:6125   .debug_str:0000000000000e34 .LASF99
     /tmp/cc5R1iUN.s:5707   .debug_str:0000000000000144 .LASF100
     /tmp/cc5R1iUN.s:5697   .debug_str:00000000000000e5 .LASF101
     /tmp/cc5R1iUN.s:6085   .debug_str:0000000000000cea .LASF104
     /tmp/cc5R1iUN.s:6051   .debug_str:0000000000000be3 .LASF225
     /tmp/cc5R1iUN.s:6005   .debug_str:00000000000009ff .LASF105
     /tmp/cc5R1iUN.s:5869   .debug_str:00000000000005fe .LASF106
     /tmp/cc5R1iUN.s:5891   .debug_str:000000000000069c .LASF107
     /tmp/cc5R1iUN.s:6001   .debug_str:00000000000009d9 .LASF108
     /tmp/cc5R1iUN.s:5769   .debug_str:00000000000002f4 .LASF109
     /tmp/cc5R1iUN.s:5749   .debug_str:000000000000026a .LASF226
     /tmp/cc5R1iUN.s:5951   .debug_str:0000000000000855 .LASF227
     /tmp/cc5R1iUN.s:5819   .debug_str:0000000000000486 .LASF110
     /tmp/cc5R1iUN.s:6035   .debug_str:0000000000000ac4 .LASF111
     /tmp/cc5R1iUN.s:5959   .debug_str:000000000000089b .LASF112
     /tmp/cc5R1iUN.s:5723   .debug_str:00000000000001c5 .LASF113
     /tmp/cc5R1iUN.s:5867   .debug_str:00000000000005f6 .LASF114
     /tmp/cc5R1iUN.s:5773   .debug_str:0000000000000321 .LASF115
     /tmp/cc5R1iUN.s:5921   .debug_str:000000000000076a .LASF116
     /tmp/cc5R1iUN.s:6083   .debug_str:0000000000000ccc .LASF117
     /tmp/cc5R1iUN.s:6137   .debug_str:0000000000000e94 .LASF118
     /tmp/cc5R1iUN.s:6123   .debug_str:0000000000000e19 .LASF119
     /tmp/cc5R1iUN.s:5993   .debug_str:000000000000099b .LASF120
     /tmp/cc5R1iUN.s:5843   .debug_str:0000000000000534 .LASF121
     /tmp/cc5R1iUN.s:5945   .debug_str:0000000000000837 .LASF122
     /tmp/cc5R1iUN.s:5681   .debug_str:000000000000003d .LASF123
     /tmp/cc5R1iUN.s:5779   .debug_str:0000000000000369 .LASF124
     /tmp/cc5R1iUN.s:5955   .debug_str:0000000000000879 .LASF125
     /tmp/cc5R1iUN.s:5909   .debug_str:000000000000071a .LASF126
     /tmp/cc5R1iUN.s:6055   .debug_str:0000000000000c03 .LASF127
     /tmp/cc5R1iUN.s:5699   .debug_str:00000000000000fd .LASF128
     /tmp/cc5R1iUN.s:5919   .debug_str:0000000000000756 .LASF129
     /tmp/cc5R1iUN.s:6043   .debug_str:0000000000000bb1 .LASF130
     /tmp/cc5R1iUN.s:5841   .debug_str:0000000000000521 .LASF131
     /tmp/cc5R1iUN.s:6019   .debug_str:0000000000000a60 .LASF132
     /tmp/cc5R1iUN.s:5949   .debug_str:0000000000000850 .LASF133
     /tmp/cc5R1iUN.s:6087   .debug_str:0000000000000d03 .LASF134
     /tmp/cc5R1iUN.s:5813   .debug_str:000000000000045d .LASF135
     /tmp/cc5R1iUN.s:5903   .debug_str:00000000000006e9 .LASF136
     /tmp/cc5R1iUN.s:6065   .debug_str:0000000000000c5b .LASF137
     /tmp/cc5R1iUN.s:6059   .debug_str:0000000000000c1e .LASF138
     /tmp/cc5R1iUN.s:5961   .debug_str:00000000000008a4 .LASF139
     /tmp/cc5R1iUN.s:5695   .debug_str:00000000000000d0 .LASF140
     /tmp/cc5R1iUN.s:5937   .debug_str:00000000000007fc .LASF141
     /tmp/cc5R1iUN.s:5941   .debug_str:0000000000000810 .LASF142
     /tmp/cc5R1iUN.s:5901   .debug_str:00000000000006e2 .LASF143
     /tmp/cc5R1iUN.s:5847   .debug_str:0000000000000564 .LASF144
     /tmp/cc5R1iUN.s:6099   .debug_str:0000000000000d3e .LASF145
     /tmp/cc5R1iUN.s:6011   .debug_str:0000000000000a24 .LASF146
     /tmp/cc5R1iUN.s:5897   .debug_str:00000000000006c1 .LASF147
     /tmp/cc5R1iUN.s:5787   .debug_str:00000000000003ae .LASF148
GAS LISTING /tmp/cc5R1iUN.s 			page 40


     /tmp/cc5R1iUN.s:5865   .debug_str:00000000000005ee .LASF149
     /tmp/cc5R1iUN.s:5943   .debug_str:0000000000000823 .LASF150
     /tmp/cc5R1iUN.s:6133   .debug_str:0000000000000e83 .LASF151
     /tmp/cc5R1iUN.s:6075   .debug_str:0000000000000c9b .LASF152
     /tmp/cc5R1iUN.s:6009   .debug_str:0000000000000a1d .LASF153
     /tmp/cc5R1iUN.s:5983   .debug_str:0000000000000928 .LASF154
     /tmp/cc5R1iUN.s:5985   .debug_str:000000000000093b .LASF155
     /tmp/cc5R1iUN.s:5737   .debug_str:0000000000000220 .LASF156
     /tmp/cc5R1iUN.s:5765   .debug_str:00000000000002de .LASF157
     /tmp/cc5R1iUN.s:5823   .debug_str:00000000000004a6 .LASF158
     /tmp/cc5R1iUN.s:5835   .debug_str:0000000000000504 .LASF159
     /tmp/cc5R1iUN.s:5753   .debug_str:0000000000000284 .LASF160
     /tmp/cc5R1iUN.s:5691   .debug_str:00000000000000ad .LASF161
     /tmp/cc5R1iUN.s:5973   .debug_str:00000000000008e7 .LASF162
     /tmp/cc5R1iUN.s:5965   .debug_str:00000000000008b7 .LASF163
     /tmp/cc5R1iUN.s:6129   .debug_str:0000000000000e5e .LASF164
     /tmp/cc5R1iUN.s:6089   .debug_str:0000000000000d09 .LASF165
     /tmp/cc5R1iUN.s:6107   .debug_str:0000000000000d6a .LASF166
     /tmp/cc5R1iUN.s:5735   .debug_str:0000000000000216 .LASF167
     /tmp/cc5R1iUN.s:5883   .debug_str:0000000000000649 .LASF168
     /tmp/cc5R1iUN.s:6097   .debug_str:0000000000000d2f .LASF169
     /tmp/cc5R1iUN.s:5803   .debug_str:000000000000040e .LASF170
     /tmp/cc5R1iUN.s:5925   .debug_str:0000000000000789 .LASF172
     /tmp/cc5R1iUN.s:5775   .debug_str:000000000000033d .LASF174
     /tmp/cc5R1iUN.s:5795   .debug_str:00000000000003dc .LASF175
     /tmp/cc5R1iUN.s:6027   .debug_str:0000000000000a82 .LASF176
     /tmp/cc5R1iUN.s:6119   .debug_str:0000000000000ded .LASF228
     /tmp/cc5R1iUN.s:5821   .debug_str:000000000000048e .LASF229
     /tmp/cc5R1iUN.s:5777   .debug_str:000000000000035f .LASF177
     /tmp/cc5R1iUN.s:5889   .debug_str:000000000000068f .LASF230
     /tmp/cc5R1iUN.s:5811   .debug_str:0000000000000453 .LASF178
     /tmp/cc5R1iUN.s:5791   .debug_str:00000000000003c7 .LASF179
     /tmp/cc5R1iUN.s:6017   .debug_str:0000000000000a52 .LASF180
     /tmp/cc5R1iUN.s:5935   .debug_str:00000000000007f0 .LASF181
     /tmp/cc5R1iUN.s:5751   .debug_str:0000000000000274 .LASF182
     /tmp/cc5R1iUN.s:5733   .debug_str:000000000000020d .LASF183
     /tmp/cc5R1iUN.s:5739   .debug_str:0000000000000233 .LASF184
     /tmp/cc5R1iUN.s:5895   .debug_str:00000000000006b8 .LASF185
     /tmp/cc5R1iUN.s:6033   .debug_str:0000000000000ab9 .LASF186
     /tmp/cc5R1iUN.s:5875   .debug_str:000000000000061a .LASF187
     /tmp/cc5R1iUN.s:6095   .debug_str:0000000000000d29 .LASF188
     /tmp/cc5R1iUN.s:6073   .debug_str:0000000000000c95 .LASF189
     /tmp/cc5R1iUN.s:5687   .debug_str:000000000000008b .LASF190
     /tmp/cc5R1iUN.s:5957   .debug_str:000000000000088e .LASF191
     /tmp/cc5R1iUN.s:6047   .debug_str:0000000000000bc6 .LASF192
     /tmp/cc5R1iUN.s:6049   .debug_str:0000000000000bd4 .LASF193
     /tmp/cc5R1iUN.s:5807   .debug_str:0000000000000438 .LASF194
     /tmp/cc5R1iUN.s:5755   .debug_str:0000000000000296 .LASF195
     /tmp/cc5R1iUN.s:5759   .debug_str:00000000000002ad .LASF196
     /tmp/cc5R1iUN.s:5927   .debug_str:000000000000079e .LASF197
     /tmp/cc5R1iUN.s:5711   .debug_str:000000000000016f .LASF198
     /tmp/cc5R1iUN.s:5861   .debug_str:00000000000005ce .LASF199
     /tmp/cc5R1iUN.s:5953   .debug_str:000000000000086c .LASF200
     /tmp/cc5R1iUN.s:5767   .debug_str:00000000000002e4 .LASF201
     /tmp/cc5R1iUN.s:5701   .debug_str:0000000000000103 .LASF202
     /tmp/cc5R1iUN.s:5911   .debug_str:000000000000071f .LASF203
     /tmp/cc5R1iUN.s:997    .text:0000000000000520 .LFB78
GAS LISTING /tmp/cc5R1iUN.s 			page 41


     /tmp/cc5R1iUN.s:1023   .text:0000000000000554 .LFE78
     /tmp/cc5R1iUN.s:1013   .text:0000000000000544 .LVL93
     /tmp/cc5R1iUN.s:5705   .debug_str:000000000000011a .LASF204
     /tmp/cc5R1iUN.s:9      .text:0000000000000000 .LFB77
     /tmp/cc5R1iUN.s:53     .text:0000000000000040 .LFE77
     /tmp/cc5R1iUN.s:5809   .debug_str:0000000000000444 .LASF205
     /tmp/cc5R1iUN.s:6127   .debug_str:0000000000000e53 .LASF206
     /tmp/cc5R1iUN.s:38     .text:000000000000002c .LBB77
     /tmp/cc5R1iUN.s:49     .text:000000000000003c .LBE77
     /tmp/cc5R1iUN.s:5031   .debug_loc:0000000000000000 .LLST0
     /tmp/cc5R1iUN.s:5789   .debug_str:00000000000003c2 .LASF207
     /tmp/cc5R1iUN.s:5929   .debug_str:00000000000007ac .LASF210
     /tmp/cc5R1iUN.s:6077   .debug_str:0000000000000caf .LASF208
     /tmp/cc5R1iUN.s:5833   .debug_str:00000000000004ff .LASF209
     /tmp/cc5R1iUN.s:5709   .debug_str:000000000000015c .LASF211
     /tmp/cc5R1iUN.s:933    .text:00000000000004d8 .LFB65
     /tmp/cc5R1iUN.s:992    .text:0000000000000520 .LFE65
     /tmp/cc5R1iUN.s:5040   .debug_loc:000000000000002c .LLST52
     /tmp/cc5R1iUN.s:945    .text:00000000000004e4 .LBB144
     /tmp/cc5R1iUN.s:952    .text:00000000000004e8 .LBE144
     /tmp/cc5R1iUN.s:5054   .debug_loc:0000000000000065 .LLST53
     /tmp/cc5R1iUN.s:968    .text:0000000000000500 .LBB146
     /tmp/cc5R1iUN.s:975    .text:0000000000000504 .LBE146
     /tmp/cc5R1iUN.s:5061   .debug_loc:0000000000000088 .LLST54
     /tmp/cc5R1iUN.s:5069   .debug_loc:00000000000000ac .LLST55
     /tmp/cc5R1iUN.s:981    .text:0000000000000510 .LVL92
     /tmp/cc5R1iUN.s:857    .text:0000000000000458 .LFB64
     /tmp/cc5R1iUN.s:927    .text:00000000000004d8 .LFE64
     /tmp/cc5R1iUN.s:887    .text:0000000000000490 .LBB142
     /tmp/cc5R1iUN.s:895    .text:0000000000000498 .LBE142
     /tmp/cc5R1iUN.s:5076   .debug_loc:00000000000000cf .LLST50
     /tmp/cc5R1iUN.s:5084   .debug_loc:00000000000000f3 .LLST51
     /tmp/cc5R1iUN.s:873    .text:0000000000000474 .LVL78
     /tmp/cc5R1iUN.s:899    .text:00000000000004a0 .LVL82
     /tmp/cc5R1iUN.s:905    .text:00000000000004b0 .LVL83
     /tmp/cc5R1iUN.s:910    .text:00000000000004bc .LVL84
     /tmp/cc5R1iUN.s:914    .text:00000000000004c4 .LVL85
     /tmp/cc5R1iUN.s:750    .text:00000000000003e0 .LFB63
     /tmp/cc5R1iUN.s:851    .text:0000000000000458 .LFE63
     /tmp/cc5R1iUN.s:5091   .debug_loc:0000000000000116 .LLST41
     /tmp/cc5R1iUN.s:5647   .debug_ranges:0000000000000000 .Ldebug_ranges0
     /tmp/cc5R1iUN.s:5109   .debug_loc:0000000000000162 .LLST42
     /tmp/cc5R1iUN.s:771    .text:0000000000000400 .LBB131
     /tmp/cc5R1iUN.s:5116   .debug_loc:0000000000000185 .LLST43
     /tmp/cc5R1iUN.s:5131   .debug_loc:00000000000001bf .LLST44
     /tmp/cc5R1iUN.s:5142   .debug_loc:00000000000001f5 .LLST45
     /tmp/cc5R1iUN.s:779    .text:0000000000000408 .LBB133
     /tmp/cc5R1iUN.s:785    .text:0000000000000410 .LBE133
     /tmp/cc5R1iUN.s:5149   .debug_loc:0000000000000218 .LLST46
     /tmp/cc5R1iUN.s:783    .text:0000000000000410 .LVL71
     /tmp/cc5R1iUN.s:789    .text:0000000000000410 .LBB136
     /tmp/cc5R1iUN.s:796    .text:0000000000000414 .LBE136
     /tmp/cc5R1iUN.s:5156   .debug_loc:000000000000023b .LLST47
     /tmp/cc5R1iUN.s:5164   .debug_loc:000000000000025f .LLST48
     /tmp/cc5R1iUN.s:801    .text:0000000000000420 .LVL73
     /tmp/cc5R1iUN.s:806    .text:0000000000000420 .LBB139
     /tmp/cc5R1iUN.s:816    .text:000000000000042c .LBE139
GAS LISTING /tmp/cc5R1iUN.s 			page 42


     /tmp/cc5R1iUN.s:5171   .debug_loc:0000000000000282 .LLST49
     /tmp/cc5R1iUN.s:636    .text:0000000000000350 .LFB62
     /tmp/cc5R1iUN.s:744    .text:00000000000003e0 .LFE62
     /tmp/cc5R1iUN.s:6105   .debug_str:0000000000000d63 .LASF212
     /tmp/cc5R1iUN.s:5180   .debug_loc:00000000000002a7 .LLST29
     /tmp/cc5R1iUN.s:641    .text:0000000000000350 .LBB118
     /tmp/cc5R1iUN.s:648    .text:0000000000000354 .LBE118
     /tmp/cc5R1iUN.s:5202   .debug_loc:0000000000000306 .LLST30
     /tmp/cc5R1iUN.s:671    .text:0000000000000380 .LBB120
     /tmp/cc5R1iUN.s:5209   .debug_loc:0000000000000329 .LLST31
     /tmp/cc5R1iUN.s:5220   .debug_loc:000000000000035f .LLST32
     /tmp/cc5R1iUN.s:5235   .debug_loc:0000000000000399 .LLST33
     /tmp/cc5R1iUN.s:673    .text:0000000000000380 .LBB122
     /tmp/cc5R1iUN.s:681    .text:000000000000038c .LBE122
     /tmp/cc5R1iUN.s:5246   .debug_loc:00000000000003cf .LLST34
     /tmp/cc5R1iUN.s:5254   .debug_loc:00000000000003f3 .LLST35
     /tmp/cc5R1iUN.s:679    .text:000000000000038c .LVL61
     /tmp/cc5R1iUN.s:682    .text:000000000000038c .LBB124
     /tmp/cc5R1iUN.s:689    .text:0000000000000394 .LBE124
     /tmp/cc5R1iUN.s:5262   .debug_loc:0000000000000417 .LLST36
     /tmp/cc5R1iUN.s:5270   .debug_loc:000000000000043b .LLST37
     /tmp/cc5R1iUN.s:5277   .debug_loc:000000000000045e .LLST38
     /tmp/cc5R1iUN.s:703    .text:00000000000003a4 .LBB127
     /tmp/cc5R1iUN.s:712    .text:00000000000003b4 .LBE127
     /tmp/cc5R1iUN.s:5284   .debug_loc:0000000000000481 .LLST39
     /tmp/cc5R1iUN.s:5292   .debug_loc:00000000000004a5 .LLST40
     /tmp/cc5R1iUN.s:716    .text:00000000000003bc .LVL65
     /tmp/cc5R1iUN.s:603    .text:000000000000032c .LFB61
     /tmp/cc5R1iUN.s:630    .text:0000000000000350 .LFE61
     /tmp/cc5R1iUN.s:614    .text:0000000000000338 .LBB116
     /tmp/cc5R1iUN.s:618    .text:0000000000000338 .LBE116
     /tmp/cc5R1iUN.s:542    .text:00000000000002cc .LFB60
     /tmp/cc5R1iUN.s:597    .text:000000000000032c .LFE60
     /tmp/cc5R1iUN.s:560    .text:00000000000002ec .LBB114
     /tmp/cc5R1iUN.s:568    .text:00000000000002f4 .LBE114
     /tmp/cc5R1iUN.s:5300   .debug_loc:00000000000004d0 .LLST27
     /tmp/cc5R1iUN.s:5308   .debug_loc:00000000000004f4 .LLST28
     /tmp/cc5R1iUN.s:573    .text:0000000000000300 .LVL53
     /tmp/cc5R1iUN.s:578    .text:000000000000030c .LVL54
     /tmp/cc5R1iUN.s:582    .text:0000000000000314 .LVL55
     /tmp/cc5R1iUN.s:340    .text:00000000000001d0 .LFB59
     /tmp/cc5R1iUN.s:536    .text:00000000000002cc .LFE59
     /tmp/cc5R1iUN.s:5315   .debug_loc:0000000000000517 .LLST15
     /tmp/cc5R1iUN.s:360    .text:00000000000001f0 .LBB90
     /tmp/cc5R1iUN.s:367    .text:00000000000001f4 .LBE90
     /tmp/cc5R1iUN.s:5326   .debug_loc:000000000000054d .LLST16
     /tmp/cc5R1iUN.s:371    .text:00000000000001f8 .LBB92
     /tmp/cc5R1iUN.s:378    .text:00000000000001fc .LBE92
     /tmp/cc5R1iUN.s:5333   .debug_loc:0000000000000570 .LLST17
     /tmp/cc5R1iUN.s:382    .text:0000000000000200 .LBB94
     /tmp/cc5R1iUN.s:389    .text:0000000000000204 .LBE94
     /tmp/cc5R1iUN.s:5340   .debug_loc:0000000000000593 .LLST18
     /tmp/cc5R1iUN.s:393    .text:0000000000000208 .LBB96
     /tmp/cc5R1iUN.s:400    .text:000000000000020c .LBE96
     /tmp/cc5R1iUN.s:5347   .debug_loc:00000000000005b6 .LLST19
     /tmp/cc5R1iUN.s:406    .text:0000000000000210 .LBB98
     /tmp/cc5R1iUN.s:413    .text:0000000000000214 .LBE98
GAS LISTING /tmp/cc5R1iUN.s 			page 43


     /tmp/cc5R1iUN.s:5354   .debug_loc:00000000000005d9 .LLST20
     /tmp/cc5R1iUN.s:417    .text:0000000000000218 .LBB100
     /tmp/cc5R1iUN.s:424    .text:0000000000000224 .LBE100
     /tmp/cc5R1iUN.s:429    .text:000000000000022c .LBB102
     /tmp/cc5R1iUN.s:436    .text:0000000000000230 .LBE102
     /tmp/cc5R1iUN.s:5361   .debug_loc:00000000000005fc .LLST21
     /tmp/cc5R1iUN.s:439    .text:0000000000000230 .LBB104
     /tmp/cc5R1iUN.s:445    .text:0000000000000238 .LBE104
     /tmp/cc5R1iUN.s:449    .text:000000000000023c .LBB106
     /tmp/cc5R1iUN.s:459    .text:000000000000024c .LBE106
     /tmp/cc5R1iUN.s:5368   .debug_loc:000000000000061f .LLST22
     /tmp/cc5R1iUN.s:464    .text:0000000000000250 .LBB108
     /tmp/cc5R1iUN.s:5377   .debug_loc:000000000000064b .LLST23
     /tmp/cc5R1iUN.s:5392   .debug_loc:0000000000000693 .LLST24
     /tmp/cc5R1iUN.s:5403   .debug_loc:00000000000006c9 .LLST25
     /tmp/cc5R1iUN.s:476    .text:0000000000000264 .LBB110
     /tmp/cc5R1iUN.s:482    .text:000000000000026c .LBE110
     /tmp/cc5R1iUN.s:5410   .debug_loc:00000000000006ec .LLST26
     /tmp/cc5R1iUN.s:480    .text:000000000000026c .LVL43
     /tmp/cc5R1iUN.s:488    .text:0000000000000278 .LVL44
     /tmp/cc5R1iUN.s:493    .text:0000000000000280 .LVL45
     /tmp/cc5R1iUN.s:501    .text:0000000000000298 .LVL46
     /tmp/cc5R1iUN.s:524    .text:00000000000002bc .LVL49
     /tmp/cc5R1iUN.s:304    .text:00000000000001ac .LFB58
     /tmp/cc5R1iUN.s:334    .text:00000000000001d0 .LFE58
     /tmp/cc5R1iUN.s:278    .text:00000000000001ac .LFE57
     /tmp/cc5R1iUN.s:5417   .debug_loc:000000000000070f .LLST9
     /tmp/cc5R1iUN.s:5446   .debug_loc:0000000000000784 .LLST10
     /tmp/cc5R1iUN.s:5464   .debug_loc:00000000000007d0 .LLST11
     /tmp/cc5R1iUN.s:5757   .debug_str:00000000000002a3 .LASF213
     /tmp/cc5R1iUN.s:212    .text:0000000000000144 .LBB86
     /tmp/cc5R1iUN.s:228    .text:0000000000000154 .LBE86
     /tmp/cc5R1iUN.s:5482   .debug_loc:000000000000081c .LLST12
     /tmp/cc5R1iUN.s:5491   .debug_loc:0000000000000841 .LLST13
     /tmp/cc5R1iUN.s:223    .text:0000000000000150 .LVL18
     /tmp/cc5R1iUN.s:241    .text:0000000000000170 .LBB88
     /tmp/cc5R1iUN.s:255    .text:0000000000000188 .LBE88
     /tmp/cc5R1iUN.s:5499   .debug_loc:0000000000000865 .LLST14
     /tmp/cc5R1iUN.s:247    .text:000000000000017c .LVL22
     /tmp/cc5R1iUN.s:235    .text:0000000000000168 .LVL20
     /tmp/cc5R1iUN.s:251    .text:0000000000000188 .LVL23
     /tmp/cc5R1iUN.s:6111   .debug_str:0000000000000da0 .LASF231
     /tmp/cc5R1iUN.s:59     .text:0000000000000040 .LFB55
     /tmp/cc5R1iUN.s:177    .text:0000000000000118 .LFE55
     /tmp/cc5R1iUN.s:5506   .debug_loc:0000000000000888 .LLST1
     /tmp/cc5R1iUN.s:5528   .debug_loc:00000000000008e7 .LLST2
     /tmp/cc5R1iUN.s:5551   .debug_loc:0000000000000947 .LLST3
     /tmp/cc5R1iUN.s:5574   .debug_loc:00000000000009a7 .LLST4
     /tmp/cc5R1iUN.s:89     .text:000000000000007c .LBB81
     /tmp/cc5R1iUN.s:99     .text:0000000000000084 .LBE81
     /tmp/cc5R1iUN.s:5603   .debug_loc:0000000000000a1c .LLST5
     /tmp/cc5R1iUN.s:5610   .debug_loc:0000000000000a3f .LLST6
     /tmp/cc5R1iUN.s:5618   .debug_loc:0000000000000a63 .LLST7
     /tmp/cc5R1iUN.s:133    .text:00000000000000e0 .LBB83
     /tmp/cc5R1iUN.s:140    .text:00000000000000e8 .LBE83
     /tmp/cc5R1iUN.s:5625   .debug_loc:0000000000000a86 .LLST8
     /tmp/cc5R1iUN.s:88     .text:000000000000007c .LVL5
GAS LISTING /tmp/cc5R1iUN.s 			page 44


     /tmp/cc5R1iUN.s:6103   .debug_str:0000000000000d4e .LASF214
     /tmp/cc5R1iUN.s:5817   .debug_str:0000000000000480 .LASF215
     /tmp/cc5R1iUN.s:5991   .debug_str:000000000000098c .LASF216
     /tmp/cc5R1iUN.s:6121   .debug_str:0000000000000e01 .LASF218
     /tmp/cc5R1iUN.s:6069   .debug_str:0000000000000c78 .LASF217
     /tmp/cc5R1iUN.s:37     .text:000000000000002c .LVL1
     /tmp/cc5R1iUN.s:46     .text:000000000000003c .LVL2
     /tmp/cc5R1iUN.s:936    .text:00000000000004d8 .LVL86
     /tmp/cc5R1iUN.s:979    .text:0000000000000508 .LVL91
     /tmp/cc5R1iUN.s:944    .text:00000000000004e4 .LVL87
     /tmp/cc5R1iUN.s:950    .text:00000000000004e8 .LVL88
     /tmp/cc5R1iUN.s:967    .text:0000000000000500 .LVL89
     /tmp/cc5R1iUN.s:973    .text:0000000000000504 .LVL90
     /tmp/cc5R1iUN.s:886    .text:0000000000000490 .LVL80
     /tmp/cc5R1iUN.s:893    .text:0000000000000498 .LVL81
     /tmp/cc5R1iUN.s:753    .text:00000000000003e0 .LVL68
     /tmp/cc5R1iUN.s:768    .text:0000000000000400 .LVL69
     /tmp/cc5R1iUN.s:846    .text:0000000000000450 .LVL77
     /tmp/cc5R1iUN.s:821    .text:0000000000000430 .LVL75
     /tmp/cc5R1iUN.s:831    .text:0000000000000440 .LVL76
     /tmp/cc5R1iUN.s:778    .text:0000000000000408 .LVL70
     /tmp/cc5R1iUN.s:794    .text:0000000000000414 .LVL72
     /tmp/cc5R1iUN.s:814    .text:000000000000042c .LVL74
     /tmp/cc5R1iUN.s:639    .text:0000000000000350 .LVL57
     /tmp/cc5R1iUN.s:677    .text:0000000000000384 .LVL60
     /tmp/cc5R1iUN.s:726    .text:00000000000003c8 .LVL66
     /tmp/cc5R1iUN.s:732    .text:00000000000003d4 .LVL67
     /tmp/cc5R1iUN.s:646    .text:0000000000000354 .LVL58
     /tmp/cc5R1iUN.s:670    .text:0000000000000380 .LVL59
     /tmp/cc5R1iUN.s:699    .text:00000000000003a4 .LVL63
     /tmp/cc5R1iUN.s:687    .text:0000000000000394 .LVL62
     /tmp/cc5R1iUN.s:710    .text:00000000000003b4 .LVL64
     /tmp/cc5R1iUN.s:559    .text:00000000000002ec .LVL51
     /tmp/cc5R1iUN.s:566    .text:00000000000002f4 .LVL52
     /tmp/cc5R1iUN.s:358    .text:00000000000001f0 .LVL27
     /tmp/cc5R1iUN.s:511    .text:00000000000002a4 .LVL47
     /tmp/cc5R1iUN.s:517    .text:00000000000002b0 .LVL48
     /tmp/cc5R1iUN.s:365    .text:00000000000001f4 .LVL28
     /tmp/cc5R1iUN.s:370    .text:00000000000001f8 .LVL29
     /tmp/cc5R1iUN.s:376    .text:00000000000001fc .LVL30
     /tmp/cc5R1iUN.s:381    .text:0000000000000200 .LVL31
     /tmp/cc5R1iUN.s:387    .text:0000000000000204 .LVL32
     /tmp/cc5R1iUN.s:392    .text:0000000000000208 .LVL33
     /tmp/cc5R1iUN.s:398    .text:000000000000020c .LVL34
     /tmp/cc5R1iUN.s:405    .text:0000000000000210 .LVL35
     /tmp/cc5R1iUN.s:411    .text:0000000000000214 .LVL36
     /tmp/cc5R1iUN.s:428    .text:000000000000022c .LVL37
     /tmp/cc5R1iUN.s:434    .text:0000000000000230 .LVL38
     /tmp/cc5R1iUN.s:448    .text:000000000000023c .LVL39
     /tmp/cc5R1iUN.s:457    .text:000000000000024c .LVL40
     /tmp/cc5R1iUN.s:463    .text:0000000000000250 .LVL41
     /tmp/cc5R1iUN.s:526    .text:00000000000002c0 .LVL50
     /tmp/cc5R1iUN.s:475    .text:0000000000000264 .LVL42
     /tmp/cc5R1iUN.s:190    .text:0000000000000118 .LVL15
     /tmp/cc5R1iUN.s:220    .text:0000000000000148 .LVL17
     /tmp/cc5R1iUN.s:240    .text:0000000000000170 .LVL21
     /tmp/cc5R1iUN.s:267    .text:000000000000019c .LVL24
GAS LISTING /tmp/cc5R1iUN.s 			page 45


     /tmp/cc5R1iUN.s:270    .text:00000000000001a0 .LVL25
     /tmp/cc5R1iUN.s:273    .text:00000000000001a4 .LVL26
     /tmp/cc5R1iUN.s:211    .text:0000000000000144 .LVL16
     /tmp/cc5R1iUN.s:226    .text:0000000000000154 .LVL19
     /tmp/cc5R1iUN.s:62     .text:0000000000000040 .LVL3
     /tmp/cc5R1iUN.s:86     .text:0000000000000074 .LVL4
     /tmp/cc5R1iUN.s:151    .text:00000000000000f4 .LVL10
     /tmp/cc5R1iUN.s:163    .text:0000000000000108 .LVL13
     /tmp/cc5R1iUN.s:156    .text:00000000000000fc .LVL11
     /tmp/cc5R1iUN.s:159    .text:0000000000000100 .LVL12
     /tmp/cc5R1iUN.s:117    .text:00000000000000b4 .LVL7
     /tmp/cc5R1iUN.s:173    .text:0000000000000114 .LVL14
     /tmp/cc5R1iUN.s:97     .text:0000000000000084 .LVL6
     /tmp/cc5R1iUN.s:132    .text:00000000000000e0 .LVL8
     /tmp/cc5R1iUN.s:138    .text:00000000000000e8 .LVL9
     /tmp/cc5R1iUN.s:1068   .debug_info:0000000000000000 .Ldebug_info0
     /tmp/cc5R1iUN.s:484    .text:000000000000026c .LBE108
     /tmp/cc5R1iUN.s:528    .text:00000000000002c0 .LBB113
     /tmp/cc5R1iUN.s:534    .text:00000000000002cc .LBE113
     /tmp/cc5R1iUN.s:701    .text:00000000000003a4 .LBE120
     /tmp/cc5R1iUN.s:735    .text:00000000000003d4 .LBB129
     /tmp/cc5R1iUN.s:742    .text:00000000000003e0 .LBE129
     /tmp/cc5R1iUN.s:770    .text:0000000000000400 .LBB130
     /tmp/cc5R1iUN.s:803    .text:0000000000000420 .LBE130
     /tmp/cc5R1iUN.s:819    .text:0000000000000430 .LBB141
     /tmp/cc5R1iUN.s:835    .text:0000000000000440 .LBE141
     /tmp/cc5R1iUN.s:787    .text:0000000000000410 .LBE131
     /tmp/cc5R1iUN.s:822    .text:0000000000000430 .LBB138
     /tmp/cc5R1iUN.s:834    .text:0000000000000440 .LBE138
     /tmp/cc5R1iUN.s:281    .gcc_except_table:0000000000000000 .LLSDA57

UNDEFINED SYMBOLS
_Znwm
_ZN15memoryAllocator8allocateEm
_ZN15memoryAllocator10deallocateEPv
_Unwind_Resume
__gxx_personality_v0
_ZN9Scheduler3putEP3TCB
_ZN9Scheduler3getEv
_ZN3TCB13contextSwitchEPNS_7ContextES1_
_ZN5Riscv10popSppSpieEv
