GAS LISTING /tmp/ccQH1Rh9.s 			page 1


   1              		.file	"userMain.cpp"
   2              		.option pic
   3              		.option norelax
   4              		.text
   5              	.Ltext0:
   6              		.section	.rodata.str1.8,"aMS",@progbits,1
   7              		.align	3
   8              	.LC0:
   9 0000 556E6573 		.string	"Unesite broj testa? [1-7]\n"
   9      69746520 
   9      62726F6A 
   9      20746573 
   9      74613F20 
  10 001b 00000000 		.align	3
  10      00
  11              	.LC1:
  12 0020 4E696A65 		.string	"Nije navedeno da je zadatak 4 implementiran\n"
  12      206E6176 
  12      6564656E 
  12      6F206461 
  12      206A6520 
  13 004d 000000   		.align	3
  14              	.LC2:
  15 0050 54455354 		.string	"TEST 1 (zadatak 2, niti C API i sinhrona promena konteksta)\n"
  15      20312028 
  15      7A616461 
  15      74616B20 
  15      322C206E 
  16 008d 000000   		.align	3
  17              	.LC3:
  18 0090 54455354 		.string	"TEST 2 (zadatak 2., niti CPP API i sinhrona promena konteksta)\n"
  18      20322028 
  18      7A616461 
  18      74616B20 
  18      322E2C20 
  19              		.align	3
  20              	.LC4:
  21 00d0 54455354 		.string	"TEST 3 (zadatak 3., kompletan C API sa semaforima, sinhrona promena konteksta)\n"
  21      20332028 
  21      7A616461 
  21      74616B20 
  21      332E2C20 
  22              		.align	3
  23              	.LC5:
  24 0120 54455354 		.string	"TEST 4 (zadatak 3., kompletan CPP API sa semaforima, sinhrona promena konteksta)\n"
  24      20342028 
  24      7A616461 
  24      74616B20 
  24      332E2C20 
  25 0172 00000000 		.align	3
  25      0000
  26              	.LC6:
  27 0178 54657374 		.string	"Test se nije uspesno zavrsio\n"
  27      20736520 
  27      6E696A65 
  27      20757370 
  27      65736E6F 
GAS LISTING /tmp/ccQH1Rh9.s 			page 2


  28 0196 0000     		.align	3
  29              	.LC7:
  30 0198 54455354 		.string	"TEST 7 (zadatak 2., testiranje da li se korisnicki kod izvrsava u korisnickom rezimu)\n"
  30      20372028 
  30      7A616461 
  30      74616B20 
  30      322E2C20 
  31 01ef 00       		.align	3
  32              	.LC8:
  33 01f0 54455354 		.string	"TEST get thread id radi super! \n"
  33      20676574 
  33      20746872 
  33      65616420 
  33      69642072 
  34 0211 00000000 		.align	3
  34      000000
  35              	.LC9:
  36 0218 54455354 		.string	"TEST join thread radi super! \n"
  36      206A6F69 
  36      6E207468 
  36      72656164 
  36      20726164 
  37 0237 00       		.align	3
  38              	.LC10:
  39 0238 4E697374 		.string	"Niste uneli odgovarajuci broj za test\n"
  39      6520756E 
  39      656C6920 
  39      6F64676F 
  39      76617261 
  40              		.text
  41              		.align	2
  42              		.globl	_Z8userMainv
  44              	_Z8userMainv:
  45              	.LFB44:
  46              		.file 1 "src/userMain.cpp"
   1:src/userMain.cpp **** #include "../test/printing.hpp"
   2:src/userMain.cpp **** 
   3:src/userMain.cpp **** #define LEVEL_1_IMPLEMENTED 0
   4:src/userMain.cpp **** #define LEVEL_2_IMPLEMENTED 1
   5:src/userMain.cpp **** #define LEVEL_3_IMPLEMENTED 1
   6:src/userMain.cpp **** #define LEVEL_4_IMPLEMENTED 0
   7:src/userMain.cpp **** 
   8:src/userMain.cpp **** #if LEVEL_2_IMPLEMENTED == 1
   9:src/userMain.cpp **** // TEST 1 (zadatak 2, niti C API i sinhrona promena konteksta)
  10:src/userMain.cpp **** #include "../test/Threads_C_API_test.hpp"
  11:src/userMain.cpp **** // TEST 2 (zadatak 2., niti CPP API i sinhrona promena konteksta)
  12:src/userMain.cpp **** #include "../test/Threads_CPP_API_test.hpp"
  13:src/userMain.cpp **** // // TEST 7 (zadatak 2., testiranje da li se korisnicki kod izvrsava u korisnickom rezimu)
  14:src/userMain.cpp **** #include "../test/System_Mode_test.hpp"
  15:src/userMain.cpp **** #endif
  16:src/userMain.cpp **** 
  17:src/userMain.cpp **** #if LEVEL_3_IMPLEMENTED == 1
  18:src/userMain.cpp **** // TEST 3 (zadatak 3., kompletan C API sa semaforima, sinhrona promena konteksta)
  19:src/userMain.cpp **** #include "../test/ConsumerProducer_C_API_test.hpp"
  20:src/userMain.cpp **** // TEST 4 (zadatak 3., kompletan CPP API sa semaforima, sinhrona promena konteksta)
  21:src/userMain.cpp **** #include "../test/ConsumerProducer_CPP_Sync_API_test.hpp"
  22:src/userMain.cpp **** // moj test 1
GAS LISTING /tmp/ccQH1Rh9.s 			page 3


  23:src/userMain.cpp **** #include  "../test/GET_THREAD_ID_TEST.hpp"
  24:src/userMain.cpp **** //moj test 2
  25:src/userMain.cpp **** #include  "../test/THREAD_JOIN_TEST.hpp"
  26:src/userMain.cpp **** #endif
  27:src/userMain.cpp **** 
  28:src/userMain.cpp **** #if LEVEL_4_IMPLEMENTED == 1
  29:src/userMain.cpp **** // // TEST 5 (zadatak 4., thread_sleep test C API)
  30:src/userMain.cpp **** // #include "../test/ThreadSleep_C_API_test.hpp"
  31:src/userMain.cpp **** // // TEST 6 (zadatak 4. CPP API i asinhrona promena konteksta)
  32:src/userMain.cpp **** // #include "../test/ConsumerProducer_CPP_API_test.hpp"
  33:src/userMain.cpp **** // #include "System_Mode_test.hpp"
  34:src/userMain.cpp **** 
  35:src/userMain.cpp **** #endif
  36:src/userMain.cpp **** 
  37:src/userMain.cpp **** void userMain() {
  47              		.loc 1 37 17
  48              		.cfi_startproc
  49 0000 130101FE 		addi	sp,sp,-32
  50              		.cfi_def_cfa_offset 32
  51 0004 233C1100 		sd	ra,24(sp)
  52 0008 23388100 		sd	s0,16(sp)
  53 000c 23349100 		sd	s1,8(sp)
  54 0010 23302101 		sd	s2,0(sp)
  55              		.cfi_offset 1, -8
  56              		.cfi_offset 8, -16
  57              		.cfi_offset 9, -24
  58              		.cfi_offset 18, -32
  59 0014 13040102 		addi	s0,sp,32
  60              		.cfi_def_cfa 8, 0
  38:src/userMain.cpp ****     printString("Unesite broj testa? [1-7]\n");
  61              		.loc 1 38 5
  62              		.loc 1 38 16 is_stmt 0
  63 0018 17050000 		lla	a0,.LC0
  63      13050500 
  64 0020 97000000 		call	_Z11printStringPKc@plt
  64      E7800000 
  65              	.LVL0:
  39:src/userMain.cpp ****     int test = getc() - '0';
  66              		.loc 1 39 5 is_stmt 1
  67              		.loc 1 39 20 is_stmt 0
  68 0028 97000000 		call	_Z4getcv@plt
  68      E7800000 
  69              	.LVL1:
  70 0030 13090500 		mv	s2,a0
  71              		.loc 1 39 25
  72 0034 9B0405FD 		addiw	s1,a0,-48
  73              	.LVL2:
  40:src/userMain.cpp ****     getc(); // Enter posle broja
  74              		.loc 1 40 5 is_stmt 1
  75              		.loc 1 40 9 is_stmt 0
  76 0038 97000000 		call	_Z4getcv@plt
  76      E7800000 
  77              	.LVL3:
  41:src/userMain.cpp **** 
  42:src/userMain.cpp ****     if ((test >= 1 && test <= 2) || test == 7) {
  78              		.loc 1 42 5 is_stmt 1
  43:src/userMain.cpp ****         if (LEVEL_2_IMPLEMENTED == 0) {
GAS LISTING /tmp/ccQH1Rh9.s 			page 4


  44:src/userMain.cpp ****             printString("Nije navedeno da je zadatak 2 implementiran\n");
  45:src/userMain.cpp ****             return;
  46:src/userMain.cpp ****         }
  47:src/userMain.cpp ****     }
  48:src/userMain.cpp **** 
  49:src/userMain.cpp ****     if (test >= 3 && test <= 4) {
  79              		.loc 1 49 5
  50:src/userMain.cpp ****         if (LEVEL_3_IMPLEMENTED == 0) {
  51:src/userMain.cpp ****             printString("Nije navedeno da je zadatak 3 implementiran\n");
  52:src/userMain.cpp ****             return;
  53:src/userMain.cpp ****         }
  54:src/userMain.cpp ****     }
  55:src/userMain.cpp **** 
  56:src/userMain.cpp ****     if (test >= 5 && test <= 6) {
  80              		.loc 1 56 5
  81              		.loc 1 56 19 is_stmt 0
  82 0040 1B09B9FC 		addiw	s2,s2,-53
  83              		.loc 1 56 5
  84 0044 93071000 		li	a5,1
  85 0048 63F42703 		bleu	s2,a5,.L14
  57:src/userMain.cpp ****         if (LEVEL_4_IMPLEMENTED == 0) {
  58:src/userMain.cpp ****             printString("Nije navedeno da je zadatak 4 implementiran\n");
  59:src/userMain.cpp ****             return;
  60:src/userMain.cpp ****         }
  61:src/userMain.cpp ****     }
  62:src/userMain.cpp **** 
  63:src/userMain.cpp ****     switch (test) {
  86              		.loc 1 63 5 is_stmt 1
  87 004c 93079000 		li	a5,9
  88 0050 63E09710 		bgtu	s1,a5,.L4
  89 0054 93942400 		slli	s1,s1,2
  90 0058 17070000 		lla	a4,.L6
  90      13070700 
  91 0060 B384E400 		add	s1,s1,a4
  92 0064 83A70400 		lw	a5,0(s1)
  93 0068 B387E700 		add	a5,a5,a4
  94 006c 67800700 		jr	a5
  95              		.section	.rodata
  96              		.align	2
  97              		.align	2
  98              	.L6:
  99 0000 00000000 		.word	.L4-.L6
 100 0004 00000000 		.word	.L12-.L6
 101 0008 00000000 		.word	.L11-.L6
 102 000c 00000000 		.word	.L10-.L6
 103 0010 00000000 		.word	.L9-.L6
 104 0014 00000000 		.word	.L1-.L6
 105 0018 00000000 		.word	.L1-.L6
 106 001c 00000000 		.word	.L8-.L6
 107 0020 00000000 		.word	.L7-.L6
 108 0024 00000000 		.word	.L5-.L6
 109              		.text
 110              	.L14:
  57:src/userMain.cpp ****         if (LEVEL_4_IMPLEMENTED == 0) {
 111              		.loc 1 57 9
  58:src/userMain.cpp ****             return;
 112              		.loc 1 58 13
GAS LISTING /tmp/ccQH1Rh9.s 			page 5


  58:src/userMain.cpp ****             return;
 113              		.loc 1 58 24 is_stmt 0
 114 0070 17050000 		lla	a0,.LC1
 114      13050500 
 115 0078 97000000 		call	_Z11printStringPKc@plt
 115      E7800000 
 116              	.LVL4:
  59:src/userMain.cpp ****         }
 117              		.loc 1 59 13 is_stmt 1
 118 0080 6F00000E 		j	.L1
 119              	.L12:
  64:src/userMain.cpp ****         case 1:
 120              		.loc 1 64 9
  65:src/userMain.cpp **** #if LEVEL_2_IMPLEMENTED == 1
  66:src/userMain.cpp ****             Threads_C_API_test();
 121              		.loc 1 66 13
 122              		.loc 1 66 31 is_stmt 0
 123 0084 97000000 		call	_Z18Threads_C_API_testv@plt
 123      E7800000 
 124              	.LVL5:
  67:src/userMain.cpp ****             printString("TEST 1 (zadatak 2, niti C API i sinhrona promena konteksta)\n");
 125              		.loc 1 67 13 is_stmt 1
 126              		.loc 1 67 24 is_stmt 0
 127 008c 17050000 		lla	a0,.LC2
 127      13050500 
 128 0094 97000000 		call	_Z11printStringPKc@plt
 128      E7800000 
 129              	.LVL6:
  68:src/userMain.cpp **** #endif
  69:src/userMain.cpp ****             break;
 130              		.loc 1 69 13 is_stmt 1
 131 009c 6F00400C 		j	.L1
 132              	.L11:
  70:src/userMain.cpp ****             case 2:
 133              		.loc 1 70 13
  71:src/userMain.cpp **** #if LEVEL_2_IMPLEMENTED == 1
  72:src/userMain.cpp ****             Threads_CPP_API_test();
 134              		.loc 1 72 13
 135              		.loc 1 72 33 is_stmt 0
 136 00a0 97000000 		call	_Z20Threads_CPP_API_testv@plt
 136      E7800000 
 137              	.LVL7:
  73:src/userMain.cpp ****             printString("TEST 2 (zadatak 2., niti CPP API i sinhrona promena konteksta)\n");
 138              		.loc 1 73 13 is_stmt 1
 139              		.loc 1 73 24 is_stmt 0
 140 00a8 17050000 		lla	a0,.LC3
 140      13050500 
 141 00b0 97000000 		call	_Z11printStringPKc@plt
 141      E7800000 
 142              	.LVL8:
  74:src/userMain.cpp **** #endif
  75:src/userMain.cpp ****             break;
 143              		.loc 1 75 13 is_stmt 1
 144 00b8 6F00800A 		j	.L1
 145              	.L10:
  76:src/userMain.cpp ****         case 3:
 146              		.loc 1 76 9
GAS LISTING /tmp/ccQH1Rh9.s 			page 6


  77:src/userMain.cpp **** #if LEVEL_3_IMPLEMENTED == 1
  78:src/userMain.cpp ****             producerConsumer_C_API();
 147              		.loc 1 78 13
 148              		.loc 1 78 35 is_stmt 0
 149 00bc 97000000 		call	_Z22producerConsumer_C_APIv@plt
 149      E7800000 
 150              	.LVL9:
  79:src/userMain.cpp ****             printString("TEST 3 (zadatak 3., kompletan C API sa semaforima, sinhrona promena kontek
 151              		.loc 1 79 13 is_stmt 1
 152              		.loc 1 79 24 is_stmt 0
 153 00c4 17050000 		lla	a0,.LC4
 153      13050500 
 154 00cc 97000000 		call	_Z11printStringPKc@plt
 154      E7800000 
 155              	.LVL10:
  80:src/userMain.cpp **** #endif
  81:src/userMain.cpp ****             break;
 156              		.loc 1 81 13 is_stmt 1
 157 00d4 6F00C008 		j	.L1
 158              	.L9:
  82:src/userMain.cpp ****         case 4:
 159              		.loc 1 82 9
  83:src/userMain.cpp **** #if LEVEL_3_IMPLEMENTED == 1
  84:src/userMain.cpp ****             producerConsumer_CPP_Sync_API();
 160              		.loc 1 84 13
 161              		.loc 1 84 42 is_stmt 0
 162 00d8 97000000 		call	_Z29producerConsumer_CPP_Sync_APIv@plt
 162      E7800000 
 163              	.LVL11:
  85:src/userMain.cpp ****             printString("TEST 4 (zadatak 3., kompletan CPP API sa semaforima, sinhrona promena kont
 164              		.loc 1 85 13 is_stmt 1
 165              		.loc 1 85 24 is_stmt 0
 166 00e0 17050000 		lla	a0,.LC5
 166      13050500 
 167 00e8 97000000 		call	_Z11printStringPKc@plt
 167      E7800000 
 168              	.LVL12:
  86:src/userMain.cpp **** #endif
  87:src/userMain.cpp ****             break;
 169              		.loc 1 87 13 is_stmt 1
 170 00f0 6F000007 		j	.L1
 171              	.L8:
  88:src/userMain.cpp ****         case 5:
  89:src/userMain.cpp **** #if LEVEL_4_IMPLEMENTED == 1
  90:src/userMain.cpp ****             // testSleeping();
  91:src/userMain.cpp ****             printString("TEST 5 (zadatak 4., thread_sleep test C API)\n");
  92:src/userMain.cpp **** #endif
  93:src/userMain.cpp ****             break;
  94:src/userMain.cpp ****         case 6:
  95:src/userMain.cpp **** #if LEVEL_4_IMPLEMENTED == 1
  96:src/userMain.cpp ****             // testConsumerProducer();
  97:src/userMain.cpp ****             printString("TEST 6 (zadatak 4. CPP API i asinhrona promena konteksta)\n");
  98:src/userMain.cpp **** #endif
  99:src/userMain.cpp ****             break;
 100:src/userMain.cpp ****         case 7:
 172              		.loc 1 100 9
 101:src/userMain.cpp **** #if LEVEL_2_IMPLEMENTED == 1
GAS LISTING /tmp/ccQH1Rh9.s 			page 7


 102:src/userMain.cpp ****             System_Mode_test();
 173              		.loc 1 102 13
 174              		.loc 1 102 29 is_stmt 0
 175 00f4 97000000 		call	_Z16System_Mode_testv@plt
 175      E7800000 
 176              	.LVL13:
 103:src/userMain.cpp ****             printString("Test se nije uspesno zavrsio\n");
 177              		.loc 1 103 13 is_stmt 1
 178              		.loc 1 103 24 is_stmt 0
 179 00fc 17050000 		lla	a0,.LC6
 179      13050500 
 180 0104 97000000 		call	_Z11printStringPKc@plt
 180      E7800000 
 181              	.LVL14:
 104:src/userMain.cpp ****             printString("TEST 7 (zadatak 2., testiranje da li se korisnicki kod izvrsava u korisnic
 182              		.loc 1 104 13 is_stmt 1
 183              		.loc 1 104 24 is_stmt 0
 184 010c 17050000 		lla	a0,.LC7
 184      13050500 
 185 0114 97000000 		call	_Z11printStringPKc@plt
 185      E7800000 
 186              	.LVL15:
 105:src/userMain.cpp **** #endif
 106:src/userMain.cpp ****             break;
 187              		.loc 1 106 13 is_stmt 1
 188 011c 6F004004 		j	.L1
 189              	.L7:
 107:src/userMain.cpp ****         case 8:
 190              		.loc 1 107 9
 108:src/userMain.cpp **** #if LEVEL_3_IMPLEMENTED == 1
 109:src/userMain.cpp ****             get_thread_id();
 191              		.loc 1 109 13
 192              		.loc 1 109 26 is_stmt 0
 193 0120 97000000 		call	_Z13get_thread_idv@plt
 193      E7800000 
 194              	.LVL16:
 110:src/userMain.cpp ****             printString("TEST get thread id radi super! \n");
 195              		.loc 1 110 13 is_stmt 1
 196              		.loc 1 110 24 is_stmt 0
 197 0128 17050000 		lla	a0,.LC8
 197      13050500 
 198 0130 97000000 		call	_Z11printStringPKc@plt
 198      E7800000 
 199              	.LVL17:
 200              	.L5:
 111:src/userMain.cpp **** #endif
 112:src/userMain.cpp ****         case 9:
 201              		.loc 1 112 9 is_stmt 1
 113:src/userMain.cpp **** #if LEVEL_3_IMPLEMENTED == 1
 114:src/userMain.cpp ****             join_thread();
 202              		.loc 1 114 13
 203              		.loc 1 114 24 is_stmt 0
 204 0138 97000000 		call	_Z11join_threadv@plt
 204      E7800000 
 205              	.LVL18:
 115:src/userMain.cpp ****             printString("TEST join thread radi super! \n");
 206              		.loc 1 115 13 is_stmt 1
GAS LISTING /tmp/ccQH1Rh9.s 			page 8


 207              		.loc 1 115 24 is_stmt 0
 208 0140 17050000 		lla	a0,.LC9
 208      13050500 
 209 0148 97000000 		call	_Z11printStringPKc@plt
 209      E7800000 
 210              	.LVL19:
 211              	.L4:
 116:src/userMain.cpp **** #endif
 117:src/userMain.cpp ****         default:
 212              		.loc 1 117 9 is_stmt 1
 118:src/userMain.cpp ****             printString("Niste uneli odgovarajuci broj za test\n");
 213              		.loc 1 118 13
 214              		.loc 1 118 24 is_stmt 0
 215 0150 17050000 		lla	a0,.LC10
 215      13050500 
 216 0158 97000000 		call	_Z11printStringPKc@plt
 216      E7800000 
 217              	.LVL20:
 218              	.L1:
 119:src/userMain.cpp ****     }
 120:src/userMain.cpp **** }...
 219              		.loc 1 120 1
 220 0160 83308101 		ld	ra,24(sp)
 221              		.cfi_restore 1
 222 0164 03340101 		ld	s0,16(sp)
 223              		.cfi_restore 8
 224              		.cfi_def_cfa 2, 32
 225 0168 83348100 		ld	s1,8(sp)
 226              		.cfi_restore 9
 227 016c 03390100 		ld	s2,0(sp)
 228              		.cfi_restore 18
 229 0170 13010102 		addi	sp,sp,32
 230              		.cfi_def_cfa_offset 0
 231 0174 67800000 		jr	ra
 232              		.cfi_endproc
 233              	.LFE44:
 235              	.Letext0:
 236              		.file 2 "src/../test/../h/../lib/hw.h"
 237              		.file 3 "src/../test/printing.hpp"
 238              		.file 4 "src/../test/../h/syscall_c.hpp"
 239              		.file 5 "src/../test/Threads_C_API_test.hpp"
 240              		.file 6 "src/../test/Threads_CPP_API_test.hpp"
 241              		.file 7 "src/../test/ConsumerProducer_C_API_test.hpp"
 242              		.file 8 "src/../test/ConsumerProducer_CPP_Sync_API_test.hpp"
 243              		.file 9 "src/../test/System_Mode_test.hpp"
 244              		.file 10 "src/../test/GET_THREAD_ID_TEST.hpp"
 245              		.file 11 "src/../test/THREAD_JOIN_TEST.hpp"
GAS LISTING /tmp/ccQH1Rh9.s 			page 9

