GAS LISTING /tmp/ccBzByGG.s 			page 1


   1              		.file	"buffer.cpp"
   2              		.option pic
   3              		.option norelax
   4              		.text
   5              	.Ltext0:
   6              		.align	2
   7              		.globl	_ZN6BufferC2Ei
   9              	_ZN6BufferC2Ei:
  10              	.LFB45:
  11              		.file 1 "test/buffer.cpp"
   1:test/buffer.cpp **** #include "buffer.hpp"
   2:test/buffer.cpp **** 
   3:test/buffer.cpp **** Buffer::Buffer(int _cap) : cap(_cap + 1), head(0), tail(0) {
  12              		.loc 1 3 1
  13              		.cfi_startproc
  14              	.LVL0:
  15 0000 130101FE 		addi	sp,sp,-32
  16              		.cfi_def_cfa_offset 32
  17 0004 233C1100 		sd	ra,24(sp)
  18 0008 23388100 		sd	s0,16(sp)
  19 000c 23349100 		sd	s1,8(sp)
  20 0010 23302101 		sd	s2,0(sp)
  21              		.cfi_offset 1, -8
  22              		.cfi_offset 8, -16
  23              		.cfi_offset 9, -24
  24              		.cfi_offset 18, -32
  25 0014 13040102 		addi	s0,sp,32
  26              		.cfi_def_cfa 8, 0
  27 0018 93040500 		mv	s1,a0
  28 001c 13890500 		mv	s2,a1
  29              	.LBB2:
  30              		.loc 1 3 37 is_stmt 0
  31 0020 9B871500 		addiw	a5,a1,1
  32 0024 1B850700 		sext.w	a0,a5
  33              	.LVL1:
  34              		.loc 1 3 58
  35 0028 23A0F400 		sw	a5,0(s1)
  36 002c 23A80400 		sw	zero,16(s1)
  37 0030 23AA0400 		sw	zero,20(s1)
   4:test/buffer.cpp ****     buffer = (int *)mem_alloc(sizeof(int) * cap);
  38              		.loc 1 4 5 is_stmt 1
  39              		.loc 1 4 30 is_stmt 0
  40 0034 13152500 		slli	a0,a0,2
  41 0038 97000000 		call	_Z9mem_allocm@plt
  41      E7800000 
  42              	.LVL2:
  43              		.loc 1 4 12
  44 0040 23B4A400 		sd	a0,8(s1)
   5:test/buffer.cpp ****     sem_open(&itemAvailable, 0);
  45              		.loc 1 5 5 is_stmt 1
  46              		.loc 1 5 13 is_stmt 0
  47 0044 93050000 		li	a1,0
  48 0048 13850402 		addi	a0,s1,32
  49 004c 97000000 		call	_Z8sem_openPP3semj@plt
  49      E7800000 
  50              	.LVL3:
   6:test/buffer.cpp ****     sem_open(&spaceAvailable, _cap);
GAS LISTING /tmp/ccBzByGG.s 			page 2


  51              		.loc 1 6 5 is_stmt 1
  52              		.loc 1 6 13 is_stmt 0
  53 0054 93050900 		mv	a1,s2
  54 0058 13858401 		addi	a0,s1,24
  55 005c 97000000 		call	_Z8sem_openPP3semj@plt
  55      E7800000 
  56              	.LVL4:
   7:test/buffer.cpp ****     sem_open(&mutexHead, 1);
  57              		.loc 1 7 5 is_stmt 1
  58              		.loc 1 7 13 is_stmt 0
  59 0064 93051000 		li	a1,1
  60 0068 13858402 		addi	a0,s1,40
  61 006c 97000000 		call	_Z8sem_openPP3semj@plt
  61      E7800000 
  62              	.LVL5:
   8:test/buffer.cpp ****     sem_open(&mutexTail, 1);
  63              		.loc 1 8 5 is_stmt 1
  64              		.loc 1 8 13 is_stmt 0
  65 0074 93051000 		li	a1,1
  66 0078 13850403 		addi	a0,s1,48
  67 007c 97000000 		call	_Z8sem_openPP3semj@plt
  67      E7800000 
  68              	.LVL6:
  69              	.LBE2:
   9:test/buffer.cpp **** }
  70              		.loc 1 9 1
  71 0084 83308101 		ld	ra,24(sp)
  72              		.cfi_restore 1
  73 0088 03340101 		ld	s0,16(sp)
  74              		.cfi_restore 8
  75              		.cfi_def_cfa 2, 32
  76 008c 83348100 		ld	s1,8(sp)
  77              		.cfi_restore 9
  78              	.LVL7:
  79 0090 03390100 		ld	s2,0(sp)
  80              		.cfi_restore 18
  81 0094 13010102 		addi	sp,sp,32
  82              		.cfi_def_cfa_offset 0
  83 0098 67800000 		jr	ra
  84              		.cfi_endproc
  85              	.LFE45:
  87              		.globl	_ZN6BufferC1Ei
  88              		.set	_ZN6BufferC1Ei,_ZN6BufferC2Ei
  89              		.align	2
  90              		.globl	_ZN6Buffer3putEi
  92              	_ZN6Buffer3putEi:
  93              	.LFB50:
  10:test/buffer.cpp **** 
  11:test/buffer.cpp **** Buffer::~Buffer() {
  12:test/buffer.cpp ****     putc('\n');
  13:test/buffer.cpp ****     printString("Buffer deleted!\n");
  14:test/buffer.cpp ****     while (getCnt() > 0) {
  15:test/buffer.cpp ****         char ch = buffer[head];
  16:test/buffer.cpp ****         putc(ch);
  17:test/buffer.cpp ****         head = (head + 1) % cap;
  18:test/buffer.cpp ****     }
  19:test/buffer.cpp ****     putc('!');
GAS LISTING /tmp/ccBzByGG.s 			page 3


  20:test/buffer.cpp ****     putc('\n');
  21:test/buffer.cpp **** 
  22:test/buffer.cpp ****     mem_free(buffer);
  23:test/buffer.cpp ****     sem_close(itemAvailable);
  24:test/buffer.cpp ****     sem_close(spaceAvailable);
  25:test/buffer.cpp ****     sem_close(mutexTail);
  26:test/buffer.cpp ****     sem_close(mutexHead);
  27:test/buffer.cpp **** 
  28:test/buffer.cpp **** }
  29:test/buffer.cpp **** 
  30:test/buffer.cpp **** void Buffer::put(int val) {
  94              		.loc 1 30 27 is_stmt 1
  95              		.cfi_startproc
  96              	.LVL8:
  97 009c 130101FE 		addi	sp,sp,-32
  98              		.cfi_def_cfa_offset 32
  99 00a0 233C1100 		sd	ra,24(sp)
 100 00a4 23388100 		sd	s0,16(sp)
 101 00a8 23349100 		sd	s1,8(sp)
 102 00ac 23302101 		sd	s2,0(sp)
 103              		.cfi_offset 1, -8
 104              		.cfi_offset 8, -16
 105              		.cfi_offset 9, -24
 106              		.cfi_offset 18, -32
 107 00b0 13040102 		addi	s0,sp,32
 108              		.cfi_def_cfa 8, 0
 109 00b4 93040500 		mv	s1,a0
 110 00b8 13890500 		mv	s2,a1
  31:test/buffer.cpp ****     sem_wait(spaceAvailable);
 111              		.loc 1 31 5
 112              		.loc 1 31 13 is_stmt 0
 113 00bc 03358501 		ld	a0,24(a0)
 114              	.LVL9:
 115 00c0 97000000 		call	_Z8sem_waitP3sem@plt
 115      E7800000 
 116              	.LVL10:
  32:test/buffer.cpp **** 
  33:test/buffer.cpp ****     sem_wait(mutexTail);
 117              		.loc 1 33 5 is_stmt 1
 118              		.loc 1 33 13 is_stmt 0
 119 00c8 03B50403 		ld	a0,48(s1)
 120 00cc 97000000 		call	_Z8sem_waitP3sem@plt
 120      E7800000 
 121              	.LVL11:
  34:test/buffer.cpp ****     buffer[tail] = val;
 122              		.loc 1 34 5 is_stmt 1
 123 00d4 83B78400 		ld	a5,8(s1)
 124              		.loc 1 34 12 is_stmt 0
 125 00d8 03A74401 		lw	a4,20(s1)
 126              		.loc 1 34 16
 127 00dc 13172700 		slli	a4,a4,2
 128 00e0 B387E700 		add	a5,a5,a4
 129              		.loc 1 34 18
 130 00e4 23A02701 		sw	s2,0(a5)
  35:test/buffer.cpp ****     tail = (tail + 1) % cap;
 131              		.loc 1 35 5 is_stmt 1
 132              		.loc 1 35 13 is_stmt 0
GAS LISTING /tmp/ccBzByGG.s 			page 4


 133 00e8 83A74401 		lw	a5,20(s1)
 134              		.loc 1 35 18
 135 00ec 9B871700 		addiw	a5,a5,1
 136              		.loc 1 35 25
 137 00f0 03A70400 		lw	a4,0(s1)
 138              		.loc 1 35 23
 139 00f4 BBE7E702 		remw	a5,a5,a4
 140              		.loc 1 35 10
 141 00f8 23AAF400 		sw	a5,20(s1)
  36:test/buffer.cpp ****     sem_signal(mutexTail);
 142              		.loc 1 36 5 is_stmt 1
 143              		.loc 1 36 15 is_stmt 0
 144 00fc 03B50403 		ld	a0,48(s1)
 145 0100 97000000 		call	_Z10sem_signalP3sem@plt
 145      E7800000 
 146              	.LVL12:
  37:test/buffer.cpp **** 
  38:test/buffer.cpp ****     sem_signal(itemAvailable);
 147              		.loc 1 38 5 is_stmt 1
 148              		.loc 1 38 15 is_stmt 0
 149 0108 03B50402 		ld	a0,32(s1)
 150 010c 97000000 		call	_Z10sem_signalP3sem@plt
 150      E7800000 
 151              	.LVL13:
  39:test/buffer.cpp **** 
  40:test/buffer.cpp **** }
 152              		.loc 1 40 1
 153 0114 83308101 		ld	ra,24(sp)
 154              		.cfi_restore 1
 155 0118 03340101 		ld	s0,16(sp)
 156              		.cfi_restore 8
 157              		.cfi_def_cfa 2, 32
 158 011c 83348100 		ld	s1,8(sp)
 159              		.cfi_restore 9
 160              	.LVL14:
 161 0120 03390100 		ld	s2,0(sp)
 162              		.cfi_restore 18
 163 0124 13010102 		addi	sp,sp,32
 164              		.cfi_def_cfa_offset 0
 165 0128 67800000 		jr	ra
 166              		.cfi_endproc
 167              	.LFE50:
 169              		.align	2
 170              		.globl	_ZN6Buffer3getEv
 172              	_ZN6Buffer3getEv:
 173              	.LFB51:
  41:test/buffer.cpp **** 
  42:test/buffer.cpp **** int Buffer::get() {
 174              		.loc 1 42 19 is_stmt 1
 175              		.cfi_startproc
 176              	.LVL15:
 177 012c 130101FE 		addi	sp,sp,-32
 178              		.cfi_def_cfa_offset 32
 179 0130 233C1100 		sd	ra,24(sp)
 180 0134 23388100 		sd	s0,16(sp)
 181 0138 23349100 		sd	s1,8(sp)
 182 013c 23302101 		sd	s2,0(sp)
GAS LISTING /tmp/ccBzByGG.s 			page 5


 183              		.cfi_offset 1, -8
 184              		.cfi_offset 8, -16
 185              		.cfi_offset 9, -24
 186              		.cfi_offset 18, -32
 187 0140 13040102 		addi	s0,sp,32
 188              		.cfi_def_cfa 8, 0
 189 0144 93040500 		mv	s1,a0
  43:test/buffer.cpp ****     sem_wait(itemAvailable);
 190              		.loc 1 43 5
 191              		.loc 1 43 13 is_stmt 0
 192 0148 03350502 		ld	a0,32(a0)
 193              	.LVL16:
 194 014c 97000000 		call	_Z8sem_waitP3sem@plt
 194      E7800000 
 195              	.LVL17:
  44:test/buffer.cpp **** 
  45:test/buffer.cpp ****     sem_wait(mutexHead);
 196              		.loc 1 45 5 is_stmt 1
 197              		.loc 1 45 13 is_stmt 0
 198 0154 03B58402 		ld	a0,40(s1)
 199 0158 97000000 		call	_Z8sem_waitP3sem@plt
 199      E7800000 
 200              	.LVL18:
  46:test/buffer.cpp **** 
  47:test/buffer.cpp ****     int ret = buffer[head];
 201              		.loc 1 47 5 is_stmt 1
 202              		.loc 1 47 15 is_stmt 0
 203 0160 03B78400 		ld	a4,8(s1)
 204              		.loc 1 47 22
 205 0164 83A70401 		lw	a5,16(s1)
 206              		.loc 1 47 26
 207 0168 93962700 		slli	a3,a5,2
 208 016c 3307D700 		add	a4,a4,a3
 209              		.loc 1 47 9
 210 0170 03290700 		lw	s2,0(a4)
 211              	.LVL19:
  48:test/buffer.cpp ****     head = (head + 1) % cap;
 212              		.loc 1 48 5 is_stmt 1
 213              		.loc 1 48 18 is_stmt 0
 214 0174 9B871700 		addiw	a5,a5,1
 215              		.loc 1 48 25
 216 0178 03A70400 		lw	a4,0(s1)
 217              		.loc 1 48 23
 218 017c BBE7E702 		remw	a5,a5,a4
 219              		.loc 1 48 10
 220 0180 23A8F400 		sw	a5,16(s1)
  49:test/buffer.cpp ****     sem_signal(mutexHead);
 221              		.loc 1 49 5 is_stmt 1
 222              		.loc 1 49 15 is_stmt 0
 223 0184 03B58402 		ld	a0,40(s1)
 224 0188 97000000 		call	_Z10sem_signalP3sem@plt
 224      E7800000 
 225              	.LVL20:
  50:test/buffer.cpp **** 
  51:test/buffer.cpp ****     sem_signal(spaceAvailable);
 226              		.loc 1 51 5 is_stmt 1
 227              		.loc 1 51 15 is_stmt 0
GAS LISTING /tmp/ccBzByGG.s 			page 6


 228 0190 03B58401 		ld	a0,24(s1)
 229 0194 97000000 		call	_Z10sem_signalP3sem@plt
 229      E7800000 
 230              	.LVL21:
  52:test/buffer.cpp **** 
  53:test/buffer.cpp ****     return ret;
 231              		.loc 1 53 5 is_stmt 1
  54:test/buffer.cpp **** }
 232              		.loc 1 54 1 is_stmt 0
 233 019c 13050900 		mv	a0,s2
 234 01a0 83308101 		ld	ra,24(sp)
 235              		.cfi_restore 1
 236 01a4 03340101 		ld	s0,16(sp)
 237              		.cfi_restore 8
 238              		.cfi_def_cfa 2, 32
 239 01a8 83348100 		ld	s1,8(sp)
 240              		.cfi_restore 9
 241              	.LVL22:
 242 01ac 03390100 		ld	s2,0(sp)
 243              		.cfi_restore 18
 244              	.LVL23:
 245 01b0 13010102 		addi	sp,sp,32
 246              		.cfi_def_cfa_offset 0
 247 01b4 67800000 		jr	ra
 248              		.cfi_endproc
 249              	.LFE51:
 251              		.align	2
 252              		.globl	_ZN6Buffer6getCntEv
 254              	_ZN6Buffer6getCntEv:
 255              	.LFB52:
  55:test/buffer.cpp **** 
  56:test/buffer.cpp **** int Buffer::getCnt() {
 256              		.loc 1 56 22 is_stmt 1
 257              		.cfi_startproc
 258              	.LVL24:
 259 01b8 130101FE 		addi	sp,sp,-32
 260              		.cfi_def_cfa_offset 32
 261 01bc 233C1100 		sd	ra,24(sp)
 262 01c0 23388100 		sd	s0,16(sp)
 263 01c4 23349100 		sd	s1,8(sp)
 264 01c8 23302101 		sd	s2,0(sp)
 265              		.cfi_offset 1, -8
 266              		.cfi_offset 8, -16
 267              		.cfi_offset 9, -24
 268              		.cfi_offset 18, -32
 269 01cc 13040102 		addi	s0,sp,32
 270              		.cfi_def_cfa 8, 0
 271 01d0 93040500 		mv	s1,a0
  57:test/buffer.cpp ****     int ret;
 272              		.loc 1 57 5
  58:test/buffer.cpp **** 
  59:test/buffer.cpp ****     sem_wait(mutexHead);
 273              		.loc 1 59 5
 274              		.loc 1 59 13 is_stmt 0
 275 01d4 03358502 		ld	a0,40(a0)
 276              	.LVL25:
 277 01d8 97000000 		call	_Z8sem_waitP3sem@plt
GAS LISTING /tmp/ccBzByGG.s 			page 7


 277      E7800000 
 278              	.LVL26:
  60:test/buffer.cpp ****     sem_wait(mutexTail);
 279              		.loc 1 60 5 is_stmt 1
 280              		.loc 1 60 13 is_stmt 0
 281 01e0 03B50403 		ld	a0,48(s1)
 282 01e4 97000000 		call	_Z8sem_waitP3sem@plt
 282      E7800000 
 283              	.LVL27:
  61:test/buffer.cpp **** 
  62:test/buffer.cpp ****     if (tail >= head) {
 284              		.loc 1 62 5 is_stmt 1
 285              		.loc 1 62 9 is_stmt 0
 286 01ec 83A74401 		lw	a5,20(s1)
 287              		.loc 1 62 17
 288 01f0 03A90401 		lw	s2,16(s1)
 289              		.loc 1 62 5
 290 01f4 63CE2703 		blt	a5,s2,.L8
  63:test/buffer.cpp ****         ret = tail - head;
 291              		.loc 1 63 9 is_stmt 1
 292              		.loc 1 63 13 is_stmt 0
 293 01f8 3B892741 		subw	s2,a5,s2
 294              	.LVL28:
 295              	.L9:
  64:test/buffer.cpp ****     } else {
  65:test/buffer.cpp ****         ret = cap - head + tail;
  66:test/buffer.cpp ****     }
  67:test/buffer.cpp **** 
  68:test/buffer.cpp ****     sem_signal(mutexTail);
 296              		.loc 1 68 5 is_stmt 1
 297              		.loc 1 68 15 is_stmt 0
 298 01fc 03B50403 		ld	a0,48(s1)
 299 0200 97000000 		call	_Z10sem_signalP3sem@plt
 299      E7800000 
 300              	.LVL29:
  69:test/buffer.cpp ****     sem_signal(mutexHead);
 301              		.loc 1 69 5 is_stmt 1
 302              		.loc 1 69 15 is_stmt 0
 303 0208 03B58402 		ld	a0,40(s1)
 304 020c 97000000 		call	_Z10sem_signalP3sem@plt
 304      E7800000 
 305              	.LVL30:
  70:test/buffer.cpp **** 
  71:test/buffer.cpp ****     return ret;
 306              		.loc 1 71 5 is_stmt 1
  72:test/buffer.cpp **** }
 307              		.loc 1 72 1 is_stmt 0
 308 0214 13050900 		mv	a0,s2
 309 0218 83308101 		ld	ra,24(sp)
 310              		.cfi_remember_state
 311              		.cfi_restore 1
 312 021c 03340101 		ld	s0,16(sp)
 313              		.cfi_restore 8
 314              		.cfi_def_cfa 2, 32
 315 0220 83348100 		ld	s1,8(sp)
 316              		.cfi_restore 9
 317              	.LVL31:
GAS LISTING /tmp/ccBzByGG.s 			page 8


 318 0224 03390100 		ld	s2,0(sp)
 319              		.cfi_restore 18
 320              	.LVL32:
 321 0228 13010102 		addi	sp,sp,32
 322              		.cfi_def_cfa_offset 0
 323 022c 67800000 		jr	ra
 324              	.LVL33:
 325              	.L8:
 326              		.cfi_restore_state
  65:test/buffer.cpp ****     }
 327              		.loc 1 65 9 is_stmt 1
  65:test/buffer.cpp ****     }
 328              		.loc 1 65 15 is_stmt 0
 329 0230 03A70400 		lw	a4,0(s1)
  65:test/buffer.cpp ****     }
 330              		.loc 1 65 19
 331 0234 3B092741 		subw	s2,a4,s2
  65:test/buffer.cpp ****     }
 332              		.loc 1 65 13
 333 0238 3B09F900 		addw	s2,s2,a5
 334 023c 6FF01FFC 		j	.L9
 335              		.cfi_endproc
 336              	.LFE52:
 338              		.section	.rodata.str1.8,"aMS",@progbits,1
 339              		.align	3
 340              	.LC0:
 341 0000 42756666 		.string	"Buffer deleted!\n"
 341      65722064 
 341      656C6574 
 341      6564210A 
 341      00
 342              		.text
 343              		.align	2
 344              		.globl	_ZN6BufferD2Ev
 346              	_ZN6BufferD2Ev:
 347              	.LFB48:
  11:test/buffer.cpp ****     putc('\n');
 348              		.loc 1 11 1 is_stmt 1
 349              		.cfi_startproc
 350              		.cfi_personality 0x9b,DW.ref.__gxx_personality_v0
 351              		.cfi_lsda 0x1b,.LLSDA48
 352              	.LVL34:
 353 0240 130101FE 		addi	sp,sp,-32
 354              		.cfi_def_cfa_offset 32
 355 0244 233C1100 		sd	ra,24(sp)
 356 0248 23388100 		sd	s0,16(sp)
 357 024c 23349100 		sd	s1,8(sp)
 358              		.cfi_offset 1, -8
 359              		.cfi_offset 8, -16
 360              		.cfi_offset 9, -24
 361 0250 13040102 		addi	s0,sp,32
 362              		.cfi_def_cfa 8, 0
 363 0254 93040500 		mv	s1,a0
 364              	.LBB3:
  12:test/buffer.cpp ****     printString("Buffer deleted!\n");
 365              		.loc 1 12 5
  12:test/buffer.cpp ****     printString("Buffer deleted!\n");
GAS LISTING /tmp/ccBzByGG.s 			page 9


 366              		.loc 1 12 9 is_stmt 0
 367 0258 1305A000 		li	a0,10
 368              	.LVL35:
 369 025c 97000000 		call	_Z4putcc@plt
 369      E7800000 
 370              	.LVL36:
  13:test/buffer.cpp ****     while (getCnt() > 0) {
 371              		.loc 1 13 5 is_stmt 1
  13:test/buffer.cpp ****     while (getCnt() > 0) {
 372              		.loc 1 13 16 is_stmt 0
 373 0264 17050000 		lla	a0,.LC0
 373      13050500 
 374 026c 97000000 		call	_Z11printStringPKc@plt
 374      E7800000 
 375              	.LVL37:
 376              	.L13:
  14:test/buffer.cpp ****         char ch = buffer[head];
 377              		.loc 1 14 5 is_stmt 1
  14:test/buffer.cpp ****         char ch = buffer[head];
 378              		.loc 1 14 21
  14:test/buffer.cpp ****         char ch = buffer[head];
 379              		.loc 1 14 18 is_stmt 0
 380 0274 13850400 		mv	a0,s1
 381 0278 97000000 		call	_ZN6Buffer6getCntEv
 381      E7800000 
 382              	.LVL38:
  14:test/buffer.cpp ****         char ch = buffer[head];
 383              		.loc 1 14 21
 384 0280 635CA002 		blez	a0,.L12
 385              	.LBB4:
  15:test/buffer.cpp ****         putc(ch);
 386              		.loc 1 15 9 is_stmt 1
  15:test/buffer.cpp ****         putc(ch);
 387              		.loc 1 15 19 is_stmt 0
 388 0284 83B78400 		ld	a5,8(s1)
  15:test/buffer.cpp ****         putc(ch);
 389              		.loc 1 15 26
 390 0288 03A70401 		lw	a4,16(s1)
  15:test/buffer.cpp ****         putc(ch);
 391              		.loc 1 15 30
 392 028c 13172700 		slli	a4,a4,2
 393 0290 B387E700 		add	a5,a5,a4
 394              	.LVL39:
  16:test/buffer.cpp ****         head = (head + 1) % cap;
 395              		.loc 1 16 9 is_stmt 1
  16:test/buffer.cpp ****         head = (head + 1) % cap;
 396              		.loc 1 16 13 is_stmt 0
 397 0294 03C50700 		lbu	a0,0(a5)
 398 0298 97000000 		call	_Z4putcc@plt
 398      E7800000 
 399              	.LVL40:
  17:test/buffer.cpp ****     }
 400              		.loc 1 17 9 is_stmt 1
  17:test/buffer.cpp ****     }
 401              		.loc 1 17 17 is_stmt 0
 402 02a0 83A70401 		lw	a5,16(s1)
  17:test/buffer.cpp ****     }
GAS LISTING /tmp/ccBzByGG.s 			page 10


 403              		.loc 1 17 22
 404 02a4 9B871700 		addiw	a5,a5,1
  17:test/buffer.cpp ****     }
 405              		.loc 1 17 29
 406 02a8 03A70400 		lw	a4,0(s1)
  17:test/buffer.cpp ****     }
 407              		.loc 1 17 27
 408 02ac BBE7E702 		remw	a5,a5,a4
  17:test/buffer.cpp ****     }
 409              		.loc 1 17 14
 410 02b0 23A8F400 		sw	a5,16(s1)
 411              	.LBE4:
  14:test/buffer.cpp ****         char ch = buffer[head];
 412              		.loc 1 14 5
 413 02b4 6FF01FFC 		j	.L13
 414              	.L12:
  19:test/buffer.cpp ****     putc('\n');
 415              		.loc 1 19 5 is_stmt 1
  19:test/buffer.cpp ****     putc('\n');
 416              		.loc 1 19 9 is_stmt 0
 417 02b8 13051002 		li	a0,33
 418 02bc 97000000 		call	_Z4putcc@plt
 418      E7800000 
 419              	.LVL41:
  20:test/buffer.cpp **** 
 420              		.loc 1 20 5 is_stmt 1
  20:test/buffer.cpp **** 
 421              		.loc 1 20 9 is_stmt 0
 422 02c4 1305A000 		li	a0,10
 423 02c8 97000000 		call	_Z4putcc@plt
 423      E7800000 
 424              	.LVL42:
  22:test/buffer.cpp ****     sem_close(itemAvailable);
 425              		.loc 1 22 5 is_stmt 1
  22:test/buffer.cpp ****     sem_close(itemAvailable);
 426              		.loc 1 22 13 is_stmt 0
 427 02d0 03B58400 		ld	a0,8(s1)
 428 02d4 97000000 		call	_Z8mem_freePv@plt
 428      E7800000 
 429              	.LVL43:
  23:test/buffer.cpp ****     sem_close(spaceAvailable);
 430              		.loc 1 23 5 is_stmt 1
  23:test/buffer.cpp ****     sem_close(spaceAvailable);
 431              		.loc 1 23 14 is_stmt 0
 432 02dc 03B50402 		ld	a0,32(s1)
 433 02e0 97000000 		call	_Z9sem_closeP3sem@plt
 433      E7800000 
 434              	.LVL44:
  24:test/buffer.cpp ****     sem_close(mutexTail);
 435              		.loc 1 24 5 is_stmt 1
  24:test/buffer.cpp ****     sem_close(mutexTail);
 436              		.loc 1 24 14 is_stmt 0
 437 02e8 03B58401 		ld	a0,24(s1)
 438 02ec 97000000 		call	_Z9sem_closeP3sem@plt
 438      E7800000 
 439              	.LVL45:
  25:test/buffer.cpp ****     sem_close(mutexHead);
GAS LISTING /tmp/ccBzByGG.s 			page 11


 440              		.loc 1 25 5 is_stmt 1
  25:test/buffer.cpp ****     sem_close(mutexHead);
 441              		.loc 1 25 14 is_stmt 0
 442 02f4 03B50403 		ld	a0,48(s1)
 443 02f8 97000000 		call	_Z9sem_closeP3sem@plt
 443      E7800000 
 444              	.LVL46:
  26:test/buffer.cpp **** 
 445              		.loc 1 26 5 is_stmt 1
  26:test/buffer.cpp **** 
 446              		.loc 1 26 14 is_stmt 0
 447 0300 03B58402 		ld	a0,40(s1)
 448 0304 97000000 		call	_Z9sem_closeP3sem@plt
 448      E7800000 
 449              	.LVL47:
 450              	.LBE3:
  28:test/buffer.cpp **** 
 451              		.loc 1 28 1
 452 030c 83308101 		ld	ra,24(sp)
 453              		.cfi_restore 1
 454 0310 03340101 		ld	s0,16(sp)
 455              		.cfi_restore 8
 456              		.cfi_def_cfa 2, 32
 457 0314 83348100 		ld	s1,8(sp)
 458              		.cfi_restore 9
 459              	.LVL48:
 460 0318 13010102 		addi	sp,sp,32
 461              		.cfi_def_cfa_offset 0
 462 031c 67800000 		jr	ra
 463              		.cfi_endproc
 464              	.LFE48:
 465              		.globl	__gxx_personality_v0
 466              		.section	.gcc_except_table,"a",@progbits
 467              	.LLSDA48:
 468 0000 FF       		.byte	0xff
 469 0001 FF       		.byte	0xff
 470 0002 03       		.byte	0x3
 471 0003 00       		.byte	0
 472              		.text
 474              		.globl	_ZN6BufferD1Ev
 475              		.set	_ZN6BufferD1Ev,_ZN6BufferD2Ev
 476              	.Letext0:
 477              		.file 2 "test/../h/../lib/hw.h"
 478              		.file 3 "test/../h/tcb.hpp"
 479              		.file 4 "test/../h/list.hpp"
 480              		.file 5 "test/../h/sem.hpp"
 481              		.file 6 "test/../h/syscall_c.hpp"
 482              		.file 7 "test/buffer.hpp"
 483              		.file 8 "test/printing.hpp"
 3611              		.align	3
 3614              	DW.ref.__gxx_personality_v0:
 3615 0000 00000000 		.dword	__gxx_personality_v0
 3615      00000000 
 3616              		.ident	"GCC: (Ubuntu 9.4.0-1ubuntu1~20.04) 9.4.0"
 3617              		.section	.note.GNU-stack,"",@progbits
GAS LISTING /tmp/ccBzByGG.s 			page 12


DEFINED SYMBOLS
                            *ABS*:0000000000000000 buffer.cpp
     /tmp/ccBzByGG.s:9      .text:0000000000000000 _ZN6BufferC2Ei
     /tmp/ccBzByGG.s:13     .text:0000000000000000 .L0 
     /tmp/ccBzByGG.s:15     .text:0000000000000000 .L0 
     /tmp/ccBzByGG.s:16     .text:0000000000000004 .L0 
     /tmp/ccBzByGG.s:21     .text:0000000000000014 .L0 
     /tmp/ccBzByGG.s:22     .text:0000000000000014 .L0 
     /tmp/ccBzByGG.s:23     .text:0000000000000014 .L0 
     /tmp/ccBzByGG.s:24     .text:0000000000000014 .L0 
     /tmp/ccBzByGG.s:26     .text:0000000000000018 .L0 
     /tmp/ccBzByGG.s:31     .text:0000000000000020 .L0 
     /tmp/ccBzByGG.s:35     .text:0000000000000028 .L0 
     /tmp/ccBzByGG.s:39     .text:0000000000000034 .L0 
     /tmp/ccBzByGG.s:40     .text:0000000000000034 .L0 
     /tmp/ccBzByGG.s:44     .text:0000000000000040 .L0 
     /tmp/ccBzByGG.s:46     .text:0000000000000044 .L0 
     /tmp/ccBzByGG.s:47     .text:0000000000000044 .L0 
     /tmp/ccBzByGG.s:52     .text:0000000000000054 .L0 
     /tmp/ccBzByGG.s:53     .text:0000000000000054 .L0 
     /tmp/ccBzByGG.s:58     .text:0000000000000064 .L0 
     /tmp/ccBzByGG.s:59     .text:0000000000000064 .L0 
     /tmp/ccBzByGG.s:64     .text:0000000000000074 .L0 
     /tmp/ccBzByGG.s:65     .text:0000000000000074 .L0 
     /tmp/ccBzByGG.s:71     .text:0000000000000084 .L0 
     /tmp/ccBzByGG.s:72     .text:0000000000000088 .L0 
     /tmp/ccBzByGG.s:74     .text:000000000000008c .L0 
     /tmp/ccBzByGG.s:75     .text:000000000000008c .L0 
     /tmp/ccBzByGG.s:77     .text:0000000000000090 .L0 
     /tmp/ccBzByGG.s:80     .text:0000000000000094 .L0 
     /tmp/ccBzByGG.s:82     .text:0000000000000098 .L0 
     /tmp/ccBzByGG.s:84     .text:000000000000009c .L0 
     /tmp/ccBzByGG.s:9      .text:0000000000000000 _ZN6BufferC1Ei
     /tmp/ccBzByGG.s:92     .text:000000000000009c _ZN6Buffer3putEi
     /tmp/ccBzByGG.s:95     .text:000000000000009c .L0 
     /tmp/ccBzByGG.s:97     .text:000000000000009c .L0 
     /tmp/ccBzByGG.s:98     .text:00000000000000a0 .L0 
     /tmp/ccBzByGG.s:103    .text:00000000000000b0 .L0 
     /tmp/ccBzByGG.s:104    .text:00000000000000b0 .L0 
     /tmp/ccBzByGG.s:105    .text:00000000000000b0 .L0 
     /tmp/ccBzByGG.s:106    .text:00000000000000b0 .L0 
     /tmp/ccBzByGG.s:108    .text:00000000000000b4 .L0 
     /tmp/ccBzByGG.s:112    .text:00000000000000bc .L0 
     /tmp/ccBzByGG.s:113    .text:00000000000000bc .L0 
     /tmp/ccBzByGG.s:118    .text:00000000000000c8 .L0 
     /tmp/ccBzByGG.s:119    .text:00000000000000c8 .L0 
     /tmp/ccBzByGG.s:123    .text:00000000000000d4 .L0 
     /tmp/ccBzByGG.s:125    .text:00000000000000d8 .L0 
     /tmp/ccBzByGG.s:127    .text:00000000000000dc .L0 
     /tmp/ccBzByGG.s:130    .text:00000000000000e4 .L0 
     /tmp/ccBzByGG.s:132    .text:00000000000000e8 .L0 
     /tmp/ccBzByGG.s:133    .text:00000000000000e8 .L0 
     /tmp/ccBzByGG.s:135    .text:00000000000000ec .L0 
     /tmp/ccBzByGG.s:137    .text:00000000000000f0 .L0 
     /tmp/ccBzByGG.s:139    .text:00000000000000f4 .L0 
     /tmp/ccBzByGG.s:141    .text:00000000000000f8 .L0 
     /tmp/ccBzByGG.s:143    .text:00000000000000fc .L0 
GAS LISTING /tmp/ccBzByGG.s 			page 13


     /tmp/ccBzByGG.s:144    .text:00000000000000fc .L0 
     /tmp/ccBzByGG.s:148    .text:0000000000000108 .L0 
     /tmp/ccBzByGG.s:149    .text:0000000000000108 .L0 
     /tmp/ccBzByGG.s:153    .text:0000000000000114 .L0 
     /tmp/ccBzByGG.s:154    .text:0000000000000118 .L0 
     /tmp/ccBzByGG.s:156    .text:000000000000011c .L0 
     /tmp/ccBzByGG.s:157    .text:000000000000011c .L0 
     /tmp/ccBzByGG.s:159    .text:0000000000000120 .L0 
     /tmp/ccBzByGG.s:162    .text:0000000000000124 .L0 
     /tmp/ccBzByGG.s:164    .text:0000000000000128 .L0 
     /tmp/ccBzByGG.s:166    .text:000000000000012c .L0 
     /tmp/ccBzByGG.s:172    .text:000000000000012c _ZN6Buffer3getEv
     /tmp/ccBzByGG.s:175    .text:000000000000012c .L0 
     /tmp/ccBzByGG.s:177    .text:000000000000012c .L0 
     /tmp/ccBzByGG.s:178    .text:0000000000000130 .L0 
     /tmp/ccBzByGG.s:183    .text:0000000000000140 .L0 
     /tmp/ccBzByGG.s:184    .text:0000000000000140 .L0 
     /tmp/ccBzByGG.s:185    .text:0000000000000140 .L0 
     /tmp/ccBzByGG.s:186    .text:0000000000000140 .L0 
     /tmp/ccBzByGG.s:188    .text:0000000000000144 .L0 
     /tmp/ccBzByGG.s:191    .text:0000000000000148 .L0 
     /tmp/ccBzByGG.s:192    .text:0000000000000148 .L0 
     /tmp/ccBzByGG.s:197    .text:0000000000000154 .L0 
     /tmp/ccBzByGG.s:198    .text:0000000000000154 .L0 
     /tmp/ccBzByGG.s:202    .text:0000000000000160 .L0 
     /tmp/ccBzByGG.s:203    .text:0000000000000160 .L0 
     /tmp/ccBzByGG.s:205    .text:0000000000000164 .L0 
     /tmp/ccBzByGG.s:207    .text:0000000000000168 .L0 
     /tmp/ccBzByGG.s:210    .text:0000000000000170 .L0 
     /tmp/ccBzByGG.s:213    .text:0000000000000174 .L0 
     /tmp/ccBzByGG.s:214    .text:0000000000000174 .L0 
     /tmp/ccBzByGG.s:216    .text:0000000000000178 .L0 
     /tmp/ccBzByGG.s:218    .text:000000000000017c .L0 
     /tmp/ccBzByGG.s:220    .text:0000000000000180 .L0 
     /tmp/ccBzByGG.s:222    .text:0000000000000184 .L0 
     /tmp/ccBzByGG.s:223    .text:0000000000000184 .L0 
     /tmp/ccBzByGG.s:227    .text:0000000000000190 .L0 
     /tmp/ccBzByGG.s:228    .text:0000000000000190 .L0 
     /tmp/ccBzByGG.s:232    .text:000000000000019c .L0 
     /tmp/ccBzByGG.s:233    .text:000000000000019c .L0 
     /tmp/ccBzByGG.s:235    .text:00000000000001a4 .L0 
     /tmp/ccBzByGG.s:237    .text:00000000000001a8 .L0 
     /tmp/ccBzByGG.s:238    .text:00000000000001a8 .L0 
     /tmp/ccBzByGG.s:240    .text:00000000000001ac .L0 
     /tmp/ccBzByGG.s:243    .text:00000000000001b0 .L0 
     /tmp/ccBzByGG.s:246    .text:00000000000001b4 .L0 
     /tmp/ccBzByGG.s:248    .text:00000000000001b8 .L0 
     /tmp/ccBzByGG.s:254    .text:00000000000001b8 _ZN6Buffer6getCntEv
     /tmp/ccBzByGG.s:257    .text:00000000000001b8 .L0 
     /tmp/ccBzByGG.s:259    .text:00000000000001b8 .L0 
     /tmp/ccBzByGG.s:260    .text:00000000000001bc .L0 
     /tmp/ccBzByGG.s:265    .text:00000000000001cc .L0 
     /tmp/ccBzByGG.s:266    .text:00000000000001cc .L0 
     /tmp/ccBzByGG.s:267    .text:00000000000001cc .L0 
     /tmp/ccBzByGG.s:268    .text:00000000000001cc .L0 
     /tmp/ccBzByGG.s:270    .text:00000000000001d0 .L0 
     /tmp/ccBzByGG.s:273    .text:00000000000001d4 .L0 
GAS LISTING /tmp/ccBzByGG.s 			page 14


     /tmp/ccBzByGG.s:274    .text:00000000000001d4 .L0 
     /tmp/ccBzByGG.s:275    .text:00000000000001d4 .L0 
     /tmp/ccBzByGG.s:280    .text:00000000000001e0 .L0 
     /tmp/ccBzByGG.s:281    .text:00000000000001e0 .L0 
     /tmp/ccBzByGG.s:285    .text:00000000000001ec .L0 
     /tmp/ccBzByGG.s:286    .text:00000000000001ec .L0 
     /tmp/ccBzByGG.s:288    .text:00000000000001f0 .L0 
     /tmp/ccBzByGG.s:290    .text:00000000000001f4 .L0 
     /tmp/ccBzByGG.s:292    .text:00000000000001f8 .L0 
     /tmp/ccBzByGG.s:293    .text:00000000000001f8 .L0 
     /tmp/ccBzByGG.s:297    .text:00000000000001fc .L0 
     /tmp/ccBzByGG.s:298    .text:00000000000001fc .L0 
     /tmp/ccBzByGG.s:302    .text:0000000000000208 .L0 
     /tmp/ccBzByGG.s:303    .text:0000000000000208 .L0 
     /tmp/ccBzByGG.s:307    .text:0000000000000214 .L0 
     /tmp/ccBzByGG.s:308    .text:0000000000000214 .L0 
     /tmp/ccBzByGG.s:310    .text:000000000000021c .L0 
     /tmp/ccBzByGG.s:311    .text:000000000000021c .L0 
     /tmp/ccBzByGG.s:313    .text:0000000000000220 .L0 
     /tmp/ccBzByGG.s:314    .text:0000000000000220 .L0 
     /tmp/ccBzByGG.s:316    .text:0000000000000224 .L0 
     /tmp/ccBzByGG.s:319    .text:0000000000000228 .L0 
     /tmp/ccBzByGG.s:322    .text:000000000000022c .L0 
     /tmp/ccBzByGG.s:326    .text:0000000000000230 .L0 
     /tmp/ccBzByGG.s:328    .text:0000000000000230 .L0 
     /tmp/ccBzByGG.s:329    .text:0000000000000230 .L0 
     /tmp/ccBzByGG.s:331    .text:0000000000000234 .L0 
     /tmp/ccBzByGG.s:333    .text:0000000000000238 .L0 
     /tmp/ccBzByGG.s:335    .text:0000000000000240 .L0 
     /tmp/ccBzByGG.s:346    .text:0000000000000240 _ZN6BufferD2Ev
     /tmp/ccBzByGG.s:349    .text:0000000000000240 .L0 
     /tmp/ccBzByGG.s:3614   .data.rel.local.DW.ref.__gxx_personality_v0:0000000000000000 DW.ref.__gxx_personality_v0
     /tmp/ccBzByGG.s:353    .text:0000000000000240 .L0 
     /tmp/ccBzByGG.s:354    .text:0000000000000244 .L0 
     /tmp/ccBzByGG.s:358    .text:0000000000000250 .L0 
     /tmp/ccBzByGG.s:359    .text:0000000000000250 .L0 
     /tmp/ccBzByGG.s:360    .text:0000000000000250 .L0 
     /tmp/ccBzByGG.s:362    .text:0000000000000254 .L0 
     /tmp/ccBzByGG.s:366    .text:0000000000000258 .L0 
     /tmp/ccBzByGG.s:367    .text:0000000000000258 .L0 
     /tmp/ccBzByGG.s:372    .text:0000000000000264 .L0 
     /tmp/ccBzByGG.s:373    .text:0000000000000264 .L0 
     /tmp/ccBzByGG.s:378    .text:0000000000000274 .L0 
     /tmp/ccBzByGG.s:379    .text:0000000000000274 .L0 
     /tmp/ccBzByGG.s:380    .text:0000000000000274 .L0 
     /tmp/ccBzByGG.s:384    .text:0000000000000280 .L0 
     /tmp/ccBzByGG.s:387    .text:0000000000000284 .L0 
     /tmp/ccBzByGG.s:388    .text:0000000000000284 .L0 
     /tmp/ccBzByGG.s:390    .text:0000000000000288 .L0 
     /tmp/ccBzByGG.s:392    .text:000000000000028c .L0 
     /tmp/ccBzByGG.s:396    .text:0000000000000294 .L0 
     /tmp/ccBzByGG.s:397    .text:0000000000000294 .L0 
     /tmp/ccBzByGG.s:401    .text:00000000000002a0 .L0 
     /tmp/ccBzByGG.s:402    .text:00000000000002a0 .L0 
     /tmp/ccBzByGG.s:404    .text:00000000000002a4 .L0 
     /tmp/ccBzByGG.s:406    .text:00000000000002a8 .L0 
     /tmp/ccBzByGG.s:408    .text:00000000000002ac .L0 
GAS LISTING /tmp/ccBzByGG.s 			page 15


     /tmp/ccBzByGG.s:410    .text:00000000000002b0 .L0 
     /tmp/ccBzByGG.s:413    .text:00000000000002b4 .L0 
     /tmp/ccBzByGG.s:416    .text:00000000000002b8 .L0 
     /tmp/ccBzByGG.s:417    .text:00000000000002b8 .L0 
     /tmp/ccBzByGG.s:421    .text:00000000000002c4 .L0 
     /tmp/ccBzByGG.s:422    .text:00000000000002c4 .L0 
     /tmp/ccBzByGG.s:426    .text:00000000000002d0 .L0 
     /tmp/ccBzByGG.s:427    .text:00000000000002d0 .L0 
     /tmp/ccBzByGG.s:431    .text:00000000000002dc .L0 
     /tmp/ccBzByGG.s:432    .text:00000000000002dc .L0 
     /tmp/ccBzByGG.s:436    .text:00000000000002e8 .L0 
     /tmp/ccBzByGG.s:437    .text:00000000000002e8 .L0 
     /tmp/ccBzByGG.s:441    .text:00000000000002f4 .L0 
     /tmp/ccBzByGG.s:442    .text:00000000000002f4 .L0 
     /tmp/ccBzByGG.s:446    .text:0000000000000300 .L0 
     /tmp/ccBzByGG.s:447    .text:0000000000000300 .L0 
     /tmp/ccBzByGG.s:452    .text:000000000000030c .L0 
     /tmp/ccBzByGG.s:453    .text:0000000000000310 .L0 
     /tmp/ccBzByGG.s:455    .text:0000000000000314 .L0 
     /tmp/ccBzByGG.s:456    .text:0000000000000314 .L0 
     /tmp/ccBzByGG.s:458    .text:0000000000000318 .L0 
     /tmp/ccBzByGG.s:461    .text:000000000000031c .L0 
     /tmp/ccBzByGG.s:463    .text:0000000000000320 .L0 
     /tmp/ccBzByGG.s:346    .text:0000000000000240 _ZN6BufferD1Ev
     /tmp/ccBzByGG.s:484    .text:0000000000000320 .L0 
     /tmp/ccBzByGG.s:340    .rodata.str1.8:0000000000000000 .LC0
     /tmp/ccBzByGG.s:373    .text:0000000000000264 .L0 
     /tmp/ccBzByGG.s:325    .text:0000000000000230 .L8
     /tmp/ccBzByGG.s:295    .text:00000000000001fc .L9
     /tmp/ccBzByGG.s:414    .text:00000000000002b8 .L12
     /tmp/ccBzByGG.s:376    .text:0000000000000274 .L13
     /tmp/ccBzByGG.s:2091   .debug_abbrev:0000000000000000 .Ldebug_abbrev0
     /tmp/ccBzByGG.s:3538   .debug_str:000000000000081b .LASF160
     /tmp/ccBzByGG.s:3552   .debug_str:0000000000000937 .LASF161
     /tmp/ccBzByGG.s:3494   .debug_str:00000000000006b7 .LASF162
     /tmp/ccBzByGG.s:5      .text:0000000000000000 .Ltext0
     /tmp/ccBzByGG.s:476    .text:0000000000000320 .Letext0
     /tmp/ccBzByGG.s:3256   .debug_line:0000000000000000 .Ldebug_line0
     /tmp/ccBzByGG.s:3370   .debug_str:000000000000035e .LASF0
     /tmp/ccBzByGG.s:3390   .debug_str:00000000000003fc .LASF1
     /tmp/ccBzByGG.s:3476   .debug_str:0000000000000647 .LASF2
     /tmp/ccBzByGG.s:3488   .debug_str:000000000000069a .LASF4
     /tmp/ccBzByGG.s:3376   .debug_str:000000000000037c .LASF3
     /tmp/ccBzByGG.s:3272   .debug_str:000000000000007b .LASF5
     /tmp/ccBzByGG.s:3446   .debug_str:000000000000056c .LASF6
     /tmp/ccBzByGG.s:3382   .debug_str:00000000000003be .LASF7
     /tmp/ccBzByGG.s:3346   .debug_str:00000000000002bc .LASF8
     /tmp/ccBzByGG.s:3352   .debug_str:00000000000002e4 .LASF9
     /tmp/ccBzByGG.s:3298   .debug_str:0000000000000127 .LASF10
     /tmp/ccBzByGG.s:3336   .debug_str:0000000000000274 .LASF11
     /tmp/ccBzByGG.s:3310   .debug_str:0000000000000183 .LASF12
     /tmp/ccBzByGG.s:3296   .debug_str:0000000000000117 .LASF13
     /tmp/ccBzByGG.s:3514   .debug_str:0000000000000787 .LASF14
     /tmp/ccBzByGG.s:3326   .debug_str:000000000000020c .LASF15
     /tmp/ccBzByGG.s:3502   .debug_str:000000000000071f .LASF16
     /tmp/ccBzByGG.s:3522   .debug_str:00000000000007ab .LASF163
     /tmp/ccBzByGG.s:3490   .debug_str:00000000000006a1 .LASF27
GAS LISTING /tmp/ccBzByGG.s 			page 16


     /tmp/ccBzByGG.s:3268   .debug_str:0000000000000065 .LASF29
     /tmp/ccBzByGG.s:3574   .debug_str:00000000000009c2 .LASF80
     /tmp/ccBzByGG.s:3426   .debug_str:00000000000004f9 .LASF43
     /tmp/ccBzByGG.s:3510   .debug_str:0000000000000760 .LASF45
     /tmp/ccBzByGG.s:3318   .debug_str:00000000000001c2 .LASF17
     /tmp/ccBzByGG.s:3588   .debug_str:0000000000000a13 .LASF39
     /tmp/ccBzByGG.s:3450   .debug_str:000000000000058b .LASF41
     /tmp/ccBzByGG.s:3258   .debug_str:0000000000000000 .LASF18
     /tmp/ccBzByGG.s:3524   .debug_str:00000000000007b3 .LASF19
     /tmp/ccBzByGG.s:3422   .debug_str:00000000000004dd .LASF21
     /tmp/ccBzByGG.s:3480   .debug_str:0000000000000662 .LASF20
     /tmp/ccBzByGG.s:3288   .debug_str:00000000000000d5 .LASF22
     /tmp/ccBzByGG.s:3348   .debug_str:00000000000002cc .LASF23
     /tmp/ccBzByGG.s:3528   .debug_str:00000000000007c9 .LASF24
     /tmp/ccBzByGG.s:3566   .debug_str:0000000000000987 .LASF25
     /tmp/ccBzByGG.s:3274   .debug_str:0000000000000082 .LASF26
     /tmp/ccBzByGG.s:3278   .debug_str:00000000000000a0 .LASF28
     /tmp/ccBzByGG.s:3550   .debug_str:0000000000000920 .LASF30
     /tmp/ccBzByGG.s:3526   .debug_str:00000000000007be .LASF31
     /tmp/ccBzByGG.s:3332   .debug_str:0000000000000246 .LASF32
     /tmp/ccBzByGG.s:3456   .debug_str:00000000000005c7 .LASF33
     /tmp/ccBzByGG.s:3362   .debug_str:0000000000000329 .LASF34
     /tmp/ccBzByGG.s:3428   .debug_str:0000000000000505 .LASF35
     /tmp/ccBzByGG.s:3334   .debug_str:000000000000025c .LASF36
     /tmp/ccBzByGG.s:3578   .debug_str:00000000000009d8 .LASF37
     /tmp/ccBzByGG.s:3506   .debug_str:0000000000000748 .LASF38
     /tmp/ccBzByGG.s:3292   .debug_str:0000000000000107 .LASF40
     /tmp/ccBzByGG.s:3392   .debug_str:000000000000040f .LASF42
     /tmp/ccBzByGG.s:3482   .debug_str:000000000000066c .LASF44
     /tmp/ccBzByGG.s:3320   .debug_str:00000000000001c9 .LASF46
     /tmp/ccBzByGG.s:3474   .debug_str:000000000000063d .LASF47
     /tmp/ccBzByGG.s:3558   .debug_str:000000000000095f .LASF48
     /tmp/ccBzByGG.s:3400   .debug_str:0000000000000455 .LASF49
     /tmp/ccBzByGG.s:3396   .debug_str:0000000000000439 .LASF50
     /tmp/ccBzByGG.s:3512   .debug_str:0000000000000779 .LASF51
     /tmp/ccBzByGG.s:3592   .debug_str:0000000000000a2c .LASF52
     /tmp/ccBzByGG.s:3436   .debug_str:0000000000000529 .LASF164
     /tmp/ccBzByGG.s:3286   .debug_str:00000000000000cf .LASF56
     /tmp/ccBzByGG.s:3540   .debug_str:00000000000008df .LASF58
     /tmp/ccBzByGG.s:3406   .debug_str:0000000000000478 .LASF53
     /tmp/ccBzByGG.s:3414   .debug_str:00000000000004a1 .LASF54
     /tmp/ccBzByGG.s:3536   .debug_str:0000000000000813 .LASF55
     /tmp/ccBzByGG.s:3464   .debug_str:00000000000005f3 .LASF57
     /tmp/ccBzByGG.s:3496   .debug_str:00000000000006e6 .LASF59
     /tmp/ccBzByGG.s:3600   .debug_str:0000000000000a7e .LASF60
     /tmp/ccBzByGG.s:3350   .debug_str:00000000000002d8 .LASF61
     /tmp/ccBzByGG.s:3284   .debug_str:00000000000000bf .LASF62
     /tmp/ccBzByGG.s:3342   .debug_str:000000000000029d .LASF63
     /tmp/ccBzByGG.s:3262   .debug_str:0000000000000013 .LASF64
     /tmp/ccBzByGG.s:3402   .debug_str:000000000000045f .LASF65
     /tmp/ccBzByGG.s:3500   .debug_str:000000000000070c .LASF66
     /tmp/ccBzByGG.s:3478   .debug_str:0000000000000655 .LASF67
     /tmp/ccBzByGG.s:3300   .debug_str:0000000000000136 .LASF139
     /tmp/ccBzByGG.s:3388   .debug_str:00000000000003ee .LASF68
     /tmp/ccBzByGG.s:3404   .debug_str:000000000000046c .LASF69
     /tmp/ccBzByGG.s:3546   .debug_str:0000000000000909 .LASF70
     /tmp/ccBzByGG.s:3520   .debug_str:00000000000007a2 .LASF71
GAS LISTING /tmp/ccBzByGG.s 			page 17


     /tmp/ccBzByGG.s:3432   .debug_str:0000000000000517 .LASF72
     /tmp/ccBzByGG.s:3434   .debug_str:000000000000051f .LASF73
     /tmp/ccBzByGG.s:3302   .debug_str:000000000000014d .LASF74
     /tmp/ccBzByGG.s:3372   .debug_str:000000000000036b .LASF75
     /tmp/ccBzByGG.s:3576   .debug_str:00000000000009ca .LASF76
     /tmp/ccBzByGG.s:3282   .debug_str:00000000000000b1 .LASF165
     /tmp/ccBzByGG.s:3394   .debug_str:0000000000000420 .LASF166
     /tmp/ccBzByGG.s:3314   .debug_str:00000000000001aa .LASF167
     /tmp/ccBzByGG.s:3266   .debug_str:000000000000003d .LASF168
     /tmp/ccBzByGG.s:3542   .debug_str:00000000000008ef .LASF77
     /tmp/ccBzByGG.s:3556   .debug_str:000000000000094e .LASF78
     /tmp/ccBzByGG.s:3484   .debug_str:000000000000067e .LASF169
     /tmp/ccBzByGG.s:3568   .debug_str:0000000000000993 .LASF79
     /tmp/ccBzByGG.s:3560   .debug_str:0000000000000973 .LASF170
     /tmp/ccBzByGG.s:3508   .debug_str:000000000000075b .LASF81
     /tmp/ccBzByGG.s:3424   .debug_str:00000000000004f4 .LASF82
     /tmp/ccBzByGG.s:3416   .debug_str:00000000000004b8 .LASF83
     /tmp/ccBzByGG.s:3504   .debug_str:0000000000000735 .LASF84
     /tmp/ccBzByGG.s:3324   .debug_str:00000000000001f5 .LASF85
     /tmp/ccBzByGG.s:3316   .debug_str:00000000000001b8 .LASF171
     /tmp/ccBzByGG.s:3470   .debug_str:0000000000000611 .LASF172
     /tmp/ccBzByGG.s:3364   .debug_str:0000000000000341 .LASF86
     /tmp/ccBzByGG.s:3532   .debug_str:00000000000007e6 .LASF87
     /tmp/ccBzByGG.s:3386   .debug_str:00000000000003e5 .LASF88
     /tmp/ccBzByGG.s:3290   .debug_str:00000000000000ea .LASF89
     /tmp/ccBzByGG.s:3398   .debug_str:000000000000044d .LASF90
     /tmp/ccBzByGG.s:3328   .debug_str:0000000000000222 .LASF91
     /tmp/ccBzByGG.s:3444   .debug_str:0000000000000560 .LASF92
     /tmp/ccBzByGG.s:3570   .debug_str:000000000000099d .LASF93
     /tmp/ccBzByGG.s:3604   .debug_str:0000000000000a94 .LASF94
     /tmp/ccBzByGG.s:3596   .debug_str:0000000000000a5e .LASF95
     /tmp/ccBzByGG.s:3498   .debug_str:0000000000000701 .LASF96
     /tmp/ccBzByGG.s:3380   .debug_str:00000000000003a1 .LASF97
     /tmp/ccBzByGG.s:3462   .debug_str:00000000000005ea .LASF98
     /tmp/ccBzByGG.s:3264   .debug_str:0000000000000023 .LASF99
     /tmp/ccBzByGG.s:3330   .debug_str:000000000000023e .LASF100
     /tmp/ccBzByGG.s:3472   .debug_str:0000000000000628 .LASF101
     /tmp/ccBzByGG.s:3430   .debug_str:0000000000000512 .LASF102
     /tmp/ccBzByGG.s:3544   .debug_str:00000000000008f6 .LASF103
     /tmp/ccBzByGG.s:3276   .debug_str:000000000000009a .LASF104
     /tmp/ccBzByGG.s:3438   .debug_str:000000000000052e .LASF105
     /tmp/ccBzByGG.s:3598   .debug_str:0000000000000a79 .LASF106
     /tmp/ccBzByGG.s:3378   .debug_str:000000000000038e .LASF107
     /tmp/ccBzByGG.s:3518   .debug_str:000000000000079c .LASF108
     /tmp/ccBzByGG.s:3466   .debug_str:0000000000000603 .LASF109
     /tmp/ccBzByGG.s:3468   .debug_str:0000000000000608 .LASF110
     /tmp/ccBzByGG.s:3454   .debug_str:00000000000005b4 .LASF111
     /tmp/ccBzByGG.s:3458   .debug_str:00000000000005d4 .LASF112
     /tmp/ccBzByGG.s:3584   .debug_str:00000000000009eb .LASF113
     /tmp/ccBzByGG.s:3602   .debug_str:0000000000000a8b .LASF114
     /tmp/ccBzByGG.s:3340   .debug_str:000000000000028a .LASF115
     /tmp/ccBzByGG.s:3358   .debug_str:000000000000030f .LASF116
     /tmp/ccBzByGG.s:3420   .debug_str:00000000000004c7 .LASF117
     /tmp/ccBzByGG.s:3448   .debug_str:000000000000057f .LASF118
     /tmp/ccBzByGG.s:3312   .debug_str:0000000000000193 .LASF119
     /tmp/ccBzByGG.s:3374   .debug_str:0000000000000370 .LASF120
     /tmp/ccBzByGG.s:3366   .debug_str:0000000000000349 .LASF121
GAS LISTING /tmp/ccBzByGG.s 			page 18


     /tmp/ccBzByGG.s:3442   .debug_str:0000000000000553 .LASF122
     /tmp/ccBzByGG.s:3590   .debug_str:0000000000000a1f .LASF123
     /tmp/ccBzByGG.s:3304   .debug_str:0000000000000157 .LASF124
     /tmp/ccBzByGG.s:3384   .debug_str:00000000000003d1 .LASF125
     /tmp/ccBzByGG.s:3294   .debug_str:000000000000010e .LASF126
     /tmp/ccBzByGG.s:3534   .debug_str:00000000000007ff .LASF127
     /tmp/ccBzByGG.s:3572   .debug_str:00000000000009bb .LASF128
     /tmp/ccBzByGG.s:3580   .debug_str:00000000000009e0 .LASF129
     /tmp/ccBzByGG.s:3564   .debug_str:0000000000000980 .LASF130
     /tmp/ccBzByGG.s:3338   .debug_str:0000000000000283 .LASF131
     /tmp/ccBzByGG.s:3548   .debug_str:0000000000000911 .LASF132
     /tmp/ccBzByGG.s:3410   .debug_str:0000000000000489 .LASF133
     /tmp/ccBzByGG.s:3260   .debug_str:0000000000000009 .LASF134
     /tmp/ccBzByGG.s:3418   .debug_str:00000000000004bd .LASF135
     /tmp/ccBzByGG.s:3308   .debug_str:0000000000000174 .LASF136
     /tmp/ccBzByGG.s:3562   .debug_str:0000000000000978 .LASF137
     /tmp/ccBzByGG.s:3360   .debug_str:000000000000031a .LASF138
     /tmp/ccBzByGG.s:3440   .debug_str:0000000000000542 .LASF140
     /tmp/ccBzByGG.s:3492   .debug_str:00000000000006a6 .LASF173
     /tmp/ccBzByGG.s:3554   .debug_str:0000000000000947 .LASF141
     /tmp/ccBzByGG.s:3606   .debug_str:0000000000000a9e .LASF142
     /tmp/ccBzByGG.s:255    .text:00000000000001b8 .LFB52
     /tmp/ccBzByGG.s:336    .text:0000000000000240 .LFE52
     /tmp/ccBzByGG.s:3280   .debug_str:00000000000000ac .LASF143
     /tmp/ccBzByGG.s:3095   .debug_loc:0000000000000000 .LLST6
     /tmp/ccBzByGG.s:3117   .debug_loc:000000000000005f .LLST7
     /tmp/ccBzByGG.s:278    .text:00000000000001e0 .LVL26
     /tmp/ccBzByGG.s:283    .text:00000000000001ec .LVL27
     /tmp/ccBzByGG.s:300    .text:0000000000000208 .LVL29
     /tmp/ccBzByGG.s:305    .text:0000000000000214 .LVL30
     /tmp/ccBzByGG.s:173    .text:000000000000012c .LFB51
     /tmp/ccBzByGG.s:249    .text:00000000000001b8 .LFE51
     /tmp/ccBzByGG.s:3124   .debug_loc:0000000000000082 .LLST4
     /tmp/ccBzByGG.s:3142   .debug_loc:00000000000000ce .LLST5
     /tmp/ccBzByGG.s:195    .text:0000000000000154 .LVL17
     /tmp/ccBzByGG.s:200    .text:0000000000000160 .LVL18
     /tmp/ccBzByGG.s:225    .text:0000000000000190 .LVL20
     /tmp/ccBzByGG.s:230    .text:000000000000019c .LVL21
     /tmp/ccBzByGG.s:93     .text:000000000000009c .LFB50
     /tmp/ccBzByGG.s:167    .text:000000000000012c .LFE50
     /tmp/ccBzByGG.s:3153   .debug_loc:0000000000000104 .LLST2
     /tmp/ccBzByGG.s:3171   .debug_loc:0000000000000150 .LLST3
     /tmp/ccBzByGG.s:116    .text:00000000000000c8 .LVL10
     /tmp/ccBzByGG.s:121    .text:00000000000000d4 .LVL11
     /tmp/ccBzByGG.s:146    .text:0000000000000108 .LVL12
     /tmp/ccBzByGG.s:151    .text:0000000000000114 .LVL13
     /tmp/ccBzByGG.s:3270   .debug_str:0000000000000071 .LASF144
     /tmp/ccBzByGG.s:3530   .debug_str:00000000000007e1 .LASF145
     /tmp/ccBzByGG.s:3322   .debug_str:00000000000001e6 .LASF146
     /tmp/ccBzByGG.s:347    .text:0000000000000240 .LFB48
     /tmp/ccBzByGG.s:464    .text:0000000000000320 .LFE48
     /tmp/ccBzByGG.s:3185   .debug_loc:0000000000000189 .LLST8
     /tmp/ccBzByGG.s:399    .text:00000000000002a0 .LVL40
     /tmp/ccBzByGG.s:385    .text:0000000000000284 .LBB4
     /tmp/ccBzByGG.s:411    .text:00000000000002b4 .LBE4
     /tmp/ccBzByGG.s:3203   .debug_loc:00000000000001d5 .LLST9
     /tmp/ccBzByGG.s:370    .text:0000000000000264 .LVL36
GAS LISTING /tmp/ccBzByGG.s 			page 19


     /tmp/ccBzByGG.s:375    .text:0000000000000274 .LVL37
     /tmp/ccBzByGG.s:382    .text:0000000000000280 .LVL38
     /tmp/ccBzByGG.s:419    .text:00000000000002c4 .LVL41
     /tmp/ccBzByGG.s:424    .text:00000000000002d0 .LVL42
     /tmp/ccBzByGG.s:429    .text:00000000000002dc .LVL43
     /tmp/ccBzByGG.s:434    .text:00000000000002e8 .LVL44
     /tmp/ccBzByGG.s:439    .text:00000000000002f4 .LVL45
     /tmp/ccBzByGG.s:444    .text:0000000000000300 .LVL46
     /tmp/ccBzByGG.s:449    .text:000000000000030c .LVL47
     /tmp/ccBzByGG.s:3582   .debug_str:00000000000009e6 .LASF174
     /tmp/ccBzByGG.s:3354   .debug_str:00000000000002f2 .LASF147
     /tmp/ccBzByGG.s:10     .text:0000000000000000 .LFB45
     /tmp/ccBzByGG.s:85     .text:000000000000009c .LFE45
     /tmp/ccBzByGG.s:3211   .debug_loc:00000000000001f9 .LLST0
     /tmp/ccBzByGG.s:3229   .debug_loc:0000000000000245 .LLST1
     /tmp/ccBzByGG.s:42     .text:0000000000000040 .LVL2
     /tmp/ccBzByGG.s:50     .text:0000000000000054 .LVL3
     /tmp/ccBzByGG.s:56     .text:0000000000000064 .LVL4
     /tmp/ccBzByGG.s:62     .text:0000000000000074 .LVL5
     /tmp/ccBzByGG.s:68     .text:0000000000000084 .LVL6
     /tmp/ccBzByGG.s:3486   .debug_str:0000000000000689 .LASF148
     /tmp/ccBzByGG.s:3586   .debug_str:00000000000009ff .LASF149
     /tmp/ccBzByGG.s:3516   .debug_str:0000000000000793 .LASF150
     /tmp/ccBzByGG.s:3408   .debug_str:0000000000000484 .LASF151
     /tmp/ccBzByGG.s:3306   .debug_str:0000000000000161 .LASF152
     /tmp/ccBzByGG.s:3460   .debug_str:00000000000005de .LASF153
     /tmp/ccBzByGG.s:3594   .debug_str:0000000000000a50 .LASF154
     /tmp/ccBzByGG.s:3368   .debug_str:0000000000000355 .LASF155
     /tmp/ccBzByGG.s:3452   .debug_str:00000000000005a2 .LASF156
     /tmp/ccBzByGG.s:3356   .debug_str:0000000000000301 .LASF157
     /tmp/ccBzByGG.s:3412   .debug_str:0000000000000497 .LASF158
     /tmp/ccBzByGG.s:3344   .debug_str:00000000000002a9 .LASF159
     /tmp/ccBzByGG.s:258    .text:00000000000001b8 .LVL24
     /tmp/ccBzByGG.s:276    .text:00000000000001d8 .LVL25
     /tmp/ccBzByGG.s:317    .text:0000000000000224 .LVL31
     /tmp/ccBzByGG.s:324    .text:0000000000000230 .LVL33
     /tmp/ccBzByGG.s:294    .text:00000000000001fc .LVL28
     /tmp/ccBzByGG.s:320    .text:0000000000000228 .LVL32
     /tmp/ccBzByGG.s:176    .text:000000000000012c .LVL15
     /tmp/ccBzByGG.s:193    .text:000000000000014c .LVL16
     /tmp/ccBzByGG.s:241    .text:00000000000001ac .LVL22
     /tmp/ccBzByGG.s:211    .text:0000000000000174 .LVL19
     /tmp/ccBzByGG.s:244    .text:00000000000001b0 .LVL23
     /tmp/ccBzByGG.s:96     .text:000000000000009c .LVL8
     /tmp/ccBzByGG.s:114    .text:00000000000000c0 .LVL9
     /tmp/ccBzByGG.s:160    .text:0000000000000120 .LVL14
     /tmp/ccBzByGG.s:352    .text:0000000000000240 .LVL34
     /tmp/ccBzByGG.s:368    .text:000000000000025c .LVL35
     /tmp/ccBzByGG.s:459    .text:0000000000000318 .LVL48
     /tmp/ccBzByGG.s:394    .text:0000000000000294 .LVL39
     /tmp/ccBzByGG.s:14     .text:0000000000000000 .LVL0
     /tmp/ccBzByGG.s:33     .text:0000000000000028 .LVL1
     /tmp/ccBzByGG.s:78     .text:0000000000000090 .LVL7
     /tmp/ccBzByGG.s:485    .debug_info:0000000000000000 .Ldebug_info0
     /tmp/ccBzByGG.s:467    .gcc_except_table:0000000000000000 .LLSDA48

UNDEFINED SYMBOLS
GAS LISTING /tmp/ccBzByGG.s 			page 20


_Z9mem_allocm
_Z8sem_openPP3semj
_Z8sem_waitP3sem
_Z10sem_signalP3sem
_Z4putcc
_Z11printStringPKc
_Z8mem_freePv
_Z9sem_closeP3sem
__gxx_personality_v0
