GAS LISTING /tmp/cceTTVsd.s 			page 1


   1              		.file	"ConsumerProducer_C_API_test.cpp"
   2              		.option pic
   3              		.option norelax
   4              		.text
   5              	.Ltext0:
   6              		.section	.rodata.str1.8,"aMS",@progbits,1
   7              		.align	3
   8              	.LC0:
   9 0000 4D4F6A20 		.string	"MOj PRoducer = "
   9      50526F64 
   9      75636572 
   9      203D2000 
  10              		.align	3
  11              	.LC1:
  12 0010 0A00     		.string	"\n"
  13              		.text
  14              		.align	2
  16              	_ZL16producerKeyboardPv:
  17              	.LFB44:
  18              		.file 1 "test/ConsumerProducer_C_API_test.cpp"
   1:test/ConsumerProducer_C_API_test.cpp **** 
   2:test/ConsumerProducer_C_API_test.cpp **** #include "../h/syscall_c.hpp"
   3:test/ConsumerProducer_C_API_test.cpp **** 
   4:test/ConsumerProducer_C_API_test.cpp **** #include "buffer.hpp"
   5:test/ConsumerProducer_C_API_test.cpp **** 
   6:test/ConsumerProducer_C_API_test.cpp **** static sem_t waitForAll;
   7:test/ConsumerProducer_C_API_test.cpp **** 
   8:test/ConsumerProducer_C_API_test.cpp **** struct thread_data {
   9:test/ConsumerProducer_C_API_test.cpp ****     int id;
  10:test/ConsumerProducer_C_API_test.cpp ****     Buffer *buffer;
  11:test/ConsumerProducer_C_API_test.cpp ****     sem_t wait;
  12:test/ConsumerProducer_C_API_test.cpp **** };
  13:test/ConsumerProducer_C_API_test.cpp **** 
  14:test/ConsumerProducer_C_API_test.cpp **** static volatile int threadEnd = 0;
  15:test/ConsumerProducer_C_API_test.cpp **** 
  16:test/ConsumerProducer_C_API_test.cpp **** static void producerKeyboard(void *arg) {
  19              		.loc 1 16 41
  20              		.cfi_startproc
  21              	.LVL0:
  22 0000 130101FD 		addi	sp,sp,-48
  23              		.cfi_def_cfa_offset 48
  24 0004 23341102 		sd	ra,40(sp)
  25 0008 23308102 		sd	s0,32(sp)
  26 000c 233C9100 		sd	s1,24(sp)
  27 0010 23382101 		sd	s2,16(sp)
  28 0014 23343101 		sd	s3,8(sp)
  29              		.cfi_offset 1, -8
  30              		.cfi_offset 8, -16
  31              		.cfi_offset 9, -24
  32              		.cfi_offset 18, -32
  33              		.cfi_offset 19, -40
  34 0018 13040103 		addi	s0,sp,48
  35              		.cfi_def_cfa 8, 0
  36 001c 93090500 		mv	s3,a0
  17:test/ConsumerProducer_C_API_test.cpp ****     struct thread_data *data = (struct thread_data *) arg;
  37              		.loc 1 17 5
  38              	.LVL1:
GAS LISTING /tmp/cceTTVsd.s 			page 2


  18:test/ConsumerProducer_C_API_test.cpp **** 
  19:test/ConsumerProducer_C_API_test.cpp ****     int key;
  39              		.loc 1 19 5
  20:test/ConsumerProducer_C_API_test.cpp ****     int i = 0;
  40              		.loc 1 20 5
  41              		.loc 1 20 9 is_stmt 0
  42 0020 13090000 		li	s2,0
  43 0024 6F00C000 		j	.L2
  44              	.LVL2:
  45              	.L6:
  21:test/ConsumerProducer_C_API_test.cpp ****     while ((key = getc()) != 0x1b) {
  22:test/ConsumerProducer_C_API_test.cpp ****         data->buffer->put(key);
  23:test/ConsumerProducer_C_API_test.cpp ****         i++;
  24:test/ConsumerProducer_C_API_test.cpp **** 
  25:test/ConsumerProducer_C_API_test.cpp **** 
  26:test/ConsumerProducer_C_API_test.cpp ****         printString("MOj PRoducer = ");
  27:test/ConsumerProducer_C_API_test.cpp ****         printInt(i);
  28:test/ConsumerProducer_C_API_test.cpp ****         printString("\n");
  29:test/ConsumerProducer_C_API_test.cpp **** 
  30:test/ConsumerProducer_C_API_test.cpp ****         if (i % (10 * data->id) == 0) {
  31:test/ConsumerProducer_C_API_test.cpp ****             thread_dispatch();
  46              		.loc 1 31 13 is_stmt 1
  47              		.loc 1 31 28 is_stmt 0
  48 0028 97000000 		call	_Z15thread_dispatchv@plt
  48      E7800000 
  49              	.LVL3:
  50              	.L2:
  21:test/ConsumerProducer_C_API_test.cpp ****     while ((key = getc()) != 0x1b) {
  51              		.loc 1 21 5 is_stmt 1
  21:test/ConsumerProducer_C_API_test.cpp ****     while ((key = getc()) != 0x1b) {
  52              		.loc 1 21 27
  21:test/ConsumerProducer_C_API_test.cpp ****     while ((key = getc()) != 0x1b) {
  53              		.loc 1 21 23 is_stmt 0
  54 0030 97000000 		call	_Z4getcv@plt
  54      E7800000 
  55              	.LVL4:
  21:test/ConsumerProducer_C_API_test.cpp ****     while ((key = getc()) != 0x1b) {
  56              		.loc 1 21 17
  57 0038 9B050500 		sext.w	a1,a0
  58              	.LVL5:
  21:test/ConsumerProducer_C_API_test.cpp ****     while ((key = getc()) != 0x1b) {
  59              		.loc 1 21 27
  60 003c 9307B001 		li	a5,27
  61 0040 6384F506 		beq	a1,a5,.L3
  22:test/ConsumerProducer_C_API_test.cpp ****         i++;
  62              		.loc 1 22 9 is_stmt 1
  22:test/ConsumerProducer_C_API_test.cpp ****         i++;
  63              		.loc 1 22 26 is_stmt 0
  64 0044 03B58900 		ld	a0,8(s3)
  65 0048 97000000 		call	_ZN6Buffer3putEi@plt
  65      E7800000 
  66              	.LVL6:
  23:test/ConsumerProducer_C_API_test.cpp **** 
  67              		.loc 1 23 9 is_stmt 1
  23:test/ConsumerProducer_C_API_test.cpp **** 
  68              		.loc 1 23 10 is_stmt 0
  69 0050 9B041900 		addiw	s1,s2,1
GAS LISTING /tmp/cceTTVsd.s 			page 3


  70 0054 1B890400 		sext.w	s2,s1
  71              	.LVL7:
  26:test/ConsumerProducer_C_API_test.cpp ****         printInt(i);
  72              		.loc 1 26 9 is_stmt 1
  26:test/ConsumerProducer_C_API_test.cpp ****         printInt(i);
  73              		.loc 1 26 20 is_stmt 0
  74 0058 17050000 		lla	a0,.LC0
  74      13050500 
  75 0060 97000000 		call	_Z11printStringPKc@plt
  75      E7800000 
  76              	.LVL8:
  27:test/ConsumerProducer_C_API_test.cpp ****         printString("\n");
  77              		.loc 1 27 9 is_stmt 1
  27:test/ConsumerProducer_C_API_test.cpp ****         printString("\n");
  78              		.loc 1 27 17 is_stmt 0
  79 0068 13060000 		li	a2,0
  80 006c 9305A000 		li	a1,10
  81 0070 13050900 		mv	a0,s2
  82 0074 97000000 		call	_Z8printIntiii@plt
  82      E7800000 
  83              	.LVL9:
  28:test/ConsumerProducer_C_API_test.cpp **** 
  84              		.loc 1 28 9 is_stmt 1
  28:test/ConsumerProducer_C_API_test.cpp **** 
  85              		.loc 1 28 20 is_stmt 0
  86 007c 17050000 		lla	a0,.LC1
  86      13050500 
  87 0084 97000000 		call	_Z11printStringPKc@plt
  87      E7800000 
  88              	.LVL10:
  30:test/ConsumerProducer_C_API_test.cpp ****             thread_dispatch();
  89              		.loc 1 30 9 is_stmt 1
  30:test/ConsumerProducer_C_API_test.cpp ****             thread_dispatch();
  90              		.loc 1 30 29 is_stmt 0
  91 008c 03A70900 		lw	a4,0(s3)
  30:test/ConsumerProducer_C_API_test.cpp ****             thread_dispatch();
  92              		.loc 1 30 21
  93 0090 9B172700 		slliw	a5,a4,2
  94 0094 BB87E700 		addw	a5,a5,a4
  95 0098 9B971700 		slliw	a5,a5,1
  30:test/ConsumerProducer_C_API_test.cpp ****             thread_dispatch();
  96              		.loc 1 30 15
  97 009c BBE7F402 		remw	a5,s1,a5
  30:test/ConsumerProducer_C_API_test.cpp ****             thread_dispatch();
  98              		.loc 1 30 9
  99 00a0 E39807F8 		bnez	a5,.L2
 100 00a4 6FF05FF8 		j	.L6
 101              	.LVL11:
 102              	.L3:
  32:test/ConsumerProducer_C_API_test.cpp ****         }
  33:test/ConsumerProducer_C_API_test.cpp ****     }
  34:test/ConsumerProducer_C_API_test.cpp **** 
  35:test/ConsumerProducer_C_API_test.cpp ****     threadEnd = 1;
 103              		.loc 1 35 5 is_stmt 1
 104              		.loc 1 35 15 is_stmt 0
 105 00a8 93071000 		li	a5,1
 106 00ac 17070000 		sw	a5,.LANCHOR0,a4
GAS LISTING /tmp/cceTTVsd.s 			page 4


 106      2320F700 
  36:test/ConsumerProducer_C_API_test.cpp ****     data->buffer->put('!');
 107              		.loc 1 36 5 is_stmt 1
 108              		.loc 1 36 22 is_stmt 0
 109 00b4 93051002 		li	a1,33
 110              	.LVL12:
 111 00b8 03B58900 		ld	a0,8(s3)
 112              	.LVL13:
 113 00bc 97000000 		call	_ZN6Buffer3putEi@plt
 113      E7800000 
 114              	.LVL14:
  37:test/ConsumerProducer_C_API_test.cpp **** 
  38:test/ConsumerProducer_C_API_test.cpp ****     sem_signal(data->wait);
 115              		.loc 1 38 5 is_stmt 1
 116              		.loc 1 38 15 is_stmt 0
 117 00c4 03B50901 		ld	a0,16(s3)
 118 00c8 97000000 		call	_Z10sem_signalP3sem@plt
 118      E7800000 
 119              	.LVL15:
  39:test/ConsumerProducer_C_API_test.cpp **** }
 120              		.loc 1 39 1
 121 00d0 83308102 		ld	ra,40(sp)
 122              		.cfi_restore 1
 123 00d4 03340102 		ld	s0,32(sp)
 124              		.cfi_restore 8
 125              		.cfi_def_cfa 2, 48
 126 00d8 83348101 		ld	s1,24(sp)
 127              		.cfi_restore 9
 128 00dc 03390101 		ld	s2,16(sp)
 129              		.cfi_restore 18
 130              	.LVL16:
 131 00e0 83398100 		ld	s3,8(sp)
 132              		.cfi_restore 19
 133              	.LVL17:
 134 00e4 13010103 		addi	sp,sp,48
 135              		.cfi_def_cfa_offset 0
 136 00e8 67800000 		jr	ra
 137              		.cfi_endproc
 138              	.LFE44:
 140              		.align	2
 142              	_ZL8producerPv:
 143              	.LFB45:
  40:test/ConsumerProducer_C_API_test.cpp **** 
  41:test/ConsumerProducer_C_API_test.cpp **** static void producer(void *arg) {
 144              		.loc 1 41 33 is_stmt 1
 145              		.cfi_startproc
 146              	.LVL18:
 147 00ec 130101FE 		addi	sp,sp,-32
 148              		.cfi_def_cfa_offset 32
 149 00f0 233C1100 		sd	ra,24(sp)
 150 00f4 23388100 		sd	s0,16(sp)
 151 00f8 23349100 		sd	s1,8(sp)
 152 00fc 23302101 		sd	s2,0(sp)
 153              		.cfi_offset 1, -8
 154              		.cfi_offset 8, -16
 155              		.cfi_offset 9, -24
 156              		.cfi_offset 18, -32
GAS LISTING /tmp/cceTTVsd.s 			page 5


 157 0100 13040102 		addi	s0,sp,32
 158              		.cfi_def_cfa 8, 0
 159 0104 93040500 		mv	s1,a0
  42:test/ConsumerProducer_C_API_test.cpp ****     struct thread_data *data = (struct thread_data *) arg;
 160              		.loc 1 42 5
 161              	.LVL19:
  43:test/ConsumerProducer_C_API_test.cpp **** 
  44:test/ConsumerProducer_C_API_test.cpp ****     int i = 0;
 162              		.loc 1 44 5
 163              		.loc 1 44 9 is_stmt 0
 164 0108 13090000 		li	s2,0
 165 010c 6F00C000 		j	.L8
 166              	.LVL20:
 167              	.L12:
  45:test/ConsumerProducer_C_API_test.cpp ****     while (!threadEnd) {
  46:test/ConsumerProducer_C_API_test.cpp ****         data->buffer->put(data->id + '0');
  47:test/ConsumerProducer_C_API_test.cpp ****         i++;
  48:test/ConsumerProducer_C_API_test.cpp **** 
  49:test/ConsumerProducer_C_API_test.cpp ****         if (i % (10 * data->id) == 0) {
  50:test/ConsumerProducer_C_API_test.cpp ****             thread_dispatch();
 168              		.loc 1 50 13 is_stmt 1
 169              		.loc 1 50 28 is_stmt 0
 170 0110 97000000 		call	_Z15thread_dispatchv@plt
 170      E7800000 
 171              	.LVL21:
 172              	.L8:
  45:test/ConsumerProducer_C_API_test.cpp ****     while (!threadEnd) {
 173              		.loc 1 45 5 is_stmt 1
  45:test/ConsumerProducer_C_API_test.cpp ****     while (!threadEnd) {
 174              		.loc 1 45 12
 175 0118 97070000 		lw	a5,.LANCHOR0
 175      83A70700 
 176 0120 639E0702 		bnez	a5,.L9
  46:test/ConsumerProducer_C_API_test.cpp ****         i++;
 177              		.loc 1 46 9
  46:test/ConsumerProducer_C_API_test.cpp ****         i++;
 178              		.loc 1 46 33 is_stmt 0
 179 0124 83A50400 		lw	a1,0(s1)
  46:test/ConsumerProducer_C_API_test.cpp ****         i++;
 180              		.loc 1 46 26
 181 0128 9B850503 		addiw	a1,a1,48
 182 012c 03B58400 		ld	a0,8(s1)
 183 0130 97000000 		call	_ZN6Buffer3putEi@plt
 183      E7800000 
 184              	.LVL22:
  47:test/ConsumerProducer_C_API_test.cpp **** 
 185              		.loc 1 47 9 is_stmt 1
  47:test/ConsumerProducer_C_API_test.cpp **** 
 186              		.loc 1 47 10 is_stmt 0
 187 0138 1B071900 		addiw	a4,s2,1
 188 013c 1B090700 		sext.w	s2,a4
 189              	.LVL23:
  49:test/ConsumerProducer_C_API_test.cpp ****             thread_dispatch();
 190              		.loc 1 49 9 is_stmt 1
  49:test/ConsumerProducer_C_API_test.cpp ****             thread_dispatch();
 191              		.loc 1 49 29 is_stmt 0
 192 0140 83A60400 		lw	a3,0(s1)
GAS LISTING /tmp/cceTTVsd.s 			page 6


  49:test/ConsumerProducer_C_API_test.cpp ****             thread_dispatch();
 193              		.loc 1 49 21
 194 0144 9B972600 		slliw	a5,a3,2
 195 0148 BB87D700 		addw	a5,a5,a3
 196 014c 9B971700 		slliw	a5,a5,1
  49:test/ConsumerProducer_C_API_test.cpp ****             thread_dispatch();
 197              		.loc 1 49 15
 198 0150 BB67F702 		remw	a5,a4,a5
  49:test/ConsumerProducer_C_API_test.cpp ****             thread_dispatch();
 199              		.loc 1 49 9
 200 0154 E39207FC 		bnez	a5,.L8
 201 0158 6FF09FFB 		j	.L12
 202              	.LVL24:
 203              	.L9:
  51:test/ConsumerProducer_C_API_test.cpp ****         }
  52:test/ConsumerProducer_C_API_test.cpp ****     }
  53:test/ConsumerProducer_C_API_test.cpp **** 
  54:test/ConsumerProducer_C_API_test.cpp ****     sem_signal(data->wait);
 204              		.loc 1 54 5 is_stmt 1
 205              		.loc 1 54 15 is_stmt 0
 206 015c 03B50401 		ld	a0,16(s1)
 207 0160 97000000 		call	_Z10sem_signalP3sem@plt
 207      E7800000 
 208              	.LVL25:
  55:test/ConsumerProducer_C_API_test.cpp **** }
 209              		.loc 1 55 1
 210 0168 83308101 		ld	ra,24(sp)
 211              		.cfi_restore 1
 212 016c 03340101 		ld	s0,16(sp)
 213              		.cfi_restore 8
 214              		.cfi_def_cfa 2, 32
 215 0170 83348100 		ld	s1,8(sp)
 216              		.cfi_restore 9
 217              	.LVL26:
 218 0174 03390100 		ld	s2,0(sp)
 219              		.cfi_restore 18
 220              	.LVL27:
 221 0178 13010102 		addi	sp,sp,32
 222              		.cfi_def_cfa_offset 0
 223 017c 67800000 		jr	ra
 224              		.cfi_endproc
 225              	.LFE45:
 227              		.section	.rodata.str1.8
 228 0012 00000000 		.align	3
 228      0000
 229              	.LC2:
 230 0018 436F6E73 		.string	"Consumer i = "
 230      756D6572 
 230      2069203D 
 230      2000
 231              		.text
 232              		.align	2
 234              	_ZL8consumerPv:
 235              	.LFB46:
  56:test/ConsumerProducer_C_API_test.cpp **** 
  57:test/ConsumerProducer_C_API_test.cpp **** static void consumer(void *arg) {
 236              		.loc 1 57 33 is_stmt 1
GAS LISTING /tmp/cceTTVsd.s 			page 7


 237              		.cfi_startproc
 238              	.LVL28:
 239 0180 130101FD 		addi	sp,sp,-48
 240              		.cfi_def_cfa_offset 48
 241 0184 23341102 		sd	ra,40(sp)
 242 0188 23308102 		sd	s0,32(sp)
 243 018c 233C9100 		sd	s1,24(sp)
 244 0190 23382101 		sd	s2,16(sp)
 245 0194 23343101 		sd	s3,8(sp)
 246              		.cfi_offset 1, -8
 247              		.cfi_offset 8, -16
 248              		.cfi_offset 9, -24
 249              		.cfi_offset 18, -32
 250              		.cfi_offset 19, -40
 251 0198 13040103 		addi	s0,sp,48
 252              		.cfi_def_cfa 8, 0
 253 019c 13090500 		mv	s2,a0
  58:test/ConsumerProducer_C_API_test.cpp ****     struct thread_data *data = (struct thread_data *) arg;
 254              		.loc 1 58 5
 255              	.LVL29:
  59:test/ConsumerProducer_C_API_test.cpp **** 
  60:test/ConsumerProducer_C_API_test.cpp ****     int i = 0;
 256              		.loc 1 60 5
 257              		.loc 1 60 9 is_stmt 0
 258 01a0 93090000 		li	s3,0
 259 01a4 6F00C001 		j	.L14
 260              	.LVL30:
 261              	.L20:
 262              	.LBB2:
  61:test/ConsumerProducer_C_API_test.cpp ****     while (!threadEnd) {
  62:test/ConsumerProducer_C_API_test.cpp ****         int key = data->buffer->get();
  63:test/ConsumerProducer_C_API_test.cpp ****         i++;
  64:test/ConsumerProducer_C_API_test.cpp **** 
  65:test/ConsumerProducer_C_API_test.cpp ****         putc(key);
  66:test/ConsumerProducer_C_API_test.cpp **** 
  67:test/ConsumerProducer_C_API_test.cpp ****         printString("Consumer i = ");
  68:test/ConsumerProducer_C_API_test.cpp ****         printInt(i);
  69:test/ConsumerProducer_C_API_test.cpp ****         printString("\n");
  70:test/ConsumerProducer_C_API_test.cpp **** 
  71:test/ConsumerProducer_C_API_test.cpp **** 
  72:test/ConsumerProducer_C_API_test.cpp ****         if (i % (5 * data->id) == 0) {
  73:test/ConsumerProducer_C_API_test.cpp ****             thread_dispatch();
 263              		.loc 1 73 13 is_stmt 1
 264              		.loc 1 73 28 is_stmt 0
 265 01a8 97000000 		call	_Z15thread_dispatchv@plt
 265      E7800000 
 266              	.LVL31:
 267 01b0 6F004008 		j	.L16
 268              	.LVL32:
 269              	.L21:
  74:test/ConsumerProducer_C_API_test.cpp ****         }
  75:test/ConsumerProducer_C_API_test.cpp **** 
  76:test/ConsumerProducer_C_API_test.cpp ****         if (i % 80 == 0) {
  77:test/ConsumerProducer_C_API_test.cpp ****             putc('\n');
 270              		.loc 1 77 13 is_stmt 1
 271              		.loc 1 77 17 is_stmt 0
 272 01b4 1305A000 		li	a0,10
GAS LISTING /tmp/cceTTVsd.s 			page 8


 273 01b8 97000000 		call	_Z4putcc@plt
 273      E7800000 
 274              	.LVL33:
 275              	.L14:
 276              	.LBE2:
  61:test/ConsumerProducer_C_API_test.cpp ****     while (!threadEnd) {
 277              		.loc 1 61 5 is_stmt 1
  61:test/ConsumerProducer_C_API_test.cpp ****     while (!threadEnd) {
 278              		.loc 1 61 12
 279 01c0 97070000 		lw	a5,.LANCHOR0
 279      83A70700 
 280 01c8 639A0708 		bnez	a5,.L15
 281              	.LBB3:
  62:test/ConsumerProducer_C_API_test.cpp ****         i++;
 282              		.loc 1 62 9
  62:test/ConsumerProducer_C_API_test.cpp ****         i++;
 283              		.loc 1 62 36 is_stmt 0
 284 01cc 03358900 		ld	a0,8(s2)
 285 01d0 97000000 		call	_ZN6Buffer3getEv@plt
 285      E7800000 
 286              	.LVL34:
  63:test/ConsumerProducer_C_API_test.cpp **** 
 287              		.loc 1 63 9 is_stmt 1
  63:test/ConsumerProducer_C_API_test.cpp **** 
 288              		.loc 1 63 10 is_stmt 0
 289 01d8 9B841900 		addiw	s1,s3,1
 290 01dc 9B890400 		sext.w	s3,s1
 291              	.LVL35:
  65:test/ConsumerProducer_C_API_test.cpp **** 
 292              		.loc 1 65 9 is_stmt 1
  65:test/ConsumerProducer_C_API_test.cpp **** 
 293              		.loc 1 65 13 is_stmt 0
 294 01e0 1375F50F 		andi	a0,a0,0xff
 295              	.LVL36:
 296 01e4 97000000 		call	_Z4putcc@plt
 296      E7800000 
 297              	.LVL37:
  67:test/ConsumerProducer_C_API_test.cpp ****         printInt(i);
 298              		.loc 1 67 9 is_stmt 1
  67:test/ConsumerProducer_C_API_test.cpp ****         printInt(i);
 299              		.loc 1 67 20 is_stmt 0
 300 01ec 17050000 		lla	a0,.LC2
 300      13050500 
 301 01f4 97000000 		call	_Z11printStringPKc@plt
 301      E7800000 
 302              	.LVL38:
  68:test/ConsumerProducer_C_API_test.cpp ****         printString("\n");
 303              		.loc 1 68 9 is_stmt 1
  68:test/ConsumerProducer_C_API_test.cpp ****         printString("\n");
 304              		.loc 1 68 17 is_stmt 0
 305 01fc 13060000 		li	a2,0
 306 0200 9305A000 		li	a1,10
 307 0204 13850900 		mv	a0,s3
 308 0208 97000000 		call	_Z8printIntiii@plt
 308      E7800000 
 309              	.LVL39:
  69:test/ConsumerProducer_C_API_test.cpp **** 
GAS LISTING /tmp/cceTTVsd.s 			page 9


 310              		.loc 1 69 9 is_stmt 1
  69:test/ConsumerProducer_C_API_test.cpp **** 
 311              		.loc 1 69 20 is_stmt 0
 312 0210 17050000 		lla	a0,.LC1
 312      13050500 
 313 0218 97000000 		call	_Z11printStringPKc@plt
 313      E7800000 
 314              	.LVL40:
  72:test/ConsumerProducer_C_API_test.cpp ****             thread_dispatch();
 315              		.loc 1 72 9 is_stmt 1
  72:test/ConsumerProducer_C_API_test.cpp ****             thread_dispatch();
 316              		.loc 1 72 28 is_stmt 0
 317 0220 03270900 		lw	a4,0(s2)
  72:test/ConsumerProducer_C_API_test.cpp ****             thread_dispatch();
 318              		.loc 1 72 20
 319 0224 9B172700 		slliw	a5,a4,2
 320 0228 BB87E700 		addw	a5,a5,a4
  72:test/ConsumerProducer_C_API_test.cpp ****             thread_dispatch();
 321              		.loc 1 72 15
 322 022c BBE7F402 		remw	a5,s1,a5
  72:test/ConsumerProducer_C_API_test.cpp ****             thread_dispatch();
 323              		.loc 1 72 9
 324 0230 E38C07F6 		beqz	a5,.L20
 325              	.L16:
  76:test/ConsumerProducer_C_API_test.cpp ****             putc('\n');
 326              		.loc 1 76 9 is_stmt 1
  76:test/ConsumerProducer_C_API_test.cpp ****             putc('\n');
 327              		.loc 1 76 15 is_stmt 0
 328 0234 93070005 		li	a5,80
 329 0238 BBE4F402 		remw	s1,s1,a5
 330              	.LVL41:
  76:test/ConsumerProducer_C_API_test.cpp ****             putc('\n');
 331              		.loc 1 76 9
 332 023c E39204F8 		bnez	s1,.L14
 333 0240 6FF05FF7 		j	.L21
 334              	.L22:
 335              	.LBE3:
 336              	.LBB4:
  78:test/ConsumerProducer_C_API_test.cpp ****         }
  79:test/ConsumerProducer_C_API_test.cpp ****     }
  80:test/ConsumerProducer_C_API_test.cpp **** 
  81:test/ConsumerProducer_C_API_test.cpp ****     while (data->buffer->getCnt() > 0) {
  82:test/ConsumerProducer_C_API_test.cpp ****         int key = data->buffer->get();
 337              		.loc 1 82 9 is_stmt 1
 338              		.loc 1 82 36 is_stmt 0
 339 0244 03358900 		ld	a0,8(s2)
 340 0248 97000000 		call	_ZN6Buffer3getEv@plt
 340      E7800000 
 341              	.LVL42:
  83:test/ConsumerProducer_C_API_test.cpp ****         putc(key);
 342              		.loc 1 83 9 is_stmt 1
 343              		.loc 1 83 13 is_stmt 0
 344 0250 1375F50F 		andi	a0,a0,0xff
 345              	.LVL43:
 346 0254 97000000 		call	_Z4putcc@plt
 346      E7800000 
 347              	.LVL44:
GAS LISTING /tmp/cceTTVsd.s 			page 10


 348              	.L15:
 349              	.LBE4:
  81:test/ConsumerProducer_C_API_test.cpp ****         int key = data->buffer->get();
 350              		.loc 1 81 5 is_stmt 1
  81:test/ConsumerProducer_C_API_test.cpp ****         int key = data->buffer->get();
 351              		.loc 1 81 35
  81:test/ConsumerProducer_C_API_test.cpp ****         int key = data->buffer->get();
 352              		.loc 1 81 32 is_stmt 0
 353 025c 03358900 		ld	a0,8(s2)
 354 0260 97000000 		call	_ZN6Buffer6getCntEv@plt
 354      E7800000 
 355              	.LVL45:
  81:test/ConsumerProducer_C_API_test.cpp ****         int key = data->buffer->get();
 356              		.loc 1 81 35
 357 0268 E34EA0FC 		bgtz	a0,.L22
  84:test/ConsumerProducer_C_API_test.cpp ****     }
  85:test/ConsumerProducer_C_API_test.cpp **** 
  86:test/ConsumerProducer_C_API_test.cpp ****     sem_signal(data->wait);
 358              		.loc 1 86 5 is_stmt 1
 359              		.loc 1 86 15 is_stmt 0
 360 026c 03350901 		ld	a0,16(s2)
 361 0270 97000000 		call	_Z10sem_signalP3sem@plt
 361      E7800000 
 362              	.LVL46:
  87:test/ConsumerProducer_C_API_test.cpp **** }
 363              		.loc 1 87 1
 364 0278 83308102 		ld	ra,40(sp)
 365              		.cfi_restore 1
 366 027c 03340102 		ld	s0,32(sp)
 367              		.cfi_restore 8
 368              		.cfi_def_cfa 2, 48
 369 0280 83348101 		ld	s1,24(sp)
 370              		.cfi_restore 9
 371 0284 03390101 		ld	s2,16(sp)
 372              		.cfi_restore 18
 373              	.LVL47:
 374 0288 83398100 		ld	s3,8(sp)
 375              		.cfi_restore 19
 376              	.LVL48:
 377 028c 13010103 		addi	sp,sp,48
 378              		.cfi_def_cfa_offset 0
 379 0290 67800000 		jr	ra
 380              		.cfi_endproc
 381              	.LFE46:
 383              		.section	.rodata.str1.8
 384 0026 0000     		.align	3
 385              	.LC3:
 386 0028 556E6573 		.string	"Unesite broj proizvodjaca?\n"
 386      69746520 
 386      62726F6A 
 386      2070726F 
 386      697A766F 
 387 0044 00000000 		.align	3
 388              	.LC4:
 389 0048 556E6573 		.string	"Unesite velicinu bafera?\n"
 389      69746520 
 389      76656C69 
GAS LISTING /tmp/cceTTVsd.s 			page 11


 389      63696E75 
 389      20626166 
 390 0062 00000000 		.align	3
 390      0000
 391              	.LC5:
 392 0068 42726F6A 		.string	"Broj proizvodjaca "
 392      2070726F 
 392      697A766F 
 392      646A6163 
 392      612000
 393 007b 00000000 		.align	3
 393      00
 394              	.LC6:
 395 0080 20692076 		.string	" i velicina bafera "
 395      656C6963 
 395      696E6120 
 395      62616665 
 395      72612000 
 396 0094 00000000 		.align	3
 397              	.LC7:
 398 0098 2E0A00   		.string	".\n"
 399 009b 00000000 		.align	3
 399      00
 400              	.LC8:
 401 00a0 42726F6A 		.string	"Broj proizvodjaca ne sme biti manji od velicine bafera!\n"
 401      2070726F 
 401      697A766F 
 401      646A6163 
 401      61206E65 
 402 00d9 00000000 		.align	3
 402      000000
 403              	.LC9:
 404 00e0 42726F6A 		.string	"Broj proizvodjaca mora biti veci od nula!\n"
 404      2070726F 
 404      697A766F 
 404      646A6163 
 404      61206D6F 
 405              		.text
 406              		.align	2
 407              		.globl	_Z22producerConsumer_C_APIv
 409              	_Z22producerConsumer_C_APIv:
 410              	.LFB47:
  88:test/ConsumerProducer_C_API_test.cpp **** 
  89:test/ConsumerProducer_C_API_test.cpp **** void producerConsumer_C_API() {
 411              		.loc 1 89 31 is_stmt 1
 412              		.cfi_startproc
 413              		.cfi_personality 0x9b,DW.ref.__gxx_personality_v0
 414              		.cfi_lsda 0x1b,.LLSDA47
 415 0294 130101F9 		addi	sp,sp,-112
 416              		.cfi_def_cfa_offset 112
 417 0298 23341106 		sd	ra,104(sp)
 418 029c 23308106 		sd	s0,96(sp)
 419 02a0 233C9104 		sd	s1,88(sp)
 420 02a4 23382105 		sd	s2,80(sp)
 421 02a8 23343105 		sd	s3,72(sp)
 422 02ac 23304105 		sd	s4,64(sp)
 423 02b0 233C5103 		sd	s5,56(sp)
GAS LISTING /tmp/cceTTVsd.s 			page 12


 424 02b4 23386103 		sd	s6,48(sp)
 425              		.cfi_offset 1, -8
 426              		.cfi_offset 8, -16
 427              		.cfi_offset 9, -24
 428              		.cfi_offset 18, -32
 429              		.cfi_offset 19, -40
 430              		.cfi_offset 20, -48
 431              		.cfi_offset 21, -56
 432              		.cfi_offset 22, -64
 433 02b8 13040107 		addi	s0,sp,112
 434              		.cfi_def_cfa 8, 0
  90:test/ConsumerProducer_C_API_test.cpp ****     char input[30];
  91:test/ConsumerProducer_C_API_test.cpp ****     int n, threadNum;
  92:test/ConsumerProducer_C_API_test.cpp **** 
  93:test/ConsumerProducer_C_API_test.cpp ****     printString("Unesite broj proizvodjaca?\n");
  94:test/ConsumerProducer_C_API_test.cpp ****     getString(input, 30);
  95:test/ConsumerProducer_C_API_test.cpp ****     threadNum = stringToInt(input);
  96:test/ConsumerProducer_C_API_test.cpp **** 
  97:test/ConsumerProducer_C_API_test.cpp ****     printString("Unesite velicinu bafera?\n");
  98:test/ConsumerProducer_C_API_test.cpp ****     getString(input, 30);
  99:test/ConsumerProducer_C_API_test.cpp ****     n = stringToInt(input);
 100:test/ConsumerProducer_C_API_test.cpp **** 
 101:test/ConsumerProducer_C_API_test.cpp ****     printString("Broj proizvodjaca "); printInt(threadNum);
 102:test/ConsumerProducer_C_API_test.cpp ****     printString(" i velicina bafera "); printInt(n);
 103:test/ConsumerProducer_C_API_test.cpp ****     printString(".\n");
 104:test/ConsumerProducer_C_API_test.cpp **** 
 105:test/ConsumerProducer_C_API_test.cpp ****     if(threadNum > n) {
 106:test/ConsumerProducer_C_API_test.cpp ****         printString("Broj proizvodjaca ne sme biti manji od velicine bafera!\n");
 107:test/ConsumerProducer_C_API_test.cpp ****         return;
 108:test/ConsumerProducer_C_API_test.cpp ****     } else if (threadNum < 1) {
 109:test/ConsumerProducer_C_API_test.cpp ****         printString("Broj proizvodjaca mora biti veci od nula!\n");
 110:test/ConsumerProducer_C_API_test.cpp ****         return;
 111:test/ConsumerProducer_C_API_test.cpp ****     }
 112:test/ConsumerProducer_C_API_test.cpp **** 
 113:test/ConsumerProducer_C_API_test.cpp ****     Buffer *buffer = new Buffer(n);
 114:test/ConsumerProducer_C_API_test.cpp **** 
 115:test/ConsumerProducer_C_API_test.cpp ****     sem_open(&waitForAll, 0);
 116:test/ConsumerProducer_C_API_test.cpp **** 
 117:test/ConsumerProducer_C_API_test.cpp ****     thread_t threads[threadNum];
 118:test/ConsumerProducer_C_API_test.cpp ****     thread_t consumerThread;
 119:test/ConsumerProducer_C_API_test.cpp **** 
 120:test/ConsumerProducer_C_API_test.cpp ****     struct thread_data data[threadNum + 1];
 121:test/ConsumerProducer_C_API_test.cpp **** 
 122:test/ConsumerProducer_C_API_test.cpp ****     data[threadNum].id = threadNum;
 123:test/ConsumerProducer_C_API_test.cpp ****     data[threadNum].buffer = buffer;
 124:test/ConsumerProducer_C_API_test.cpp ****     data[threadNum].wait = waitForAll;
 125:test/ConsumerProducer_C_API_test.cpp ****     thread_create(&consumerThread, consumer, data + threadNum);
 126:test/ConsumerProducer_C_API_test.cpp **** 
 127:test/ConsumerProducer_C_API_test.cpp ****     for (int i = 0; i < threadNum; i++) {
 128:test/ConsumerProducer_C_API_test.cpp ****         data[i].id = i;
 129:test/ConsumerProducer_C_API_test.cpp ****         data[i].buffer = buffer;
 130:test/ConsumerProducer_C_API_test.cpp ****         data[i].wait = waitForAll;
 131:test/ConsumerProducer_C_API_test.cpp **** 
 132:test/ConsumerProducer_C_API_test.cpp ****         thread_create(threads + i,
 133:test/ConsumerProducer_C_API_test.cpp ****                       i > 0 ? producer : producerKeyboard,
 134:test/ConsumerProducer_C_API_test.cpp ****                       data + i);
 135:test/ConsumerProducer_C_API_test.cpp ****     }
GAS LISTING /tmp/cceTTVsd.s 			page 13


 136:test/ConsumerProducer_C_API_test.cpp **** 
 137:test/ConsumerProducer_C_API_test.cpp ****     thread_dispatch();
 138:test/ConsumerProducer_C_API_test.cpp **** 
 139:test/ConsumerProducer_C_API_test.cpp ****     for (int i = 0; i <= threadNum; i++) {
 140:test/ConsumerProducer_C_API_test.cpp ****         sem_wait(waitForAll);
 141:test/ConsumerProducer_C_API_test.cpp ****     }
 142:test/ConsumerProducer_C_API_test.cpp **** 
 143:test/ConsumerProducer_C_API_test.cpp ****     sem_close(waitForAll);
 144:test/ConsumerProducer_C_API_test.cpp **** 
 145:test/ConsumerProducer_C_API_test.cpp ****     delete buffer;
 435              		.loc 1 145 18 is_stmt 0
 436 02bc 130B0100 		mv	s6,sp
  90:test/ConsumerProducer_C_API_test.cpp ****     char input[30];
 437              		.loc 1 90 5 is_stmt 1
  91:test/ConsumerProducer_C_API_test.cpp **** 
 438              		.loc 1 91 5
  93:test/ConsumerProducer_C_API_test.cpp ****     getString(input, 30);
 439              		.loc 1 93 5
  93:test/ConsumerProducer_C_API_test.cpp ****     getString(input, 30);
 440              		.loc 1 93 16 is_stmt 0
 441 02c0 17050000 		lla	a0,.LC3
 441      13050500 
 442              	.LEHB0:
 443 02c8 97000000 		call	_Z11printStringPKc@plt
 443      E7800000 
 444              	.LVL49:
  94:test/ConsumerProducer_C_API_test.cpp ****     threadNum = stringToInt(input);
 445              		.loc 1 94 5 is_stmt 1
  94:test/ConsumerProducer_C_API_test.cpp ****     threadNum = stringToInt(input);
 446              		.loc 1 94 14 is_stmt 0
 447 02d0 9305E001 		li	a1,30
 448 02d4 930404FA 		addi	s1,s0,-96
 449 02d8 13850400 		mv	a0,s1
 450 02dc 97000000 		call	_Z9getStringPci@plt
 450      E7800000 
 451              	.LVL50:
  95:test/ConsumerProducer_C_API_test.cpp **** 
 452              		.loc 1 95 5 is_stmt 1
  95:test/ConsumerProducer_C_API_test.cpp **** 
 453              		.loc 1 95 28 is_stmt 0
 454 02e4 13850400 		mv	a0,s1
 455 02e8 97000000 		call	_Z11stringToIntPKc@plt
 455      E7800000 
 456              	.LVL51:
 457 02f0 13090500 		mv	s2,a0
 458              	.LVL52:
  97:test/ConsumerProducer_C_API_test.cpp ****     getString(input, 30);
 459              		.loc 1 97 5 is_stmt 1
  97:test/ConsumerProducer_C_API_test.cpp ****     getString(input, 30);
 460              		.loc 1 97 16 is_stmt 0
 461 02f4 17050000 		lla	a0,.LC4
 461      13050500 
 462 02fc 97000000 		call	_Z11printStringPKc@plt
 462      E7800000 
 463              	.LVL53:
  98:test/ConsumerProducer_C_API_test.cpp ****     n = stringToInt(input);
 464              		.loc 1 98 5 is_stmt 1
GAS LISTING /tmp/cceTTVsd.s 			page 14


  98:test/ConsumerProducer_C_API_test.cpp ****     n = stringToInt(input);
 465              		.loc 1 98 14 is_stmt 0
 466 0304 9305E001 		li	a1,30
 467 0308 13850400 		mv	a0,s1
 468 030c 97000000 		call	_Z9getStringPci@plt
 468      E7800000 
 469              	.LVL54:
  99:test/ConsumerProducer_C_API_test.cpp **** 
 470              		.loc 1 99 5 is_stmt 1
  99:test/ConsumerProducer_C_API_test.cpp **** 
 471              		.loc 1 99 20 is_stmt 0
 472 0314 13850400 		mv	a0,s1
 473 0318 97000000 		call	_Z11stringToIntPKc@plt
 473      E7800000 
 474              	.LVL55:
 475 0320 93040500 		mv	s1,a0
 476              	.LVL56:
 101:test/ConsumerProducer_C_API_test.cpp ****     printString(" i velicina bafera "); printInt(n);
 477              		.loc 1 101 5 is_stmt 1
 101:test/ConsumerProducer_C_API_test.cpp ****     printString(" i velicina bafera "); printInt(n);
 478              		.loc 1 101 16 is_stmt 0
 479 0324 17050000 		lla	a0,.LC5
 479      13050500 
 480 032c 97000000 		call	_Z11printStringPKc@plt
 480      E7800000 
 481              	.LVL57:
 101:test/ConsumerProducer_C_API_test.cpp ****     printString(" i velicina bafera "); printInt(n);
 482              		.loc 1 101 40 is_stmt 1
 101:test/ConsumerProducer_C_API_test.cpp ****     printString(" i velicina bafera "); printInt(n);
 483              		.loc 1 101 48 is_stmt 0
 484 0334 13060000 		li	a2,0
 485 0338 9305A000 		li	a1,10
 486 033c 13050900 		mv	a0,s2
 487 0340 97000000 		call	_Z8printIntiii@plt
 487      E7800000 
 488              	.LVL58:
 102:test/ConsumerProducer_C_API_test.cpp ****     printString(".\n");
 489              		.loc 1 102 5 is_stmt 1
 102:test/ConsumerProducer_C_API_test.cpp ****     printString(".\n");
 490              		.loc 1 102 16 is_stmt 0
 491 0348 17050000 		lla	a0,.LC6
 491      13050500 
 492 0350 97000000 		call	_Z11printStringPKc@plt
 492      E7800000 
 493              	.LVL59:
 102:test/ConsumerProducer_C_API_test.cpp ****     printString(".\n");
 494              		.loc 1 102 41 is_stmt 1
 102:test/ConsumerProducer_C_API_test.cpp ****     printString(".\n");
 495              		.loc 1 102 49 is_stmt 0
 496 0358 13060000 		li	a2,0
 497 035c 9305A000 		li	a1,10
 498 0360 13850400 		mv	a0,s1
 499 0364 97000000 		call	_Z8printIntiii@plt
 499      E7800000 
 500              	.LVL60:
 103:test/ConsumerProducer_C_API_test.cpp **** 
 501              		.loc 1 103 5 is_stmt 1
GAS LISTING /tmp/cceTTVsd.s 			page 15


 103:test/ConsumerProducer_C_API_test.cpp **** 
 502              		.loc 1 103 16 is_stmt 0
 503 036c 17050000 		lla	a0,.LC7
 503      13050500 
 504 0374 97000000 		call	_Z11printStringPKc@plt
 504      E7800000 
 505              	.LVL61:
 105:test/ConsumerProducer_C_API_test.cpp ****         printString("Broj proizvodjaca ne sme biti manji od velicine bafera!\n");
 506              		.loc 1 105 5 is_stmt 1
 507 037c 63C42403 		bgt	s2,s1,.L38
 108:test/ConsumerProducer_C_API_test.cpp ****         printString("Broj proizvodjaca mora biti veci od nula!\n");
 508              		.loc 1 108 12
 509 0380 635C2003 		blez	s2,.L39
 113:test/ConsumerProducer_C_API_test.cpp **** 
 510              		.loc 1 113 5
 113:test/ConsumerProducer_C_API_test.cpp **** 
 511              		.loc 1 113 34 is_stmt 0
 512 0384 13058003 		li	a0,56
 513 0388 97000000 		call	_Znwm@plt
 513      E7800000 
 514              	.LVL62:
 515              	.LEHE0:
 516 0390 130A0500 		mv	s4,a0
 517 0394 93850400 		mv	a1,s1
 518              	.LEHB1:
 519 0398 97000000 		call	_ZN6BufferC1Ei@plt
 519      E7800000 
 520              	.LVL63:
 521              	.LEHE1:
 522 03a0 6F000003 		j	.L40
 523              	.L38:
 106:test/ConsumerProducer_C_API_test.cpp ****         return;
 524              		.loc 1 106 9 is_stmt 1
 106:test/ConsumerProducer_C_API_test.cpp ****         return;
 525              		.loc 1 106 20 is_stmt 0
 526 03a4 17050000 		lla	a0,.LC8
 526      13050500 
 527              	.LEHB2:
 528 03ac 97000000 		call	_Z11printStringPKc@plt
 528      E7800000 
 529              	.LVL64:
 107:test/ConsumerProducer_C_API_test.cpp ****     } else if (threadNum < 1) {
 530              		.loc 1 107 9 is_stmt 1
 531 03b4 6F004001 		j	.L25
 532              	.L39:
 109:test/ConsumerProducer_C_API_test.cpp ****         return;
 533              		.loc 1 109 9
 109:test/ConsumerProducer_C_API_test.cpp ****         return;
 534              		.loc 1 109 20 is_stmt 0
 535 03b8 17050000 		lla	a0,.LC9
 535      13050500 
 536 03c0 97000000 		call	_Z11printStringPKc@plt
 536      E7800000 
 537              	.LVL65:
 110:test/ConsumerProducer_C_API_test.cpp ****     }
 538              		.loc 1 110 9 is_stmt 1
 539              	.L25:
GAS LISTING /tmp/cceTTVsd.s 			page 16


 540 03c8 13010B00 		mv	sp,s6
 541 03cc 6F000015 		j	.L23
 542              	.L40:
 543              	.LVL66:
 115:test/ConsumerProducer_C_API_test.cpp **** 
 544              		.loc 1 115 5 discriminator 3
 115:test/ConsumerProducer_C_API_test.cpp **** 
 545              		.loc 1 115 13 is_stmt 0 discriminator 3
 546 03d0 93050000 		li	a1,0
 547 03d4 17050000 		lla	a0,.LANCHOR0+8
 547      13050500 
 548 03dc 97000000 		call	_Z8sem_openPP3semj@plt
 548      E7800000 
 549              	.LVL67:
 117:test/ConsumerProducer_C_API_test.cpp ****     thread_t consumerThread;
 550              		.loc 1 117 5 is_stmt 1 discriminator 3
 117:test/ConsumerProducer_C_API_test.cpp ****     thread_t consumerThread;
 551              		.loc 1 117 14 is_stmt 0 discriminator 3
 552 03e4 93173900 		slli	a5,s2,3
 553 03e8 9387F700 		addi	a5,a5,15
 554 03ec 93F707FF 		andi	a5,a5,-16
 555 03f0 3301F140 		sub	sp,sp,a5
 556 03f4 930A0100 		mv	s5,sp
 557              	.LVL68:
 118:test/ConsumerProducer_C_API_test.cpp **** 
 558              		.loc 1 118 5 is_stmt 1 discriminator 3
 120:test/ConsumerProducer_C_API_test.cpp **** 
 559              		.loc 1 120 5 discriminator 3
 120:test/ConsumerProducer_C_API_test.cpp **** 
 560              		.loc 1 120 39 is_stmt 0 discriminator 3
 561 03f8 1B071900 		addiw	a4,s2,1
 562              	.LVL69:
 120:test/ConsumerProducer_C_API_test.cpp **** 
 563              		.loc 1 120 24 discriminator 3
 564 03fc 93171700 		slli	a5,a4,1
 565 0400 B387E700 		add	a5,a5,a4
 566 0404 93973700 		slli	a5,a5,3
 567 0408 9387F700 		addi	a5,a5,15
 568 040c 93F707FF 		andi	a5,a5,-16
 569 0410 3301F140 		sub	sp,sp,a5
 570              	.LVL70:
 571 0414 93090100 		mv	s3,sp
 572              	.LVL71:
 122:test/ConsumerProducer_C_API_test.cpp ****     data[threadNum].buffer = buffer;
 573              		.loc 1 122 5 is_stmt 1 discriminator 3
 122:test/ConsumerProducer_C_API_test.cpp ****     data[threadNum].buffer = buffer;
 574              		.loc 1 122 24 is_stmt 0 discriminator 3
 575 0418 13161900 		slli	a2,s2,1
 576 041c B3072601 		add	a5,a2,s2
 577 0420 93973700 		slli	a5,a5,3
 578 0424 B387F900 		add	a5,s3,a5
 579 0428 23A02701 		sw	s2,0(a5)
 123:test/ConsumerProducer_C_API_test.cpp ****     data[threadNum].wait = waitForAll;
 580              		.loc 1 123 5 is_stmt 1 discriminator 3
 123:test/ConsumerProducer_C_API_test.cpp ****     data[threadNum].wait = waitForAll;
 581              		.loc 1 123 28 is_stmt 0 discriminator 3
 582 042c 23B44701 		sd	s4,8(a5)
GAS LISTING /tmp/cceTTVsd.s 			page 17


 124:test/ConsumerProducer_C_API_test.cpp ****     thread_create(&consumerThread, consumer, data + threadNum);
 583              		.loc 1 124 5 is_stmt 1 discriminator 3
 124:test/ConsumerProducer_C_API_test.cpp ****     thread_create(&consumerThread, consumer, data + threadNum);
 584              		.loc 1 124 26 is_stmt 0 discriminator 3
 585 0430 17070000 		ld	a4,.LANCHOR0+8
 585      03370700 
 586 0438 23B8E700 		sd	a4,16(a5)
 125:test/ConsumerProducer_C_API_test.cpp **** 
 587              		.loc 1 125 5 is_stmt 1 discriminator 3
 125:test/ConsumerProducer_C_API_test.cpp **** 
 588              		.loc 1 125 18 is_stmt 0 discriminator 3
 589 043c 13860700 		mv	a2,a5
 590 0440 97050000 		lla	a1,_ZL8consumerPv
 590      93850500 
 591 0448 130584F9 		addi	a0,s0,-104
 592 044c 97000000 		call	_Z13thread_createPP3TCBPFvPvES2_@plt
 592      E7800000 
 593              	.LVL72:
 594              	.LBB5:
 127:test/ConsumerProducer_C_API_test.cpp ****         data[i].id = i;
 595              		.loc 1 127 14 discriminator 3
 596 0454 93040000 		li	s1,0
 597              	.LVL73:
 598 0458 6F008002 		j	.L29
 599              	.LVL74:
 600              	.L35:
 132:test/ConsumerProducer_C_API_test.cpp ****                       i > 0 ? producer : producerKeyboard,
 601              		.loc 1 132 22
 602 045c 97050000 		lla	a1,_ZL16producerKeyboardPv
 602      93850500 
 603              	.L28:
 134:test/ConsumerProducer_C_API_test.cpp ****     }
 604              		.loc 1 134 28 discriminator 4
 605 0464 13961700 		slli	a2,a5,1
 606 0468 3306F600 		add	a2,a2,a5
 607 046c 13163600 		slli	a2,a2,3
 132:test/ConsumerProducer_C_API_test.cpp ****                       i > 0 ? producer : producerKeyboard,
 608              		.loc 1 132 22 discriminator 4
 609 0470 3386C900 		add	a2,s3,a2
 610 0474 97000000 		call	_Z13thread_createPP3TCBPFvPvES2_@plt
 610      E7800000 
 611              	.LVL75:
 127:test/ConsumerProducer_C_API_test.cpp ****         data[i].id = i;
 612              		.loc 1 127 5 is_stmt 1 discriminator 4
 613 047c 9B841400 		addiw	s1,s1,1
 614              	.LVL76:
 615              	.L29:
 127:test/ConsumerProducer_C_API_test.cpp ****         data[i].id = i;
 616              		.loc 1 127 23 discriminator 1
 617 0480 63D22405 		bge	s1,s2,.L27
 128:test/ConsumerProducer_C_API_test.cpp ****         data[i].buffer = buffer;
 618              		.loc 1 128 9
 128:test/ConsumerProducer_C_API_test.cpp ****         data[i].buffer = buffer;
 619              		.loc 1 128 20 is_stmt 0
 620 0484 93971400 		slli	a5,s1,1
 621 0488 B3879700 		add	a5,a5,s1
 622 048c 93973700 		slli	a5,a5,3
GAS LISTING /tmp/cceTTVsd.s 			page 18


 623 0490 B387F900 		add	a5,s3,a5
 624 0494 23A09700 		sw	s1,0(a5)
 129:test/ConsumerProducer_C_API_test.cpp ****         data[i].wait = waitForAll;
 625              		.loc 1 129 9 is_stmt 1
 129:test/ConsumerProducer_C_API_test.cpp ****         data[i].wait = waitForAll;
 626              		.loc 1 129 24 is_stmt 0
 627 0498 23B44701 		sd	s4,8(a5)
 130:test/ConsumerProducer_C_API_test.cpp **** 
 628              		.loc 1 130 9 is_stmt 1
 130:test/ConsumerProducer_C_API_test.cpp **** 
 629              		.loc 1 130 22 is_stmt 0
 630 049c 17070000 		ld	a4,.LANCHOR0+8
 630      03370700 
 631 04a4 23B8E700 		sd	a4,16(a5)
 132:test/ConsumerProducer_C_API_test.cpp ****                       i > 0 ? producer : producerKeyboard,
 632              		.loc 1 132 9 is_stmt 1
 132:test/ConsumerProducer_C_API_test.cpp ****                       i > 0 ? producer : producerKeyboard,
 633              		.loc 1 132 33 is_stmt 0
 634 04a8 93870400 		mv	a5,s1
 132:test/ConsumerProducer_C_API_test.cpp ****                       i > 0 ? producer : producerKeyboard,
 635              		.loc 1 132 31
 636 04ac 13953400 		slli	a0,s1,3
 132:test/ConsumerProducer_C_API_test.cpp ****                       i > 0 ? producer : producerKeyboard,
 637              		.loc 1 132 22
 638 04b0 3385AA00 		add	a0,s5,a0
 639 04b4 E35490FA 		blez	s1,.L35
 640 04b8 97050000 		lla	a1,_ZL8producerPv
 640      93850500 
 641 04c0 6FF05FFA 		j	.L28
 642              	.L27:
 643              	.LBE5:
 137:test/ConsumerProducer_C_API_test.cpp **** 
 644              		.loc 1 137 5 is_stmt 1
 137:test/ConsumerProducer_C_API_test.cpp **** 
 645              		.loc 1 137 20 is_stmt 0
 646 04c4 97000000 		call	_Z15thread_dispatchv@plt
 646      E7800000 
 647              	.LVL77:
 648              	.LBB6:
 139:test/ConsumerProducer_C_API_test.cpp ****         sem_wait(waitForAll);
 649              		.loc 1 139 14
 650 04cc 93040000 		li	s1,0
 651              	.LVL78:
 652              	.L31:
 139:test/ConsumerProducer_C_API_test.cpp ****         sem_wait(waitForAll);
 653              		.loc 1 139 23 is_stmt 1 discriminator 1
 654 04d0 634E9900 		bgt	s1,s2,.L30
 140:test/ConsumerProducer_C_API_test.cpp ****     }
 655              		.loc 1 140 9
 140:test/ConsumerProducer_C_API_test.cpp ****     }
 656              		.loc 1 140 17 is_stmt 0
 657 04d4 17050000 		ld	a0,.LANCHOR0+8
 657      03350500 
 658 04dc 97000000 		call	_Z8sem_waitP3sem@plt
 658      E7800000 
 659              	.LVL79:
 139:test/ConsumerProducer_C_API_test.cpp ****         sem_wait(waitForAll);
GAS LISTING /tmp/cceTTVsd.s 			page 19


 660              		.loc 1 139 5 is_stmt 1
 661 04e4 9B841400 		addiw	s1,s1,1
 662              	.LVL80:
 663 04e8 6FF09FFE 		j	.L31
 664              	.LVL81:
 665              	.L30:
 666              	.LBE6:
 143:test/ConsumerProducer_C_API_test.cpp **** 
 667              		.loc 1 143 5
 143:test/ConsumerProducer_C_API_test.cpp **** 
 668              		.loc 1 143 14 is_stmt 0
 669 04ec 17050000 		ld	a0,.LANCHOR0+8
 669      03350500 
 670 04f4 97000000 		call	_Z9sem_closeP3sem@plt
 670      E7800000 
 671              	.LVL82:
 672              		.loc 1 145 5 is_stmt 1
 673              		.loc 1 145 18 is_stmt 0
 674 04fc 630E0A00 		beqz	s4,.L32
 675              		.loc 1 145 12 discriminator 1
 676 0500 13050A00 		mv	a0,s4
 677 0504 97000000 		call	_ZN6BufferD1Ev@plt
 677      E7800000 
 678              	.LVL83:
 679 050c 13050A00 		mv	a0,s4
 680 0510 97000000 		call	_ZdlPv@plt
 680      E7800000 
 681              	.LVL84:
 682              	.L32:
 683 0518 13010B00 		mv	sp,s6
 684              	.LVL85:
 685              	.L23:
 146:test/ConsumerProducer_C_API_test.cpp **** 
 147:test/ConsumerProducer_C_API_test.cpp **** }
 686              		.loc 1 147 1
 687 051c 130104F9 		addi	sp,s0,-112
 688              		.cfi_remember_state
 689              		.cfi_def_cfa 2, 112
 690 0520 83308106 		ld	ra,104(sp)
 691              		.cfi_restore 1
 692 0524 03340106 		ld	s0,96(sp)
 693              		.cfi_restore 8
 694 0528 83348105 		ld	s1,88(sp)
 695              		.cfi_restore 9
 696 052c 03390105 		ld	s2,80(sp)
 697              		.cfi_restore 18
 698              	.LVL86:
 699 0530 83398104 		ld	s3,72(sp)
 700              		.cfi_restore 19
 701 0534 033A0104 		ld	s4,64(sp)
 702              		.cfi_restore 20
 703 0538 833A8103 		ld	s5,56(sp)
 704              		.cfi_restore 21
 705 053c 033B0103 		ld	s6,48(sp)
 706              		.cfi_restore 22
 707 0540 13010107 		addi	sp,sp,112
 708              		.cfi_def_cfa_offset 0
GAS LISTING /tmp/cceTTVsd.s 			page 20


 709 0544 67800000 		jr	ra
 710              	.LVL87:
 711              	.L36:
 712              		.cfi_restore_state
 713 0548 93040500 		mv	s1,a0
 714              	.LVL88:
 113:test/ConsumerProducer_C_API_test.cpp **** 
 715              		.loc 1 113 34
 716 054c 13050A00 		mv	a0,s4
 717 0550 97000000 		call	_ZdlPv@plt
 717      E7800000 
 718              	.LVL89:
 719 0558 13850400 		mv	a0,s1
 720 055c 97000000 		call	_Unwind_Resume@plt
 720      E7800000 
 721              	.LVL90:
 722              	.LEHE2:
 723              		.cfi_endproc
 724              	.LFE47:
 725              		.globl	__gxx_personality_v0
 726              		.section	.gcc_except_table,"a",@progbits
 727              	.LLSDA47:
 728 0000 FF       		.byte	0xff
 729 0001 FF       		.byte	0xff
 730 0002 03       		.byte	0x3
 731 0003 27       		.byte	0x27
 732 0004 00000000 		.4byte	.LEHB0-.LFB47
 733 0008 00000000 		.4byte	.LEHE0-.LEHB0
 734 000c 00000000 		.4byte	0
 735 0010 00       		.byte	0
 736 0011 00000000 		.4byte	.LEHB1-.LFB47
 737 0015 00000000 		.4byte	.LEHE1-.LEHB1
 738 0019 00000000 		.4byte	.L36-.LFB47
 739 001d 00       		.byte	0
 740 001e 00000000 		.4byte	.LEHB2-.LFB47
 741 0022 00000000 		.4byte	.LEHE2-.LEHB2
 742 0026 00000000 		.4byte	0
 743 002a 00       		.byte	0
 744              		.text
 746              		.bss
 747              		.align	3
 748              		.set	.LANCHOR0,. + 0
 751              	_ZL9threadEnd:
 752 0000 00000000 		.zero	4
 753 0004 00000000 		.zero	4
 756              	_ZL10waitForAll:
 757 0008 00000000 		.zero	8
 757      00000000 
 758              		.text
 759              	.Letext0:
 760              		.file 2 "test/../h/../lib/hw.h"
 761              		.file 3 "test/../h/tcb.hpp"
 762              		.file 4 "test/../h/list.hpp"
 763              		.file 5 "test/../h/sem.hpp"
 764              		.file 6 "test/../h/syscall_c.hpp"
 765              		.file 7 "test/buffer.hpp"
 766              		.file 8 "test/printing.hpp"
GAS LISTING /tmp/cceTTVsd.s 			page 21


 4524              		.align	3
 4527              	DW.ref.__gxx_personality_v0:
 4528 0000 00000000 		.dword	__gxx_personality_v0
 4528      00000000 
 4529              		.ident	"GCC: (Ubuntu 9.4.0-1ubuntu1~20.04) 9.4.0"
 4530              		.section	.note.GNU-stack,"",@progbits
GAS LISTING /tmp/cceTTVsd.s 			page 22


DEFINED SYMBOLS
                            *ABS*:0000000000000000 ConsumerProducer_C_API_test.cpp
     /tmp/cceTTVsd.s:16     .text:0000000000000000 _ZL16producerKeyboardPv
     /tmp/cceTTVsd.s:20     .text:0000000000000000 .L0 
     /tmp/cceTTVsd.s:22     .text:0000000000000000 .L0 
     /tmp/cceTTVsd.s:23     .text:0000000000000004 .L0 
     /tmp/cceTTVsd.s:29     .text:0000000000000018 .L0 
     /tmp/cceTTVsd.s:30     .text:0000000000000018 .L0 
     /tmp/cceTTVsd.s:31     .text:0000000000000018 .L0 
     /tmp/cceTTVsd.s:32     .text:0000000000000018 .L0 
     /tmp/cceTTVsd.s:33     .text:0000000000000018 .L0 
     /tmp/cceTTVsd.s:35     .text:000000000000001c .L0 
     /tmp/cceTTVsd.s:39     .text:0000000000000020 .L0 
     /tmp/cceTTVsd.s:40     .text:0000000000000020 .L0 
     /tmp/cceTTVsd.s:41     .text:0000000000000020 .L0 
     /tmp/cceTTVsd.s:42     .text:0000000000000020 .L0 
     /tmp/cceTTVsd.s:47     .text:0000000000000028 .L0 
     /tmp/cceTTVsd.s:48     .text:0000000000000028 .L0 
     /tmp/cceTTVsd.s:52     .text:0000000000000030 .L0 
     /tmp/cceTTVsd.s:53     .text:0000000000000030 .L0 
     /tmp/cceTTVsd.s:54     .text:0000000000000030 .L0 
     /tmp/cceTTVsd.s:57     .text:0000000000000038 .L0 
     /tmp/cceTTVsd.s:60     .text:000000000000003c .L0 
     /tmp/cceTTVsd.s:63     .text:0000000000000044 .L0 
     /tmp/cceTTVsd.s:64     .text:0000000000000044 .L0 
     /tmp/cceTTVsd.s:68     .text:0000000000000050 .L0 
     /tmp/cceTTVsd.s:69     .text:0000000000000050 .L0 
     /tmp/cceTTVsd.s:73     .text:0000000000000058 .L0 
     /tmp/cceTTVsd.s:74     .text:0000000000000058 .L0 
     /tmp/cceTTVsd.s:78     .text:0000000000000068 .L0 
     /tmp/cceTTVsd.s:79     .text:0000000000000068 .L0 
     /tmp/cceTTVsd.s:85     .text:000000000000007c .L0 
     /tmp/cceTTVsd.s:86     .text:000000000000007c .L0 
     /tmp/cceTTVsd.s:90     .text:000000000000008c .L0 
     /tmp/cceTTVsd.s:91     .text:000000000000008c .L0 
     /tmp/cceTTVsd.s:93     .text:0000000000000090 .L0 
     /tmp/cceTTVsd.s:97     .text:000000000000009c .L0 
     /tmp/cceTTVsd.s:99     .text:00000000000000a0 .L0 
     /tmp/cceTTVsd.s:104    .text:00000000000000a8 .L0 
     /tmp/cceTTVsd.s:105    .text:00000000000000a8 .L0 
     /tmp/cceTTVsd.s:108    .text:00000000000000b4 .L0 
     /tmp/cceTTVsd.s:109    .text:00000000000000b4 .L0 
     /tmp/cceTTVsd.s:116    .text:00000000000000c4 .L0 
     /tmp/cceTTVsd.s:117    .text:00000000000000c4 .L0 
     /tmp/cceTTVsd.s:121    .text:00000000000000d0 .L0 
     /tmp/cceTTVsd.s:122    .text:00000000000000d4 .L0 
     /tmp/cceTTVsd.s:124    .text:00000000000000d8 .L0 
     /tmp/cceTTVsd.s:125    .text:00000000000000d8 .L0 
     /tmp/cceTTVsd.s:127    .text:00000000000000dc .L0 
     /tmp/cceTTVsd.s:129    .text:00000000000000e0 .L0 
     /tmp/cceTTVsd.s:132    .text:00000000000000e4 .L0 
     /tmp/cceTTVsd.s:135    .text:00000000000000e8 .L0 
     /tmp/cceTTVsd.s:137    .text:00000000000000ec .L0 
     /tmp/cceTTVsd.s:142    .text:00000000000000ec _ZL8producerPv
     /tmp/cceTTVsd.s:145    .text:00000000000000ec .L0 
     /tmp/cceTTVsd.s:147    .text:00000000000000ec .L0 
     /tmp/cceTTVsd.s:148    .text:00000000000000f0 .L0 
GAS LISTING /tmp/cceTTVsd.s 			page 23


     /tmp/cceTTVsd.s:153    .text:0000000000000100 .L0 
     /tmp/cceTTVsd.s:154    .text:0000000000000100 .L0 
     /tmp/cceTTVsd.s:155    .text:0000000000000100 .L0 
     /tmp/cceTTVsd.s:156    .text:0000000000000100 .L0 
     /tmp/cceTTVsd.s:158    .text:0000000000000104 .L0 
     /tmp/cceTTVsd.s:162    .text:0000000000000108 .L0 
     /tmp/cceTTVsd.s:163    .text:0000000000000108 .L0 
     /tmp/cceTTVsd.s:164    .text:0000000000000108 .L0 
     /tmp/cceTTVsd.s:169    .text:0000000000000110 .L0 
     /tmp/cceTTVsd.s:170    .text:0000000000000110 .L0 
     /tmp/cceTTVsd.s:174    .text:0000000000000118 .L0 
     /tmp/cceTTVsd.s:175    .text:0000000000000118 .L0 
     /tmp/cceTTVsd.s:178    .text:0000000000000124 .L0 
     /tmp/cceTTVsd.s:179    .text:0000000000000124 .L0 
     /tmp/cceTTVsd.s:181    .text:0000000000000128 .L0 
     /tmp/cceTTVsd.s:186    .text:0000000000000138 .L0 
     /tmp/cceTTVsd.s:187    .text:0000000000000138 .L0 
     /tmp/cceTTVsd.s:191    .text:0000000000000140 .L0 
     /tmp/cceTTVsd.s:192    .text:0000000000000140 .L0 
     /tmp/cceTTVsd.s:194    .text:0000000000000144 .L0 
     /tmp/cceTTVsd.s:198    .text:0000000000000150 .L0 
     /tmp/cceTTVsd.s:200    .text:0000000000000154 .L0 
     /tmp/cceTTVsd.s:205    .text:000000000000015c .L0 
     /tmp/cceTTVsd.s:206    .text:000000000000015c .L0 
     /tmp/cceTTVsd.s:210    .text:0000000000000168 .L0 
     /tmp/cceTTVsd.s:211    .text:000000000000016c .L0 
     /tmp/cceTTVsd.s:213    .text:0000000000000170 .L0 
     /tmp/cceTTVsd.s:214    .text:0000000000000170 .L0 
     /tmp/cceTTVsd.s:216    .text:0000000000000174 .L0 
     /tmp/cceTTVsd.s:219    .text:0000000000000178 .L0 
     /tmp/cceTTVsd.s:222    .text:000000000000017c .L0 
     /tmp/cceTTVsd.s:224    .text:0000000000000180 .L0 
     /tmp/cceTTVsd.s:234    .text:0000000000000180 _ZL8consumerPv
     /tmp/cceTTVsd.s:237    .text:0000000000000180 .L0 
     /tmp/cceTTVsd.s:239    .text:0000000000000180 .L0 
     /tmp/cceTTVsd.s:240    .text:0000000000000184 .L0 
     /tmp/cceTTVsd.s:246    .text:0000000000000198 .L0 
     /tmp/cceTTVsd.s:247    .text:0000000000000198 .L0 
     /tmp/cceTTVsd.s:248    .text:0000000000000198 .L0 
     /tmp/cceTTVsd.s:249    .text:0000000000000198 .L0 
     /tmp/cceTTVsd.s:250    .text:0000000000000198 .L0 
     /tmp/cceTTVsd.s:252    .text:000000000000019c .L0 
     /tmp/cceTTVsd.s:256    .text:00000000000001a0 .L0 
     /tmp/cceTTVsd.s:257    .text:00000000000001a0 .L0 
     /tmp/cceTTVsd.s:258    .text:00000000000001a0 .L0 
     /tmp/cceTTVsd.s:264    .text:00000000000001a8 .L0 
     /tmp/cceTTVsd.s:265    .text:00000000000001a8 .L0 
     /tmp/cceTTVsd.s:271    .text:00000000000001b4 .L0 
     /tmp/cceTTVsd.s:272    .text:00000000000001b4 .L0 
     /tmp/cceTTVsd.s:278    .text:00000000000001c0 .L0 
     /tmp/cceTTVsd.s:279    .text:00000000000001c0 .L0 
     /tmp/cceTTVsd.s:283    .text:00000000000001cc .L0 
     /tmp/cceTTVsd.s:284    .text:00000000000001cc .L0 
     /tmp/cceTTVsd.s:288    .text:00000000000001d8 .L0 
     /tmp/cceTTVsd.s:289    .text:00000000000001d8 .L0 
     /tmp/cceTTVsd.s:293    .text:00000000000001e0 .L0 
     /tmp/cceTTVsd.s:294    .text:00000000000001e0 .L0 
GAS LISTING /tmp/cceTTVsd.s 			page 24


     /tmp/cceTTVsd.s:299    .text:00000000000001ec .L0 
     /tmp/cceTTVsd.s:300    .text:00000000000001ec .L0 
     /tmp/cceTTVsd.s:304    .text:00000000000001fc .L0 
     /tmp/cceTTVsd.s:305    .text:00000000000001fc .L0 
     /tmp/cceTTVsd.s:311    .text:0000000000000210 .L0 
     /tmp/cceTTVsd.s:312    .text:0000000000000210 .L0 
     /tmp/cceTTVsd.s:316    .text:0000000000000220 .L0 
     /tmp/cceTTVsd.s:317    .text:0000000000000220 .L0 
     /tmp/cceTTVsd.s:319    .text:0000000000000224 .L0 
     /tmp/cceTTVsd.s:322    .text:000000000000022c .L0 
     /tmp/cceTTVsd.s:324    .text:0000000000000230 .L0 
     /tmp/cceTTVsd.s:327    .text:0000000000000234 .L0 
     /tmp/cceTTVsd.s:328    .text:0000000000000234 .L0 
     /tmp/cceTTVsd.s:332    .text:000000000000023c .L0 
     /tmp/cceTTVsd.s:338    .text:0000000000000244 .L0 
     /tmp/cceTTVsd.s:339    .text:0000000000000244 .L0 
     /tmp/cceTTVsd.s:343    .text:0000000000000250 .L0 
     /tmp/cceTTVsd.s:344    .text:0000000000000250 .L0 
     /tmp/cceTTVsd.s:351    .text:000000000000025c .L0 
     /tmp/cceTTVsd.s:352    .text:000000000000025c .L0 
     /tmp/cceTTVsd.s:353    .text:000000000000025c .L0 
     /tmp/cceTTVsd.s:357    .text:0000000000000268 .L0 
     /tmp/cceTTVsd.s:359    .text:000000000000026c .L0 
     /tmp/cceTTVsd.s:360    .text:000000000000026c .L0 
     /tmp/cceTTVsd.s:364    .text:0000000000000278 .L0 
     /tmp/cceTTVsd.s:365    .text:000000000000027c .L0 
     /tmp/cceTTVsd.s:367    .text:0000000000000280 .L0 
     /tmp/cceTTVsd.s:368    .text:0000000000000280 .L0 
     /tmp/cceTTVsd.s:370    .text:0000000000000284 .L0 
     /tmp/cceTTVsd.s:372    .text:0000000000000288 .L0 
     /tmp/cceTTVsd.s:375    .text:000000000000028c .L0 
     /tmp/cceTTVsd.s:378    .text:0000000000000290 .L0 
     /tmp/cceTTVsd.s:380    .text:0000000000000294 .L0 
     /tmp/cceTTVsd.s:409    .text:0000000000000294 _Z22producerConsumer_C_APIv
     /tmp/cceTTVsd.s:412    .text:0000000000000294 .L0 
     /tmp/cceTTVsd.s:4527   .data.rel.local.DW.ref.__gxx_personality_v0:0000000000000000 DW.ref.__gxx_personality_v0
     /tmp/cceTTVsd.s:415    .text:0000000000000294 .L0 
     /tmp/cceTTVsd.s:416    .text:0000000000000298 .L0 
     /tmp/cceTTVsd.s:425    .text:00000000000002b8 .L0 
     /tmp/cceTTVsd.s:426    .text:00000000000002b8 .L0 
     /tmp/cceTTVsd.s:427    .text:00000000000002b8 .L0 
     /tmp/cceTTVsd.s:428    .text:00000000000002b8 .L0 
     /tmp/cceTTVsd.s:429    .text:00000000000002b8 .L0 
     /tmp/cceTTVsd.s:430    .text:00000000000002b8 .L0 
     /tmp/cceTTVsd.s:431    .text:00000000000002b8 .L0 
     /tmp/cceTTVsd.s:432    .text:00000000000002b8 .L0 
     /tmp/cceTTVsd.s:434    .text:00000000000002bc .L0 
     /tmp/cceTTVsd.s:436    .text:00000000000002bc .L0 
     /tmp/cceTTVsd.s:438    .text:00000000000002c0 .L0 
     /tmp/cceTTVsd.s:439    .text:00000000000002c0 .L0 
     /tmp/cceTTVsd.s:440    .text:00000000000002c0 .L0 
     /tmp/cceTTVsd.s:441    .text:00000000000002c0 .L0 
     /tmp/cceTTVsd.s:446    .text:00000000000002d0 .L0 
     /tmp/cceTTVsd.s:447    .text:00000000000002d0 .L0 
     /tmp/cceTTVsd.s:453    .text:00000000000002e4 .L0 
     /tmp/cceTTVsd.s:454    .text:00000000000002e4 .L0 
     /tmp/cceTTVsd.s:460    .text:00000000000002f4 .L0 
GAS LISTING /tmp/cceTTVsd.s 			page 25


     /tmp/cceTTVsd.s:461    .text:00000000000002f4 .L0 
     /tmp/cceTTVsd.s:465    .text:0000000000000304 .L0 
     /tmp/cceTTVsd.s:466    .text:0000000000000304 .L0 
     /tmp/cceTTVsd.s:471    .text:0000000000000314 .L0 
     /tmp/cceTTVsd.s:472    .text:0000000000000314 .L0 
     /tmp/cceTTVsd.s:478    .text:0000000000000324 .L0 
     /tmp/cceTTVsd.s:479    .text:0000000000000324 .L0 
     /tmp/cceTTVsd.s:483    .text:0000000000000334 .L0 
     /tmp/cceTTVsd.s:484    .text:0000000000000334 .L0 
     /tmp/cceTTVsd.s:490    .text:0000000000000348 .L0 
     /tmp/cceTTVsd.s:491    .text:0000000000000348 .L0 
     /tmp/cceTTVsd.s:495    .text:0000000000000358 .L0 
     /tmp/cceTTVsd.s:496    .text:0000000000000358 .L0 
     /tmp/cceTTVsd.s:502    .text:000000000000036c .L0 
     /tmp/cceTTVsd.s:503    .text:000000000000036c .L0 
     /tmp/cceTTVsd.s:507    .text:000000000000037c .L0 
     /tmp/cceTTVsd.s:509    .text:0000000000000380 .L0 
     /tmp/cceTTVsd.s:511    .text:0000000000000384 .L0 
     /tmp/cceTTVsd.s:512    .text:0000000000000384 .L0 
     /tmp/cceTTVsd.s:525    .text:00000000000003a4 .L0 
     /tmp/cceTTVsd.s:526    .text:00000000000003a4 .L0 
     /tmp/cceTTVsd.s:531    .text:00000000000003b4 .L0 
     /tmp/cceTTVsd.s:534    .text:00000000000003b8 .L0 
     /tmp/cceTTVsd.s:535    .text:00000000000003b8 .L0 
     /tmp/cceTTVsd.s:540    .text:00000000000003c8 .L0 
     /tmp/cceTTVsd.s:545    .text:00000000000003d0 .L0 
     /tmp/cceTTVsd.s:546    .text:00000000000003d0 .L0 
     /tmp/cceTTVsd.s:551    .text:00000000000003e4 .L0 
     /tmp/cceTTVsd.s:552    .text:00000000000003e4 .L0 
     /tmp/cceTTVsd.s:559    .text:00000000000003f8 .L0 
     /tmp/cceTTVsd.s:560    .text:00000000000003f8 .L0 
     /tmp/cceTTVsd.s:561    .text:00000000000003f8 .L0 
     /tmp/cceTTVsd.s:564    .text:00000000000003fc .L0 
     /tmp/cceTTVsd.s:574    .text:0000000000000418 .L0 
     /tmp/cceTTVsd.s:575    .text:0000000000000418 .L0 
     /tmp/cceTTVsd.s:581    .text:000000000000042c .L0 
     /tmp/cceTTVsd.s:582    .text:000000000000042c .L0 
     /tmp/cceTTVsd.s:584    .text:0000000000000430 .L0 
     /tmp/cceTTVsd.s:585    .text:0000000000000430 .L0 
     /tmp/cceTTVsd.s:588    .text:000000000000043c .L0 
     /tmp/cceTTVsd.s:589    .text:000000000000043c .L0 
     /tmp/cceTTVsd.s:596    .text:0000000000000454 .L0 
     /tmp/cceTTVsd.s:602    .text:000000000000045c .L0 
     /tmp/cceTTVsd.s:605    .text:0000000000000464 .L0 
     /tmp/cceTTVsd.s:609    .text:0000000000000470 .L0 
     /tmp/cceTTVsd.s:613    .text:000000000000047c .L0 
     /tmp/cceTTVsd.s:617    .text:0000000000000480 .L0 
     /tmp/cceTTVsd.s:619    .text:0000000000000484 .L0 
     /tmp/cceTTVsd.s:620    .text:0000000000000484 .L0 
     /tmp/cceTTVsd.s:626    .text:0000000000000498 .L0 
     /tmp/cceTTVsd.s:627    .text:0000000000000498 .L0 
     /tmp/cceTTVsd.s:629    .text:000000000000049c .L0 
     /tmp/cceTTVsd.s:630    .text:000000000000049c .L0 
     /tmp/cceTTVsd.s:633    .text:00000000000004a8 .L0 
     /tmp/cceTTVsd.s:634    .text:00000000000004a8 .L0 
     /tmp/cceTTVsd.s:636    .text:00000000000004ac .L0 
     /tmp/cceTTVsd.s:638    .text:00000000000004b0 .L0 
GAS LISTING /tmp/cceTTVsd.s 			page 26


     /tmp/cceTTVsd.s:645    .text:00000000000004c4 .L0 
     /tmp/cceTTVsd.s:646    .text:00000000000004c4 .L0 
     /tmp/cceTTVsd.s:650    .text:00000000000004cc .L0 
     /tmp/cceTTVsd.s:654    .text:00000000000004d0 .L0 
     /tmp/cceTTVsd.s:656    .text:00000000000004d4 .L0 
     /tmp/cceTTVsd.s:657    .text:00000000000004d4 .L0 
     /tmp/cceTTVsd.s:661    .text:00000000000004e4 .L0 
     /tmp/cceTTVsd.s:668    .text:00000000000004ec .L0 
     /tmp/cceTTVsd.s:669    .text:00000000000004ec .L0 
     /tmp/cceTTVsd.s:673    .text:00000000000004fc .L0 
     /tmp/cceTTVsd.s:674    .text:00000000000004fc .L0 
     /tmp/cceTTVsd.s:676    .text:0000000000000500 .L0 
     /tmp/cceTTVsd.s:687    .text:000000000000051c .L0 
     /tmp/cceTTVsd.s:688    .text:0000000000000520 .L0 
     /tmp/cceTTVsd.s:689    .text:0000000000000520 .L0 
     /tmp/cceTTVsd.s:691    .text:0000000000000524 .L0 
     /tmp/cceTTVsd.s:693    .text:0000000000000528 .L0 
     /tmp/cceTTVsd.s:695    .text:000000000000052c .L0 
     /tmp/cceTTVsd.s:697    .text:0000000000000530 .L0 
     /tmp/cceTTVsd.s:700    .text:0000000000000534 .L0 
     /tmp/cceTTVsd.s:702    .text:0000000000000538 .L0 
     /tmp/cceTTVsd.s:704    .text:000000000000053c .L0 
     /tmp/cceTTVsd.s:706    .text:0000000000000540 .L0 
     /tmp/cceTTVsd.s:708    .text:0000000000000544 .L0 
     /tmp/cceTTVsd.s:712    .text:0000000000000548 .L0 
     /tmp/cceTTVsd.s:716    .text:000000000000054c .L0 
     /tmp/cceTTVsd.s:723    .text:0000000000000564 .L0 
     /tmp/cceTTVsd.s:748    .bss:0000000000000000 .LANCHOR0
     /tmp/cceTTVsd.s:751    .bss:0000000000000000 _ZL9threadEnd
     /tmp/cceTTVsd.s:756    .bss:0000000000000008 _ZL10waitForAll
     /tmp/cceTTVsd.s:767    .text:0000000000000564 .L0 
     /tmp/cceTTVsd.s:8      .rodata.str1.8:0000000000000000 .LC0
     /tmp/cceTTVsd.s:74     .text:0000000000000058 .L0 
     /tmp/cceTTVsd.s:11     .rodata.str1.8:0000000000000010 .LC1
     /tmp/cceTTVsd.s:86     .text:000000000000007c .L0 
     /tmp/cceTTVsd.s:106    .text:00000000000000ac .L0 
     /tmp/cceTTVsd.s:175    .text:0000000000000118 .L0 
     /tmp/cceTTVsd.s:279    .text:00000000000001c0 .L0 
     /tmp/cceTTVsd.s:229    .rodata.str1.8:0000000000000018 .LC2
     /tmp/cceTTVsd.s:300    .text:00000000000001ec .L0 
     /tmp/cceTTVsd.s:312    .text:0000000000000210 .L0 
     /tmp/cceTTVsd.s:385    .rodata.str1.8:0000000000000028 .LC3
     /tmp/cceTTVsd.s:441    .text:00000000000002c0 .L0 
     /tmp/cceTTVsd.s:388    .rodata.str1.8:0000000000000048 .LC4
     /tmp/cceTTVsd.s:461    .text:00000000000002f4 .L0 
     /tmp/cceTTVsd.s:391    .rodata.str1.8:0000000000000068 .LC5
     /tmp/cceTTVsd.s:479    .text:0000000000000324 .L0 
     /tmp/cceTTVsd.s:394    .rodata.str1.8:0000000000000080 .LC6
     /tmp/cceTTVsd.s:491    .text:0000000000000348 .L0 
     /tmp/cceTTVsd.s:397    .rodata.str1.8:0000000000000098 .LC7
     /tmp/cceTTVsd.s:503    .text:000000000000036c .L0 
     /tmp/cceTTVsd.s:400    .rodata.str1.8:00000000000000a0 .LC8
     /tmp/cceTTVsd.s:526    .text:00000000000003a4 .L0 
     /tmp/cceTTVsd.s:403    .rodata.str1.8:00000000000000e0 .LC9
     /tmp/cceTTVsd.s:535    .text:00000000000003b8 .L0 
     /tmp/cceTTVsd.s:547    .text:00000000000003d4 .L0 
     /tmp/cceTTVsd.s:585    .text:0000000000000430 .L0 
GAS LISTING /tmp/cceTTVsd.s 			page 27


     /tmp/cceTTVsd.s:590    .text:0000000000000440 .L0 
     /tmp/cceTTVsd.s:602    .text:000000000000045c .L0 
     /tmp/cceTTVsd.s:630    .text:000000000000049c .L0 
     /tmp/cceTTVsd.s:640    .text:00000000000004b8 .L0 
     /tmp/cceTTVsd.s:657    .text:00000000000004d4 .L0 
     /tmp/cceTTVsd.s:669    .text:00000000000004ec .L0 
     /tmp/cceTTVsd.s:50     .text:0000000000000030 .L2
     /tmp/cceTTVsd.s:102    .text:00000000000000a8 .L3
     /tmp/cceTTVsd.s:45     .text:0000000000000028 .L6
     /tmp/cceTTVsd.s:172    .text:0000000000000118 .L8
     /tmp/cceTTVsd.s:203    .text:000000000000015c .L9
     /tmp/cceTTVsd.s:167    .text:0000000000000110 .L12
     /tmp/cceTTVsd.s:275    .text:00000000000001c0 .L14
     /tmp/cceTTVsd.s:325    .text:0000000000000234 .L16
     /tmp/cceTTVsd.s:348    .text:000000000000025c .L15
     /tmp/cceTTVsd.s:261    .text:00000000000001a8 .L20
     /tmp/cceTTVsd.s:269    .text:00000000000001b4 .L21
     /tmp/cceTTVsd.s:334    .text:0000000000000244 .L22
     /tmp/cceTTVsd.s:523    .text:00000000000003a4 .L38
     /tmp/cceTTVsd.s:532    .text:00000000000003b8 .L39
     /tmp/cceTTVsd.s:542    .text:00000000000003d0 .L40
     /tmp/cceTTVsd.s:539    .text:00000000000003c8 .L25
     /tmp/cceTTVsd.s:685    .text:000000000000051c .L23
     /tmp/cceTTVsd.s:615    .text:0000000000000480 .L29
     /tmp/cceTTVsd.s:642    .text:00000000000004c4 .L27
     /tmp/cceTTVsd.s:600    .text:000000000000045c .L35
     /tmp/cceTTVsd.s:603    .text:0000000000000464 .L28
     /tmp/cceTTVsd.s:665    .text:00000000000004ec .L30
     /tmp/cceTTVsd.s:652    .text:00000000000004d0 .L31
     /tmp/cceTTVsd.s:682    .text:0000000000000518 .L32
     /tmp/cceTTVsd.s:442    .text:00000000000002c8 .LEHB0
     /tmp/cceTTVsd.s:410    .text:0000000000000294 .LFB47
     /tmp/cceTTVsd.s:515    .text:0000000000000390 .LEHE0
     /tmp/cceTTVsd.s:518    .text:0000000000000398 .LEHB1
     /tmp/cceTTVsd.s:521    .text:00000000000003a0 .LEHE1
     /tmp/cceTTVsd.s:711    .text:0000000000000548 .L36
     /tmp/cceTTVsd.s:527    .text:00000000000003ac .LEHB2
     /tmp/cceTTVsd.s:722    .text:0000000000000564 .LEHE2
     /tmp/cceTTVsd.s:2838   .debug_abbrev:0000000000000000 .Ldebug_abbrev0
     /tmp/cceTTVsd.s:4437   .debug_str:000000000000090a .LASF182
     /tmp/cceTTVsd.s:4177   .debug_str:000000000000017c .LASF183
     /tmp/cceTTVsd.s:4393   .debug_str:00000000000007a6 .LASF184
     /tmp/cceTTVsd.s:5      .text:0000000000000000 .Ltext0
     /tmp/cceTTVsd.s:759    .text:0000000000000564 .Letext0
     /tmp/cceTTVsd.s:4129   .debug_line:0000000000000000 .Ldebug_line0
     /tmp/cceTTVsd.s:4249   .debug_str:00000000000003cd .LASF0
     /tmp/cceTTVsd.s:4273   .debug_str:000000000000047f .LASF1
     /tmp/cceTTVsd.s:4371   .debug_str:0000000000000725 .LASF2
     /tmp/cceTTVsd.s:4385   .debug_str:0000000000000781 .LASF4
     /tmp/cceTTVsd.s:4259   .debug_str:00000000000003ff .LASF3
     /tmp/cceTTVsd.s:4145   .debug_str:0000000000000081 .LASF5
     /tmp/cceTTVsd.s:4337   .debug_str:0000000000000637 .LASF6
     /tmp/cceTTVsd.s:4265   .debug_str:0000000000000441 .LASF7
     /tmp/cceTTVsd.s:4231   .debug_str:0000000000000348 .LASF8
     /tmp/cceTTVsd.s:4239   .debug_str:0000000000000388 .LASF9
     /tmp/cceTTVsd.s:4213   .debug_str:00000000000002bb .LASF10
     /tmp/cceTTVsd.s:4221   .debug_str:0000000000000300 .LASF11
GAS LISTING /tmp/cceTTVsd.s 			page 28


     /tmp/cceTTVsd.s:4191   .debug_str:00000000000001fa .LASF12
     /tmp/cceTTVsd.s:4175   .debug_str:000000000000016c .LASF13
     /tmp/cceTTVsd.s:4413   .debug_str:0000000000000876 .LASF14
     /tmp/cceTTVsd.s:4205   .debug_str:0000000000000274 .LASF15
     /tmp/cceTTVsd.s:4401   .debug_str:000000000000080e .LASF16
     /tmp/cceTTVsd.s:4421   .debug_str:000000000000089a .LASF145
     /tmp/cceTTVsd.s:4387   .debug_str:0000000000000788 .LASF27
     /tmp/cceTTVsd.s:4143   .debug_str:0000000000000075 .LASF29
     /tmp/cceTTVsd.s:4489   .debug_str:0000000000000af9 .LASF80
     /tmp/cceTTVsd.s:4315   .debug_str:00000000000005a3 .LASF43
     /tmp/cceTTVsd.s:4409   .debug_str:000000000000084f .LASF45
     /tmp/cceTTVsd.s:4199   .debug_str:0000000000000239 .LASF17
     /tmp/cceTTVsd.s:4503   .debug_str:0000000000000b4f .LASF39
     /tmp/cceTTVsd.s:4343   .debug_str:000000000000065f .LASF41
     /tmp/cceTTVsd.s:4133   .debug_str:0000000000000010 .LASF18
     /tmp/cceTTVsd.s:4423   .debug_str:00000000000008a2 .LASF19
     /tmp/cceTTVsd.s:4309   .debug_str:000000000000057d .LASF21
     /tmp/cceTTVsd.s:4375   .debug_str:0000000000000740 .LASF20
     /tmp/cceTTVsd.s:4167   .debug_str:000000000000012a .LASF22
     /tmp/cceTTVsd.s:4233   .debug_str:0000000000000358 .LASF23
     /tmp/cceTTVsd.s:4427   .debug_str:00000000000008b8 .LASF24
     /tmp/cceTTVsd.s:4475   .debug_str:0000000000000aa5 .LASF25
     /tmp/cceTTVsd.s:4149   .debug_str:0000000000000094 .LASF26
     /tmp/cceTTVsd.s:4157   .debug_str:00000000000000e3 .LASF28
     /tmp/cceTTVsd.s:4453   .debug_str:0000000000000a19 .LASF30
     /tmp/cceTTVsd.s:4425   .debug_str:00000000000008ad .LASF31
     /tmp/cceTTVsd.s:4217   .debug_str:00000000000002d2 .LASF32
     /tmp/cceTTVsd.s:4349   .debug_str:000000000000069b .LASF33
     /tmp/cceTTVsd.s:4243   .debug_str:00000000000003a1 .LASF34
     /tmp/cceTTVsd.s:4317   .debug_str:00000000000005af .LASF35
     /tmp/cceTTVsd.s:4219   .debug_str:00000000000002e8 .LASF36
     /tmp/cceTTVsd.s:4493   .debug_str:0000000000000b0f .LASF37
     /tmp/cceTTVsd.s:4405   .debug_str:0000000000000837 .LASF38
     /tmp/cceTTVsd.s:4171   .debug_str:000000000000015c .LASF40
     /tmp/cceTTVsd.s:4275   .debug_str:0000000000000492 .LASF42
     /tmp/cceTTVsd.s:4379   .debug_str:0000000000000753 .LASF44
     /tmp/cceTTVsd.s:4201   .debug_str:0000000000000240 .LASF46
     /tmp/cceTTVsd.s:4367   .debug_str:0000000000000711 .LASF47
     /tmp/cceTTVsd.s:4461   .debug_str:0000000000000a57 .LASF48
     /tmp/cceTTVsd.s:4283   .debug_str:00000000000004d8 .LASF49
     /tmp/cceTTVsd.s:4279   .debug_str:00000000000004bc .LASF50
     /tmp/cceTTVsd.s:4411   .debug_str:0000000000000868 .LASF51
     /tmp/cceTTVsd.s:4507   .debug_str:0000000000000b68 .LASF52
     /tmp/cceTTVsd.s:4327   .debug_str:00000000000005f4 .LASF185
     /tmp/cceTTVsd.s:4165   .debug_str:0000000000000124 .LASF56
     /tmp/cceTTVsd.s:4441   .debug_str:00000000000009d3 .LASF58
     /tmp/cceTTVsd.s:4291   .debug_str:000000000000050e .LASF53
     /tmp/cceTTVsd.s:4299   .debug_str:0000000000000538 .LASF54
     /tmp/cceTTVsd.s:4435   .debug_str:0000000000000902 .LASF55
     /tmp/cceTTVsd.s:4357   .debug_str:00000000000006c7 .LASF57
     /tmp/cceTTVsd.s:4395   .debug_str:00000000000007d5 .LASF59
     /tmp/cceTTVsd.s:4513   .debug_str:0000000000000bac .LASF60
     /tmp/cceTTVsd.s:4235   .debug_str:0000000000000364 .LASF61
     /tmp/cceTTVsd.s:4163   .debug_str:0000000000000114 .LASF62
     /tmp/cceTTVsd.s:4227   .debug_str:0000000000000329 .LASF63
     /tmp/cceTTVsd.s:4137   .debug_str:0000000000000023 .LASF64
     /tmp/cceTTVsd.s:4285   .debug_str:00000000000004e2 .LASF65
GAS LISTING /tmp/cceTTVsd.s 			page 29


     /tmp/cceTTVsd.s:4399   .debug_str:00000000000007fb .LASF66
     /tmp/cceTTVsd.s:4373   .debug_str:0000000000000733 .LASF67
     /tmp/cceTTVsd.s:4179   .debug_str:00000000000001a1 .LASF140
     /tmp/cceTTVsd.s:4271   .debug_str:0000000000000471 .LASF68
     /tmp/cceTTVsd.s:4289   .debug_str:0000000000000502 .LASF69
     /tmp/cceTTVsd.s:4449   .debug_str:0000000000000a02 .LASF70
     /tmp/cceTTVsd.s:4419   .debug_str:0000000000000891 .LASF71
     /tmp/cceTTVsd.s:4321   .debug_str:00000000000005c1 .LASF72
     /tmp/cceTTVsd.s:4323   .debug_str:00000000000005c9 .LASF73
     /tmp/cceTTVsd.s:4183   .debug_str:00000000000001c4 .LASF74
     /tmp/cceTTVsd.s:4255   .debug_str:00000000000003ee .LASF75
     /tmp/cceTTVsd.s:4491   .debug_str:0000000000000b01 .LASF76
     /tmp/cceTTVsd.s:4161   .debug_str:0000000000000106 .LASF186
     /tmp/cceTTVsd.s:4277   .debug_str:00000000000004a3 .LASF187
     /tmp/cceTTVsd.s:4195   .debug_str:0000000000000221 .LASF188
     /tmp/cceTTVsd.s:4141   .debug_str:000000000000004d .LASF189
     /tmp/cceTTVsd.s:4443   .debug_str:00000000000009e3 .LASF77
     /tmp/cceTTVsd.s:4459   .debug_str:0000000000000a46 .LASF78
     /tmp/cceTTVsd.s:4381   .debug_str:0000000000000765 .LASF190
     /tmp/cceTTVsd.s:4481   .debug_str:0000000000000ac1 .LASF79
     /tmp/cceTTVsd.s:4465   .debug_str:0000000000000a71 .LASF191
     /tmp/cceTTVsd.s:4407   .debug_str:000000000000084a .LASF81
     /tmp/cceTTVsd.s:4311   .debug_str:0000000000000594 .LASF82
     /tmp/cceTTVsd.s:4303   .debug_str:0000000000000558 .LASF83
     /tmp/cceTTVsd.s:4403   .debug_str:0000000000000824 .LASF84
     /tmp/cceTTVsd.s:4203   .debug_str:000000000000025d .LASF85
     /tmp/cceTTVsd.s:4197   .debug_str:000000000000022f .LASF192
     /tmp/cceTTVsd.s:4363   .debug_str:00000000000006e5 .LASF193
     /tmp/cceTTVsd.s:4245   .debug_str:00000000000003b9 .LASF86
     /tmp/cceTTVsd.s:4431   .debug_str:00000000000008d5 .LASF87
     /tmp/cceTTVsd.s:4269   .debug_str:0000000000000468 .LASF88
     /tmp/cceTTVsd.s:4169   .debug_str:000000000000013f .LASF89
     /tmp/cceTTVsd.s:4281   .debug_str:00000000000004d0 .LASF90
     /tmp/cceTTVsd.s:4207   .debug_str:000000000000028a .LASF91
     /tmp/cceTTVsd.s:4335   .debug_str:000000000000062b .LASF92
     /tmp/cceTTVsd.s:4483   .debug_str:0000000000000acb .LASF93
     /tmp/cceTTVsd.s:4517   .debug_str:0000000000000bc2 .LASF94
     /tmp/cceTTVsd.s:4509   .debug_str:0000000000000b8c .LASF95
     /tmp/cceTTVsd.s:4397   .debug_str:00000000000007f0 .LASF96
     /tmp/cceTTVsd.s:4263   .debug_str:0000000000000424 .LASF97
     /tmp/cceTTVsd.s:4355   .debug_str:00000000000006be .LASF98
     /tmp/cceTTVsd.s:4139   .debug_str:0000000000000033 .LASF99
     /tmp/cceTTVsd.s:4215   .debug_str:00000000000002ca .LASF100
     /tmp/cceTTVsd.s:4365   .debug_str:00000000000006fc .LASF101
     /tmp/cceTTVsd.s:4319   .debug_str:00000000000005bc .LASF102
     /tmp/cceTTVsd.s:4445   .debug_str:00000000000009ea .LASF103
     /tmp/cceTTVsd.s:4153   .debug_str:00000000000000c1 .LASF104
     /tmp/cceTTVsd.s:4329   .debug_str:00000000000005f9 .LASF105
     /tmp/cceTTVsd.s:4511   .debug_str:0000000000000ba7 .LASF106
     /tmp/cceTTVsd.s:4261   .debug_str:0000000000000411 .LASF107
     /tmp/cceTTVsd.s:4417   .debug_str:000000000000088b .LASF108
     /tmp/cceTTVsd.s:4359   .debug_str:00000000000006d7 .LASF109
     /tmp/cceTTVsd.s:4361   .debug_str:00000000000006dc .LASF110
     /tmp/cceTTVsd.s:4347   .debug_str:0000000000000688 .LASF111
     /tmp/cceTTVsd.s:4351   .debug_str:00000000000006a8 .LASF112
     /tmp/cceTTVsd.s:4499   .debug_str:0000000000000b27 .LASF113
     /tmp/cceTTVsd.s:4515   .debug_str:0000000000000bb9 .LASF114
GAS LISTING /tmp/cceTTVsd.s 			page 30


     /tmp/cceTTVsd.s:4225   .debug_str:0000000000000316 .LASF115
     /tmp/cceTTVsd.s:4241   .debug_str:0000000000000396 .LASF116
     /tmp/cceTTVsd.s:4307   .debug_str:0000000000000567 .LASF117
     /tmp/cceTTVsd.s:4341   .debug_str:0000000000000653 .LASF118
     /tmp/cceTTVsd.s:4193   .debug_str:000000000000020a .LASF119
     /tmp/cceTTVsd.s:4257   .debug_str:00000000000003f3 .LASF120
     /tmp/cceTTVsd.s:4247   .debug_str:00000000000003c1 .LASF121
     /tmp/cceTTVsd.s:4333   .debug_str:000000000000061e .LASF122
     /tmp/cceTTVsd.s:4505   .debug_str:0000000000000b5b .LASF123
     /tmp/cceTTVsd.s:4185   .debug_str:00000000000001ce .LASF124
     /tmp/cceTTVsd.s:4267   .debug_str:0000000000000454 .LASF125
     /tmp/cceTTVsd.s:4173   .debug_str:0000000000000163 .LASF126
     /tmp/cceTTVsd.s:4433   .debug_str:00000000000008ee .LASF127
     /tmp/cceTTVsd.s:4485   .debug_str:0000000000000ae9 .LASF128
     /tmp/cceTTVsd.s:4497   .debug_str:0000000000000b21 .LASF129
     /tmp/cceTTVsd.s:4479   .debug_str:0000000000000ab8 .LASF130
     /tmp/cceTTVsd.s:4473   .debug_str:0000000000000a9e .LASF131
     /tmp/cceTTVsd.s:4223   .debug_str:000000000000030f .LASF132
     /tmp/cceTTVsd.s:4451   .debug_str:0000000000000a0a .LASF133
     /tmp/cceTTVsd.s:4295   .debug_str:000000000000051f .LASF134
     /tmp/cceTTVsd.s:4135   .debug_str:0000000000000019 .LASF135
     /tmp/cceTTVsd.s:4305   .debug_str:000000000000055d .LASF136
     /tmp/cceTTVsd.s:4189   .debug_str:00000000000001eb .LASF137
     /tmp/cceTTVsd.s:4471   .debug_str:0000000000000a96 .LASF138
     /tmp/cceTTVsd.s:4455   .debug_str:0000000000000a30 .LASF139
     /tmp/cceTTVsd.s:4331   .debug_str:000000000000060d .LASF141
     /tmp/cceTTVsd.s:4389   .debug_str:000000000000078d .LASF194
     /tmp/cceTTVsd.s:4457   .debug_str:0000000000000a3f .LASF142
     /tmp/cceTTVsd.s:4519   .debug_str:0000000000000bcc .LASF143
     /tmp/cceTTVsd.s:4297   .debug_str:000000000000052d .LASF144
     /tmp/cceTTVsd.s:4181   .debug_str:00000000000001b8 .LASF146
     /tmp/cceTTVsd.s:4439   .debug_str:00000000000009ce .LASF147
     /tmp/cceTTVsd.s:4369   .debug_str:000000000000071b .LASF148
     /tmp/cceTTVsd.s:4159   .debug_str:00000000000000ef .LASF149
     /tmp/cceTTVsd.s:4155   .debug_str:00000000000000c7 .LASF150
     /tmp/cceTTVsd.s:724    .text:0000000000000564 .LFE47
     /tmp/cceTTVsd.s:4209   .debug_str:00000000000002a6 .LASF151
     /tmp/cceTTVsd.s:3831   .debug_loc:0000000000000000 .LLST14
     /tmp/cceTTVsd.s:4495   .debug_str:0000000000000b17 .LASF152
     /tmp/cceTTVsd.s:3842   .debug_loc:0000000000000036 .LLST15
     /tmp/cceTTVsd.s:3853   .debug_loc:000000000000006c .LLST16
     /tmp/cceTTVsd.s:4391   .debug_str:000000000000079e .LASF153
     /tmp/cceTTVsd.s:3860   .debug_loc:000000000000008f .LLST17
     /tmp/cceTTVsd.s:4251   .debug_str:00000000000003da .LASF154
     /tmp/cceTTVsd.s:4447   .debug_str:00000000000009fd .LASF155
     /tmp/cceTTVsd.s:3873   .debug_loc:00000000000000c7 .LLST18
     /tmp/cceTTVsd.s:594    .text:0000000000000454 .LBB5
     /tmp/cceTTVsd.s:643    .text:00000000000004c4 .LBE5
     /tmp/cceTTVsd.s:3881   .debug_loc:00000000000000eb .LLST19
     /tmp/cceTTVsd.s:611    .text:000000000000047c .LVL75
     /tmp/cceTTVsd.s:648    .text:00000000000004cc .LBB6
     /tmp/cceTTVsd.s:666    .text:00000000000004ec .LBE6
     /tmp/cceTTVsd.s:3888   .debug_loc:000000000000010e .LLST20
     /tmp/cceTTVsd.s:659    .text:00000000000004e4 .LVL79
     /tmp/cceTTVsd.s:444    .text:00000000000002d0 .LVL49
     /tmp/cceTTVsd.s:451    .text:00000000000002e4 .LVL50
     /tmp/cceTTVsd.s:456    .text:00000000000002f0 .LVL51
GAS LISTING /tmp/cceTTVsd.s 			page 31


     /tmp/cceTTVsd.s:463    .text:0000000000000304 .LVL53
     /tmp/cceTTVsd.s:469    .text:0000000000000314 .LVL54
     /tmp/cceTTVsd.s:474    .text:0000000000000320 .LVL55
     /tmp/cceTTVsd.s:481    .text:0000000000000334 .LVL57
     /tmp/cceTTVsd.s:488    .text:0000000000000348 .LVL58
     /tmp/cceTTVsd.s:493    .text:0000000000000358 .LVL59
     /tmp/cceTTVsd.s:500    .text:000000000000036c .LVL60
     /tmp/cceTTVsd.s:505    .text:000000000000037c .LVL61
     /tmp/cceTTVsd.s:514    .text:0000000000000390 .LVL62
     /tmp/cceTTVsd.s:520    .text:00000000000003a0 .LVL63
     /tmp/cceTTVsd.s:529    .text:00000000000003b4 .LVL64
     /tmp/cceTTVsd.s:537    .text:00000000000003c8 .LVL65
     /tmp/cceTTVsd.s:549    .text:00000000000003e4 .LVL67
     /tmp/cceTTVsd.s:593    .text:0000000000000454 .LVL72
     /tmp/cceTTVsd.s:647    .text:00000000000004cc .LVL77
     /tmp/cceTTVsd.s:671    .text:00000000000004fc .LVL82
     /tmp/cceTTVsd.s:678    .text:000000000000050c .LVL83
     /tmp/cceTTVsd.s:681    .text:0000000000000518 .LVL84
     /tmp/cceTTVsd.s:718    .text:0000000000000558 .LVL89
     /tmp/cceTTVsd.s:721    .text:0000000000000564 .LVL90
     /tmp/cceTTVsd.s:4429   .debug_str:00000000000008d0 .LASF156
     /tmp/cceTTVsd.s:4487   .debug_str:0000000000000af0 .LASF157
     /tmp/cceTTVsd.s:235    .text:0000000000000180 .LFB46
     /tmp/cceTTVsd.s:381    .text:0000000000000294 .LFE46
     /tmp/cceTTVsd.s:3899   .debug_loc:0000000000000144 .LLST7
     /tmp/cceTTVsd.s:3917   .debug_loc:0000000000000190 .LLST8
     /tmp/cceTTVsd.s:3935   .debug_loc:00000000000001dc .LLST9
     /tmp/cceTTVsd.s:4121   .debug_ranges:0000000000000000 .Ldebug_ranges0
     /tmp/cceTTVsd.s:3959   .debug_loc:000000000000024c .LLST10
     /tmp/cceTTVsd.s:266    .text:00000000000001b0 .LVL31
     /tmp/cceTTVsd.s:274    .text:00000000000001c0 .LVL33
     /tmp/cceTTVsd.s:286    .text:00000000000001d8 .LVL34
     /tmp/cceTTVsd.s:297    .text:00000000000001ec .LVL37
     /tmp/cceTTVsd.s:302    .text:00000000000001fc .LVL38
     /tmp/cceTTVsd.s:309    .text:0000000000000210 .LVL39
     /tmp/cceTTVsd.s:314    .text:0000000000000220 .LVL40
     /tmp/cceTTVsd.s:336    .text:0000000000000244 .LBB4
     /tmp/cceTTVsd.s:349    .text:000000000000025c .LBE4
     /tmp/cceTTVsd.s:3966   .debug_loc:000000000000026f .LLST11
     /tmp/cceTTVsd.s:341    .text:0000000000000250 .LVL42
     /tmp/cceTTVsd.s:347    .text:000000000000025c .LVL44
     /tmp/cceTTVsd.s:355    .text:0000000000000268 .LVL45
     /tmp/cceTTVsd.s:362    .text:0000000000000278 .LVL46
     /tmp/cceTTVsd.s:4377   .debug_str:000000000000074a .LASF158
     /tmp/cceTTVsd.s:143    .text:00000000000000ec .LFB45
     /tmp/cceTTVsd.s:225    .text:0000000000000180 .LFE45
     /tmp/cceTTVsd.s:3973   .debug_loc:0000000000000292 .LLST4
     /tmp/cceTTVsd.s:3991   .debug_loc:00000000000002de .LLST5
     /tmp/cceTTVsd.s:4009   .debug_loc:000000000000032a .LLST6
     /tmp/cceTTVsd.s:171    .text:0000000000000118 .LVL21
     /tmp/cceTTVsd.s:184    .text:0000000000000138 .LVL22
     /tmp/cceTTVsd.s:208    .text:0000000000000168 .LVL25
     /tmp/cceTTVsd.s:4467   .debug_str:0000000000000a76 .LASF159
     /tmp/cceTTVsd.s:17     .text:0000000000000000 .LFB44
     /tmp/cceTTVsd.s:138    .text:00000000000000ec .LFE44
     /tmp/cceTTVsd.s:4033   .debug_loc:000000000000039a .LLST0
     /tmp/cceTTVsd.s:4051   .debug_loc:00000000000003e6 .LLST1
GAS LISTING /tmp/cceTTVsd.s 			page 32


     /tmp/cceTTVsd.s:4069   .debug_loc:0000000000000432 .LLST2
     /tmp/cceTTVsd.s:4084   .debug_loc:000000000000047b .LLST3
     /tmp/cceTTVsd.s:49     .text:0000000000000030 .LVL3
     /tmp/cceTTVsd.s:55     .text:0000000000000038 .LVL4
     /tmp/cceTTVsd.s:66     .text:0000000000000050 .LVL6
     /tmp/cceTTVsd.s:76     .text:0000000000000068 .LVL8
     /tmp/cceTTVsd.s:83     .text:000000000000007c .LVL9
     /tmp/cceTTVsd.s:88     .text:000000000000008c .LVL10
     /tmp/cceTTVsd.s:114    .text:00000000000000c4 .LVL14
     /tmp/cceTTVsd.s:119    .text:00000000000000d0 .LVL15
     /tmp/cceTTVsd.s:4325   .debug_str:00000000000005d3 .LASF160
     /tmp/cceTTVsd.s:4383   .debug_str:0000000000000770 .LASF161
     /tmp/cceTTVsd.s:4187   .debug_str:00000000000001d8 .LASF162
     /tmp/cceTTVsd.s:4353   .debug_str:00000000000006b2 .LASF163
     /tmp/cceTTVsd.s:4131   .debug_str:0000000000000000 .LASF164
     /tmp/cceTTVsd.s:4313   .debug_str:0000000000000599 .LASF165
     /tmp/cceTTVsd.s:4287   .debug_str:00000000000004ef .LASF166
     /tmp/cceTTVsd.s:4147   .debug_str:0000000000000088 .LASF167
     /tmp/cceTTVsd.s:4211   .debug_str:00000000000002ac .LASF168
     /tmp/cceTTVsd.s:4339   .debug_str:000000000000064a .LASF169
     /tmp/cceTTVsd.s:4463   .debug_str:0000000000000a6b .LASF173
     /tmp/cceTTVsd.s:4229   .debug_str:0000000000000335 .LASF170
     /tmp/cceTTVsd.s:4151   .debug_str:00000000000000ac .LASF171
     /tmp/cceTTVsd.s:4345   .debug_str:0000000000000676 .LASF172
     /tmp/cceTTVsd.s:4477   .debug_str:0000000000000ab1 .LASF174
     /tmp/cceTTVsd.s:4469   .debug_str:0000000000000a87 .LASF175
     /tmp/cceTTVsd.s:4237   .debug_str:0000000000000370 .LASF176
     /tmp/cceTTVsd.s:4415   .debug_str:0000000000000882 .LASF177
     /tmp/cceTTVsd.s:4293   .debug_str:000000000000051a .LASF178
     /tmp/cceTTVsd.s:4501   .debug_str:0000000000000b3b .LASF179
     /tmp/cceTTVsd.s:4301   .debug_str:000000000000054f .LASF180
     /tmp/cceTTVsd.s:4253   .debug_str:00000000000003e9 .LASF181
     /tmp/cceTTVsd.s:476    .text:0000000000000324 .LVL56
     /tmp/cceTTVsd.s:597    .text:0000000000000458 .LVL73
     /tmp/cceTTVsd.s:710    .text:0000000000000548 .LVL87
     /tmp/cceTTVsd.s:714    .text:000000000000054c .LVL88
     /tmp/cceTTVsd.s:458    .text:00000000000002f4 .LVL52
     /tmp/cceTTVsd.s:698    .text:0000000000000530 .LVL86
     /tmp/cceTTVsd.s:543    .text:00000000000003d0 .LVL66
     /tmp/cceTTVsd.s:684    .text:000000000000051c .LVL85
     /tmp/cceTTVsd.s:557    .text:00000000000003f8 .LVL68
     /tmp/cceTTVsd.s:570    .text:0000000000000414 .LVL70
     /tmp/cceTTVsd.s:572    .text:0000000000000418 .LVL71
     /tmp/cceTTVsd.s:599    .text:000000000000045c .LVL74
     /tmp/cceTTVsd.s:651    .text:00000000000004d0 .LVL78
     /tmp/cceTTVsd.s:662    .text:00000000000004e8 .LVL80
     /tmp/cceTTVsd.s:664    .text:00000000000004ec .LVL81
     /tmp/cceTTVsd.s:238    .text:0000000000000180 .LVL28
     /tmp/cceTTVsd.s:260    .text:00000000000001a8 .LVL30
     /tmp/cceTTVsd.s:373    .text:0000000000000288 .LVL47
     /tmp/cceTTVsd.s:255    .text:00000000000001a0 .LVL29
     /tmp/cceTTVsd.s:268    .text:00000000000001b4 .LVL32
     /tmp/cceTTVsd.s:291    .text:00000000000001e0 .LVL35
     /tmp/cceTTVsd.s:330    .text:000000000000023c .LVL41
     /tmp/cceTTVsd.s:376    .text:000000000000028c .LVL48
     /tmp/cceTTVsd.s:295    .text:00000000000001e4 .LVL36
     /tmp/cceTTVsd.s:345    .text:0000000000000254 .LVL43
GAS LISTING /tmp/cceTTVsd.s 			page 33


     /tmp/cceTTVsd.s:146    .text:00000000000000ec .LVL18
     /tmp/cceTTVsd.s:166    .text:0000000000000110 .LVL20
     /tmp/cceTTVsd.s:217    .text:0000000000000174 .LVL26
     /tmp/cceTTVsd.s:161    .text:0000000000000108 .LVL19
     /tmp/cceTTVsd.s:189    .text:0000000000000140 .LVL23
     /tmp/cceTTVsd.s:202    .text:000000000000015c .LVL24
     /tmp/cceTTVsd.s:220    .text:0000000000000178 .LVL27
     /tmp/cceTTVsd.s:21     .text:0000000000000000 .LVL0
     /tmp/cceTTVsd.s:44     .text:0000000000000028 .LVL2
     /tmp/cceTTVsd.s:133    .text:00000000000000e4 .LVL17
     /tmp/cceTTVsd.s:38     .text:0000000000000020 .LVL1
     /tmp/cceTTVsd.s:58     .text:000000000000003c .LVL5
     /tmp/cceTTVsd.s:101    .text:00000000000000a8 .LVL11
     /tmp/cceTTVsd.s:110    .text:00000000000000b8 .LVL12
     /tmp/cceTTVsd.s:112    .text:00000000000000bc .LVL13
     /tmp/cceTTVsd.s:71     .text:0000000000000058 .LVL7
     /tmp/cceTTVsd.s:130    .text:00000000000000e0 .LVL16
     /tmp/cceTTVsd.s:768    .debug_info:0000000000000000 .Ldebug_info0
     /tmp/cceTTVsd.s:262    .text:00000000000001a8 .LBB2
     /tmp/cceTTVsd.s:276    .text:00000000000001c0 .LBE2
     /tmp/cceTTVsd.s:281    .text:00000000000001cc .LBB3
     /tmp/cceTTVsd.s:335    .text:0000000000000244 .LBE3
     /tmp/cceTTVsd.s:727    .gcc_except_table:0000000000000000 .LLSDA47

UNDEFINED SYMBOLS
_Z15thread_dispatchv
_Z4getcv
_ZN6Buffer3putEi
_Z11printStringPKc
_Z8printIntiii
_Z10sem_signalP3sem
_Z4putcc
_ZN6Buffer3getEv
_ZN6Buffer6getCntEv
_Z9getStringPci
_Z11stringToIntPKc
_Znwm
_ZN6BufferC1Ei
_Z8sem_openPP3semj
_Z13thread_createPP3TCBPFvPvES2_
_Z8sem_waitP3sem
_Z9sem_closeP3sem
_ZN6BufferD1Ev
_ZdlPv
_Unwind_Resume
__gxx_personality_v0
