GAS LISTING /tmp/ccNmAFvp.s 			page 1


   1              		.file	"THREAD_JOIN_TEST.cpp"
   2              		.option pic
   3              		.option norelax
   4              		.text
   5              	.Ltext0:
   6              		.section	.text._ZN1AD2Ev,"axG",@progbits,_ZN1AD5Ev,comdat
   7              		.align	2
   8              		.weak	_ZN1AD2Ev
  10              	_ZN1AD2Ev:
  11              	.LFB72:
  12              		.file 1 "test/THREAD_JOIN_TEST.cpp"
   1:test/THREAD_JOIN_TEST.cpp **** //
   2:test/THREAD_JOIN_TEST.cpp **** // Created by os on 9/8/24.
   3:test/THREAD_JOIN_TEST.cpp **** //
   4:test/THREAD_JOIN_TEST.cpp **** 
   5:test/THREAD_JOIN_TEST.cpp **** #include "THREAD_JOIN_TEST.hpp"
   6:test/THREAD_JOIN_TEST.cpp **** 
   7:test/THREAD_JOIN_TEST.cpp **** #include "../h/syscall_cpp.hpp"
   8:test/THREAD_JOIN_TEST.cpp **** 
   9:test/THREAD_JOIN_TEST.cpp **** #include "printing.hpp"
  10:test/THREAD_JOIN_TEST.cpp **** 
  11:test/THREAD_JOIN_TEST.cpp **** static volatile bool finishedA = false;
  12:test/THREAD_JOIN_TEST.cpp **** static volatile bool finishedB = false;
  13:test/THREAD_JOIN_TEST.cpp **** static volatile bool finishedC = false;
  14:test/THREAD_JOIN_TEST.cpp **** static volatile bool finishedD = false;
  15:test/THREAD_JOIN_TEST.cpp **** 
  16:test/THREAD_JOIN_TEST.cpp **** Thread* threads[2];
  17:test/THREAD_JOIN_TEST.cpp **** 
  18:test/THREAD_JOIN_TEST.cpp **** 
  19:test/THREAD_JOIN_TEST.cpp **** class A: public Thread {
  13              		.loc 1 19 7
  14              		.cfi_startproc
  15              	.LVL0:
  16 0000 130101FF 		addi	sp,sp,-16
  17              		.cfi_def_cfa_offset 16
  18 0004 23341100 		sd	ra,8(sp)
  19 0008 23308100 		sd	s0,0(sp)
  20              		.cfi_offset 1, -8
  21              		.cfi_offset 8, -16
  22 000c 13040101 		addi	s0,sp,16
  23              		.cfi_def_cfa 8, 0
  24              	.LBB15:
  25              		.loc 1 19 7 is_stmt 0
  26 0010 97070000 		lla	a5,_ZTV1A+16
  26      93870700 
  27 0018 2330F500 		sd	a5,0(a0)
  28 001c 97000000 		call	_ZN6ThreadD2Ev@plt
  28      E7800000 
  29              	.LVL1:
  30              	.LBE15:
  31 0024 83308100 		ld	ra,8(sp)
  32              		.cfi_restore 1
  33 0028 03340100 		ld	s0,0(sp)
  34              		.cfi_restore 8
  35              		.cfi_def_cfa 2, 16
  36 002c 13010101 		addi	sp,sp,16
  37              		.cfi_def_cfa_offset 0
GAS LISTING /tmp/ccNmAFvp.s 			page 2


  38 0030 67800000 		jr	ra
  39              		.cfi_endproc
  40              	.LFE72:
  42              		.weak	_ZN1AD1Ev
  43              		.set	_ZN1AD1Ev,_ZN1AD2Ev
  44              		.section	.text._ZN1AD0Ev,"axG",@progbits,_ZN1AD5Ev,comdat
  45              		.align	2
  46              		.weak	_ZN1AD0Ev
  48              	_ZN1AD0Ev:
  49              	.LFB74:
  50              		.loc 1 19 7 is_stmt 1
  51              		.cfi_startproc
  52              	.LVL2:
  53 0000 130101FE 		addi	sp,sp,-32
  54              		.cfi_def_cfa_offset 32
  55 0004 233C1100 		sd	ra,24(sp)
  56 0008 23388100 		sd	s0,16(sp)
  57 000c 23349100 		sd	s1,8(sp)
  58              		.cfi_offset 1, -8
  59              		.cfi_offset 8, -16
  60              		.cfi_offset 9, -24
  61 0010 13040102 		addi	s0,sp,32
  62              		.cfi_def_cfa 8, 0
  63 0014 93040500 		mv	s1,a0
  64              	.LVL3:
  65              	.LBB16:
  66              	.LBB17:
  67              		.loc 1 19 7 is_stmt 0
  68 0018 97070000 		lla	a5,_ZTV1A+16
  68      93870700 
  69 0020 2330F500 		sd	a5,0(a0)
  70 0024 97000000 		call	_ZN6ThreadD2Ev@plt
  70      E7800000 
  71              	.LVL4:
  72              	.LBE17:
  73              	.LBE16:
  74 002c 13850400 		mv	a0,s1
  75 0030 97000000 		call	_ZdlPv@plt
  75      E7800000 
  76              	.LVL5:
  77 0038 83308101 		ld	ra,24(sp)
  78              		.cfi_restore 1
  79 003c 03340101 		ld	s0,16(sp)
  80              		.cfi_restore 8
  81              		.cfi_def_cfa 2, 32
  82 0040 83348100 		ld	s1,8(sp)
  83              		.cfi_restore 9
  84              	.LVL6:
  85 0044 13010102 		addi	sp,sp,32
  86              		.cfi_def_cfa_offset 0
  87 0048 67800000 		jr	ra
  88              		.cfi_endproc
  89              	.LFE74:
  91              		.section	.text._ZN1BD2Ev,"axG",@progbits,_ZN1BD5Ev,comdat
  92              		.align	2
  93              		.weak	_ZN1BD2Ev
  95              	_ZN1BD2Ev:
GAS LISTING /tmp/ccNmAFvp.s 			page 3


  96              	.LFB68:
  20:test/THREAD_JOIN_TEST.cpp ****     void BodyA1(void* arg);
  21:test/THREAD_JOIN_TEST.cpp **** 
  22:test/THREAD_JOIN_TEST.cpp **** public:
  23:test/THREAD_JOIN_TEST.cpp ****     static int bra;
  24:test/THREAD_JOIN_TEST.cpp **** 
  25:test/THREAD_JOIN_TEST.cpp ****     A():Thread() {}
  26:test/THREAD_JOIN_TEST.cpp **** 
  27:test/THREAD_JOIN_TEST.cpp ****     void run() override {
  28:test/THREAD_JOIN_TEST.cpp ****         BodyA1(nullptr);
  29:test/THREAD_JOIN_TEST.cpp ****     }
  30:test/THREAD_JOIN_TEST.cpp **** };
  31:test/THREAD_JOIN_TEST.cpp **** 
  32:test/THREAD_JOIN_TEST.cpp **** class B: public Thread {
  97              		.loc 1 32 7 is_stmt 1
  98              		.cfi_startproc
  99              	.LVL7:
 100 0000 130101FF 		addi	sp,sp,-16
 101              		.cfi_def_cfa_offset 16
 102 0004 23341100 		sd	ra,8(sp)
 103 0008 23308100 		sd	s0,0(sp)
 104              		.cfi_offset 1, -8
 105              		.cfi_offset 8, -16
 106 000c 13040101 		addi	s0,sp,16
 107              		.cfi_def_cfa 8, 0
 108              	.LBB18:
 109              		.loc 1 32 7 is_stmt 0
 110 0010 97070000 		lla	a5,_ZTV1B+16
 110      93870700 
 111 0018 2330F500 		sd	a5,0(a0)
 112 001c 97000000 		call	_ZN6ThreadD2Ev@plt
 112      E7800000 
 113              	.LVL8:
 114              	.LBE18:
 115 0024 83308100 		ld	ra,8(sp)
 116              		.cfi_restore 1
 117 0028 03340100 		ld	s0,0(sp)
 118              		.cfi_restore 8
 119              		.cfi_def_cfa 2, 16
 120 002c 13010101 		addi	sp,sp,16
 121              		.cfi_def_cfa_offset 0
 122 0030 67800000 		jr	ra
 123              		.cfi_endproc
 124              	.LFE68:
 126              		.weak	_ZN1BD1Ev
 127              		.set	_ZN1BD1Ev,_ZN1BD2Ev
 128              		.section	.text._ZN1BD0Ev,"axG",@progbits,_ZN1BD5Ev,comdat
 129              		.align	2
 130              		.weak	_ZN1BD0Ev
 132              	_ZN1BD0Ev:
 133              	.LFB70:
 134              		.loc 1 32 7 is_stmt 1
 135              		.cfi_startproc
 136              	.LVL9:
 137 0000 130101FE 		addi	sp,sp,-32
 138              		.cfi_def_cfa_offset 32
 139 0004 233C1100 		sd	ra,24(sp)
GAS LISTING /tmp/ccNmAFvp.s 			page 4


 140 0008 23388100 		sd	s0,16(sp)
 141 000c 23349100 		sd	s1,8(sp)
 142              		.cfi_offset 1, -8
 143              		.cfi_offset 8, -16
 144              		.cfi_offset 9, -24
 145 0010 13040102 		addi	s0,sp,32
 146              		.cfi_def_cfa 8, 0
 147 0014 93040500 		mv	s1,a0
 148              	.LVL10:
 149              	.LBB19:
 150              	.LBB20:
 151              		.loc 1 32 7 is_stmt 0
 152 0018 97070000 		lla	a5,_ZTV1B+16
 152      93870700 
 153 0020 2330F500 		sd	a5,0(a0)
 154 0024 97000000 		call	_ZN6ThreadD2Ev@plt
 154      E7800000 
 155              	.LVL11:
 156              	.LBE20:
 157              	.LBE19:
 158 002c 13850400 		mv	a0,s1
 159 0030 97000000 		call	_ZdlPv@plt
 159      E7800000 
 160              	.LVL12:
 161 0038 83308101 		ld	ra,24(sp)
 162              		.cfi_restore 1
 163 003c 03340101 		ld	s0,16(sp)
 164              		.cfi_restore 8
 165              		.cfi_def_cfa 2, 32
 166 0040 83348100 		ld	s1,8(sp)
 167              		.cfi_restore 9
 168              	.LVL13:
 169 0044 13010102 		addi	sp,sp,32
 170              		.cfi_def_cfa_offset 0
 171 0048 67800000 		jr	ra
 172              		.cfi_endproc
 173              	.LFE70:
 175              		.section	.rodata.str1.8,"aMS",@progbits,1
 176              		.align	3
 177              	.LC0:
 178 0000 413A2069 		.string	"A: i="
 178      3D00
 179 0006 0000     		.align	3
 180              	.LC1:
 181 0008 0A00     		.string	"\n"
 182 000a 00000000 		.align	3
 182      0000
 183              	.LC2:
 184 0010 41206669 		.string	"A finished!\n"
 184      6E697368 
 184      6564210A 
 184      00
 185              		.text
 186              		.align	2
 187              		.globl	_ZN1A6BodyA1EPv
 189              	_ZN1A6BodyA1EPv:
 190              	.LFB59:
GAS LISTING /tmp/ccNmAFvp.s 			page 5


  33:test/THREAD_JOIN_TEST.cpp ****     void BodyB1(void* arg);
  34:test/THREAD_JOIN_TEST.cpp **** 
  35:test/THREAD_JOIN_TEST.cpp **** public:
  36:test/THREAD_JOIN_TEST.cpp ****     static int brb;
  37:test/THREAD_JOIN_TEST.cpp **** 
  38:test/THREAD_JOIN_TEST.cpp ****     B():Thread() {}
  39:test/THREAD_JOIN_TEST.cpp **** 
  40:test/THREAD_JOIN_TEST.cpp ****     void run() override {
  41:test/THREAD_JOIN_TEST.cpp ****         BodyB1(nullptr);
  42:test/THREAD_JOIN_TEST.cpp ****     }
  43:test/THREAD_JOIN_TEST.cpp **** };
  44:test/THREAD_JOIN_TEST.cpp **** 
  45:test/THREAD_JOIN_TEST.cpp **** class C: public Thread {
  46:test/THREAD_JOIN_TEST.cpp ****     void BodyC1(void* arg);
  47:test/THREAD_JOIN_TEST.cpp **** 
  48:test/THREAD_JOIN_TEST.cpp **** public:
  49:test/THREAD_JOIN_TEST.cpp ****     static int brc;
  50:test/THREAD_JOIN_TEST.cpp **** 
  51:test/THREAD_JOIN_TEST.cpp ****     C():Thread() {}
  52:test/THREAD_JOIN_TEST.cpp **** 
  53:test/THREAD_JOIN_TEST.cpp ****     void run() override {
  54:test/THREAD_JOIN_TEST.cpp ****         BodyC1(nullptr);
  55:test/THREAD_JOIN_TEST.cpp ****     }
  56:test/THREAD_JOIN_TEST.cpp **** };
  57:test/THREAD_JOIN_TEST.cpp **** 
  58:test/THREAD_JOIN_TEST.cpp **** 
  59:test/THREAD_JOIN_TEST.cpp **** 
  60:test/THREAD_JOIN_TEST.cpp **** 
  61:test/THREAD_JOIN_TEST.cpp **** void A::BodyA1(void *arg) {
 191              		.loc 1 61 27 is_stmt 1
 192              		.cfi_startproc
 193              	.LVL14:
 194 0000 130101FE 		addi	sp,sp,-32
 195              		.cfi_def_cfa_offset 32
 196 0004 233C1100 		sd	ra,24(sp)
 197 0008 23388100 		sd	s0,16(sp)
 198 000c 23349100 		sd	s1,8(sp)
 199 0010 23302101 		sd	s2,0(sp)
 200              		.cfi_offset 1, -8
 201              		.cfi_offset 8, -16
 202              		.cfi_offset 9, -24
 203              		.cfi_offset 18, -32
 204 0014 13040102 		addi	s0,sp,32
 205              		.cfi_def_cfa 8, 0
  62:test/THREAD_JOIN_TEST.cpp **** 
  63:test/THREAD_JOIN_TEST.cpp ****     for (uint64 i = 0; i < 10; i++)
 206              		.loc 1 63 5
 207              	.LVL15:
 208              	.LBB21:
 209              		.loc 1 63 17 is_stmt 0
 210 0018 13090000 		li	s2,0
 211 001c 6F008003 		j	.L15
 212              	.LVL16:
 213              	.L12:
 214              	.LBB22:
 215              	.LBB23:
 216              	.LBB24:
GAS LISTING /tmp/ccNmAFvp.s 			page 6


  64:test/THREAD_JOIN_TEST.cpp ****     {
  65:test/THREAD_JOIN_TEST.cpp ****         printString("A: i=");
  66:test/THREAD_JOIN_TEST.cpp ****         printInt(i);
  67:test/THREAD_JOIN_TEST.cpp ****         printString("\n");
  68:test/THREAD_JOIN_TEST.cpp **** 
  69:test/THREAD_JOIN_TEST.cpp ****         for (uint64 j = 0; j < 10000; j++)
  70:test/THREAD_JOIN_TEST.cpp ****         {
  71:test/THREAD_JOIN_TEST.cpp ****             for (uint64 k = 0; k < 30000; k++)
  72:test/THREAD_JOIN_TEST.cpp ****             {
  73:test/THREAD_JOIN_TEST.cpp ****                 /* busy wait */
  74:test/THREAD_JOIN_TEST.cpp ****             }
  75:test/THREAD_JOIN_TEST.cpp **** 
  76:test/THREAD_JOIN_TEST.cpp ****             thread_dispatch();
 217              		.loc 1 76 13 is_stmt 1 discriminator 2
 218              		.loc 1 76 28 is_stmt 0 discriminator 2
 219 0020 97000000 		call	_Z15thread_dispatchv@plt
 219      E7800000 
 220              	.LVL17:
 221              	.LBE24:
  69:test/THREAD_JOIN_TEST.cpp ****         {
 222              		.loc 1 69 9 is_stmt 1 discriminator 2
 223 0028 93841400 		addi	s1,s1,1
 224              	.LVL18:
 225              	.L14:
  69:test/THREAD_JOIN_TEST.cpp ****         {
 226              		.loc 1 69 30 discriminator 1
 227 002c B7270000 		li	a5,8192
 228 0030 9387F770 		addi	a5,a5,1807
 229 0034 63EE9700 		bgtu	s1,a5,.L11
 230              	.LBB26:
 231              	.LBB25:
  71:test/THREAD_JOIN_TEST.cpp ****             {
 232              		.loc 1 71 25 is_stmt 0
 233 0038 13070000 		li	a4,0
 234              	.L13:
 235              	.LVL19:
  71:test/THREAD_JOIN_TEST.cpp ****             {
 236              		.loc 1 71 34 is_stmt 1 discriminator 3
 237 003c B7770000 		li	a5,28672
 238 0040 9387F752 		addi	a5,a5,1327
 239 0044 E3EEE7FC 		bgtu	a4,a5,.L12
  71:test/THREAD_JOIN_TEST.cpp ****             {
 240              		.loc 1 71 13 discriminator 2
 241 0048 13071700 		addi	a4,a4,1
 242              	.LVL20:
 243 004c 6FF01FFF 		j	.L13
 244              	.LVL21:
 245              	.L11:
 246              	.LBE25:
 247              	.LBE26:
 248              	.LBE23:
 249              	.LBE22:
  63:test/THREAD_JOIN_TEST.cpp ****     {
 250              		.loc 1 63 5 discriminator 2
 251 0050 13091900 		addi	s2,s2,1
 252              	.LVL22:
 253              	.L15:
GAS LISTING /tmp/ccNmAFvp.s 			page 7


  63:test/THREAD_JOIN_TEST.cpp ****     {
 254              		.loc 1 63 26 discriminator 1
 255 0054 93079000 		li	a5,9
 256 0058 63E02705 		bgtu	s2,a5,.L10
 257              	.LBB28:
  65:test/THREAD_JOIN_TEST.cpp ****         printInt(i);
 258              		.loc 1 65 9
  65:test/THREAD_JOIN_TEST.cpp ****         printInt(i);
 259              		.loc 1 65 20 is_stmt 0
 260 005c 17050000 		lla	a0,.LC0
 260      13050500 
 261 0064 97000000 		call	_Z11printStringPKc@plt
 261      E7800000 
 262              	.LVL23:
  66:test/THREAD_JOIN_TEST.cpp ****         printString("\n");
 263              		.loc 1 66 9 is_stmt 1
  66:test/THREAD_JOIN_TEST.cpp ****         printString("\n");
 264              		.loc 1 66 17 is_stmt 0
 265 006c 13060000 		li	a2,0
 266 0070 9305A000 		li	a1,10
 267 0074 1B050900 		sext.w	a0,s2
 268 0078 97000000 		call	_Z8printIntiii@plt
 268      E7800000 
 269              	.LVL24:
  67:test/THREAD_JOIN_TEST.cpp **** 
 270              		.loc 1 67 9 is_stmt 1
  67:test/THREAD_JOIN_TEST.cpp **** 
 271              		.loc 1 67 20 is_stmt 0
 272 0080 17050000 		lla	a0,.LC1
 272      13050500 
 273 0088 97000000 		call	_Z11printStringPKc@plt
 273      E7800000 
 274              	.LVL25:
  69:test/THREAD_JOIN_TEST.cpp ****         {
 275              		.loc 1 69 9 is_stmt 1
 276              	.LBB27:
  69:test/THREAD_JOIN_TEST.cpp ****         {
 277              		.loc 1 69 21 is_stmt 0
 278 0090 93040000 		li	s1,0
 279 0094 6FF09FF9 		j	.L14
 280              	.LVL26:
 281              	.L10:
 282              	.LBE27:
 283              	.LBE28:
 284              	.LBE21:
  77:test/THREAD_JOIN_TEST.cpp ****         }
  78:test/THREAD_JOIN_TEST.cpp ****     }
  79:test/THREAD_JOIN_TEST.cpp **** 
  80:test/THREAD_JOIN_TEST.cpp ****     printString("A finished!\n");
 285              		.loc 1 80 5 is_stmt 1
 286              		.loc 1 80 16 is_stmt 0
 287 0098 17050000 		lla	a0,.LC2
 287      13050500 
 288 00a0 97000000 		call	_Z11printStringPKc@plt
 288      E7800000 
 289              	.LVL27:
  81:test/THREAD_JOIN_TEST.cpp ****     finishedA = true;
GAS LISTING /tmp/ccNmAFvp.s 			page 8


 290              		.loc 1 81 5 is_stmt 1
 291              		.loc 1 81 15 is_stmt 0
 292 00a8 93071000 		li	a5,1
 293 00ac 17070000 		sb	a5,.LANCHOR0,a4
 293      2300F700 
  82:test/THREAD_JOIN_TEST.cpp **** 
  83:test/THREAD_JOIN_TEST.cpp **** }
 294              		.loc 1 83 1
 295 00b4 83308101 		ld	ra,24(sp)
 296              		.cfi_restore 1
 297 00b8 03340101 		ld	s0,16(sp)
 298              		.cfi_restore 8
 299              		.cfi_def_cfa 2, 32
 300 00bc 83348100 		ld	s1,8(sp)
 301              		.cfi_restore 9
 302 00c0 03390100 		ld	s2,0(sp)
 303              		.cfi_restore 18
 304              	.LVL28:
 305 00c4 13010102 		addi	sp,sp,32
 306              		.cfi_def_cfa_offset 0
 307 00c8 67800000 		jr	ra
 308              		.cfi_endproc
 309              	.LFE59:
 311              		.section	.text._ZN1A3runEv,"axG",@progbits,_ZN1A3runEv,comdat
 312              		.align	2
 313              		.weak	_ZN1A3runEv
 315              	_ZN1A3runEv:
 316              	.LFB50:
  27:test/THREAD_JOIN_TEST.cpp ****         BodyA1(nullptr);
 317              		.loc 1 27 10 is_stmt 1
 318              		.cfi_startproc
 319              	.LVL29:
 320 0000 130101FF 		addi	sp,sp,-16
 321              		.cfi_def_cfa_offset 16
 322 0004 23341100 		sd	ra,8(sp)
 323 0008 23308100 		sd	s0,0(sp)
 324              		.cfi_offset 1, -8
 325              		.cfi_offset 8, -16
 326 000c 13040101 		addi	s0,sp,16
 327              		.cfi_def_cfa 8, 0
  28:test/THREAD_JOIN_TEST.cpp ****     }
 328              		.loc 1 28 9
  28:test/THREAD_JOIN_TEST.cpp ****     }
 329              		.loc 1 28 15 is_stmt 0
 330 0010 93050000 		li	a1,0
 331 0014 97000000 		call	_ZN1A6BodyA1EPv
 331      E7800000 
 332              	.LVL30:
  29:test/THREAD_JOIN_TEST.cpp **** };
 333              		.loc 1 29 5
 334 001c 83308100 		ld	ra,8(sp)
 335              		.cfi_restore 1
 336 0020 03340100 		ld	s0,0(sp)
 337              		.cfi_restore 8
 338              		.cfi_def_cfa 2, 16
 339 0024 13010101 		addi	sp,sp,16
 340              		.cfi_def_cfa_offset 0
GAS LISTING /tmp/ccNmAFvp.s 			page 9


 341 0028 67800000 		jr	ra
 342              		.cfi_endproc
 343              	.LFE50:
 345              		.section	.rodata.str1.8
 346 001d 000000   		.align	3
 347              	.LC3:
 348 0020 423A2069 		.string	"B: i="
 348      3D00
 349 0026 0000     		.align	3
 350              	.LC4:
 351 0028 42206669 		.string	"B finished!\n"
 351      6E697368 
 351      6564210A 
 351      00
 352              		.text
 353              		.align	2
 354              		.globl	_ZN1B6BodyB1EPv
 356              	_ZN1B6BodyB1EPv:
 357              	.LFB60:
  84:test/THREAD_JOIN_TEST.cpp **** 
  85:test/THREAD_JOIN_TEST.cpp **** void B::BodyB1(void *arg) {
 358              		.loc 1 85 27 is_stmt 1
 359              		.cfi_startproc
 360              	.LVL31:
 361 00cc 130101FE 		addi	sp,sp,-32
 362              		.cfi_def_cfa_offset 32
 363 00d0 233C1100 		sd	ra,24(sp)
 364 00d4 23388100 		sd	s0,16(sp)
 365 00d8 23349100 		sd	s1,8(sp)
 366 00dc 23302101 		sd	s2,0(sp)
 367              		.cfi_offset 1, -8
 368              		.cfi_offset 8, -16
 369              		.cfi_offset 9, -24
 370              		.cfi_offset 18, -32
 371 00e0 13040102 		addi	s0,sp,32
 372              		.cfi_def_cfa 8, 0
  86:test/THREAD_JOIN_TEST.cpp **** 
  87:test/THREAD_JOIN_TEST.cpp ****     for (uint64 i = 0; i < 16; i++)
 373              		.loc 1 87 5
 374              	.LVL32:
 375              	.LBB29:
 376              		.loc 1 87 17 is_stmt 0
 377 00e4 13090000 		li	s2,0
 378 00e8 6F008003 		j	.L25
 379              	.LVL33:
 380              	.L22:
 381              	.LBB30:
 382              	.LBB31:
 383              	.LBB32:
  88:test/THREAD_JOIN_TEST.cpp ****     {
  89:test/THREAD_JOIN_TEST.cpp ****         printString("B: i=");
  90:test/THREAD_JOIN_TEST.cpp ****         printInt(i);
  91:test/THREAD_JOIN_TEST.cpp ****         printString("\n");
  92:test/THREAD_JOIN_TEST.cpp **** 
  93:test/THREAD_JOIN_TEST.cpp ****         for (uint64 j = 0; j < 10000; j++)
  94:test/THREAD_JOIN_TEST.cpp ****         {
  95:test/THREAD_JOIN_TEST.cpp ****             for (uint64 k = 0; k < 30000; k++)
GAS LISTING /tmp/ccNmAFvp.s 			page 10


  96:test/THREAD_JOIN_TEST.cpp ****             {
  97:test/THREAD_JOIN_TEST.cpp ****                 /* busy wait */
  98:test/THREAD_JOIN_TEST.cpp ****             }
  99:test/THREAD_JOIN_TEST.cpp **** 
 100:test/THREAD_JOIN_TEST.cpp ****             thread_dispatch();
 384              		.loc 1 100 13 is_stmt 1 discriminator 2
 385              		.loc 1 100 28 is_stmt 0 discriminator 2
 386 00ec 97000000 		call	_Z15thread_dispatchv@plt
 386      E7800000 
 387              	.LVL34:
 388              	.LBE32:
  93:test/THREAD_JOIN_TEST.cpp ****         {
 389              		.loc 1 93 9 is_stmt 1 discriminator 2
 390 00f4 93841400 		addi	s1,s1,1
 391              	.LVL35:
 392              	.L24:
  93:test/THREAD_JOIN_TEST.cpp ****         {
 393              		.loc 1 93 30 discriminator 1
 394 00f8 B7270000 		li	a5,8192
 395 00fc 9387F770 		addi	a5,a5,1807
 396 0100 63EE9700 		bgtu	s1,a5,.L21
 397              	.LBB34:
 398              	.LBB33:
  95:test/THREAD_JOIN_TEST.cpp ****             {
 399              		.loc 1 95 25 is_stmt 0
 400 0104 13070000 		li	a4,0
 401              	.L23:
 402              	.LVL36:
  95:test/THREAD_JOIN_TEST.cpp ****             {
 403              		.loc 1 95 34 is_stmt 1 discriminator 3
 404 0108 B7770000 		li	a5,28672
 405 010c 9387F752 		addi	a5,a5,1327
 406 0110 E3EEE7FC 		bgtu	a4,a5,.L22
  95:test/THREAD_JOIN_TEST.cpp ****             {
 407              		.loc 1 95 13 discriminator 2
 408 0114 13071700 		addi	a4,a4,1
 409              	.LVL37:
 410 0118 6FF01FFF 		j	.L23
 411              	.LVL38:
 412              	.L21:
 413              	.LBE33:
 414              	.LBE34:
 415              	.LBE31:
 416              	.LBE30:
  87:test/THREAD_JOIN_TEST.cpp ****     {
 417              		.loc 1 87 5 discriminator 2
 418 011c 13091900 		addi	s2,s2,1
 419              	.LVL39:
 420              	.L25:
  87:test/THREAD_JOIN_TEST.cpp ****     {
 421              		.loc 1 87 26 discriminator 1
 422 0120 9307F000 		li	a5,15
 423 0124 63E02705 		bgtu	s2,a5,.L20
 424              	.LBB36:
  89:test/THREAD_JOIN_TEST.cpp ****         printInt(i);
 425              		.loc 1 89 9
  89:test/THREAD_JOIN_TEST.cpp ****         printInt(i);
GAS LISTING /tmp/ccNmAFvp.s 			page 11


 426              		.loc 1 89 20 is_stmt 0
 427 0128 17050000 		lla	a0,.LC3
 427      13050500 
 428 0130 97000000 		call	_Z11printStringPKc@plt
 428      E7800000 
 429              	.LVL40:
  90:test/THREAD_JOIN_TEST.cpp ****         printString("\n");
 430              		.loc 1 90 9 is_stmt 1
  90:test/THREAD_JOIN_TEST.cpp ****         printString("\n");
 431              		.loc 1 90 17 is_stmt 0
 432 0138 13060000 		li	a2,0
 433 013c 9305A000 		li	a1,10
 434 0140 1B050900 		sext.w	a0,s2
 435 0144 97000000 		call	_Z8printIntiii@plt
 435      E7800000 
 436              	.LVL41:
  91:test/THREAD_JOIN_TEST.cpp **** 
 437              		.loc 1 91 9 is_stmt 1
  91:test/THREAD_JOIN_TEST.cpp **** 
 438              		.loc 1 91 20 is_stmt 0
 439 014c 17050000 		lla	a0,.LC1
 439      13050500 
 440 0154 97000000 		call	_Z11printStringPKc@plt
 440      E7800000 
 441              	.LVL42:
  93:test/THREAD_JOIN_TEST.cpp ****         {
 442              		.loc 1 93 9 is_stmt 1
 443              	.LBB35:
  93:test/THREAD_JOIN_TEST.cpp ****         {
 444              		.loc 1 93 21 is_stmt 0
 445 015c 93040000 		li	s1,0
 446 0160 6FF09FF9 		j	.L24
 447              	.LVL43:
 448              	.L20:
 449              	.LBE35:
 450              	.LBE36:
 451              	.LBE29:
 101:test/THREAD_JOIN_TEST.cpp ****         }
 102:test/THREAD_JOIN_TEST.cpp ****     }
 103:test/THREAD_JOIN_TEST.cpp **** 
 104:test/THREAD_JOIN_TEST.cpp ****     printString("B finished!\n");
 452              		.loc 1 104 5 is_stmt 1
 453              		.loc 1 104 16 is_stmt 0
 454 0164 17050000 		lla	a0,.LC4
 454      13050500 
 455 016c 97000000 		call	_Z11printStringPKc@plt
 455      E7800000 
 456              	.LVL44:
 105:test/THREAD_JOIN_TEST.cpp ****     finishedB = true;
 457              		.loc 1 105 5 is_stmt 1
 458              		.loc 1 105 15 is_stmt 0
 459 0174 93071000 		li	a5,1
 460 0178 17070000 		sb	a5,.LANCHOR0+1,a4
 460      2300F700 
 106:test/THREAD_JOIN_TEST.cpp ****     thread_dispatch();
 461              		.loc 1 106 5 is_stmt 1
 462              		.loc 1 106 20 is_stmt 0
GAS LISTING /tmp/ccNmAFvp.s 			page 12


 463 0180 97000000 		call	_Z15thread_dispatchv@plt
 463      E7800000 
 464              	.LVL45:
 107:test/THREAD_JOIN_TEST.cpp **** 
 108:test/THREAD_JOIN_TEST.cpp **** }
 465              		.loc 1 108 1
 466 0188 83308101 		ld	ra,24(sp)
 467              		.cfi_restore 1
 468 018c 03340101 		ld	s0,16(sp)
 469              		.cfi_restore 8
 470              		.cfi_def_cfa 2, 32
 471 0190 83348100 		ld	s1,8(sp)
 472              		.cfi_restore 9
 473 0194 03390100 		ld	s2,0(sp)
 474              		.cfi_restore 18
 475              	.LVL46:
 476 0198 13010102 		addi	sp,sp,32
 477              		.cfi_def_cfa_offset 0
 478 019c 67800000 		jr	ra
 479              		.cfi_endproc
 480              	.LFE60:
 482              		.section	.text._ZN1B3runEv,"axG",@progbits,_ZN1B3runEv,comdat
 483              		.align	2
 484              		.weak	_ZN1B3runEv
 486              	_ZN1B3runEv:
 487              	.LFB54:
  40:test/THREAD_JOIN_TEST.cpp ****         BodyB1(nullptr);
 488              		.loc 1 40 10 is_stmt 1
 489              		.cfi_startproc
 490              	.LVL47:
 491 0000 130101FF 		addi	sp,sp,-16
 492              		.cfi_def_cfa_offset 16
 493 0004 23341100 		sd	ra,8(sp)
 494 0008 23308100 		sd	s0,0(sp)
 495              		.cfi_offset 1, -8
 496              		.cfi_offset 8, -16
 497 000c 13040101 		addi	s0,sp,16
 498              		.cfi_def_cfa 8, 0
  41:test/THREAD_JOIN_TEST.cpp ****     }
 499              		.loc 1 41 9
  41:test/THREAD_JOIN_TEST.cpp ****     }
 500              		.loc 1 41 15 is_stmt 0
 501 0010 93050000 		li	a1,0
 502 0014 97000000 		call	_ZN1B6BodyB1EPv
 502      E7800000 
 503              	.LVL48:
  42:test/THREAD_JOIN_TEST.cpp **** };
 504              		.loc 1 42 5
 505 001c 83308100 		ld	ra,8(sp)
 506              		.cfi_restore 1
 507 0020 03340100 		ld	s0,0(sp)
 508              		.cfi_restore 8
 509              		.cfi_def_cfa 2, 16
 510 0024 13010101 		addi	sp,sp,16
 511              		.cfi_def_cfa_offset 0
 512 0028 67800000 		jr	ra
 513              		.cfi_endproc
GAS LISTING /tmp/ccNmAFvp.s 			page 13


 514              	.LFE54:
 516              		.text
 517              		.align	2
 518              		.globl	_ZN1C6BodyC1EPv
 520              	_ZN1C6BodyC1EPv:
 521              	.LFB61:
 109:test/THREAD_JOIN_TEST.cpp **** 
 110:test/THREAD_JOIN_TEST.cpp **** void C::BodyC1(void *arg) {
 522              		.loc 1 110 27 is_stmt 1
 523              		.cfi_startproc
 524              	.LVL49:
 525 01a0 130101FF 		addi	sp,sp,-16
 526              		.cfi_def_cfa_offset 16
 527 01a4 23348100 		sd	s0,8(sp)
 528              		.cfi_offset 8, -8
 529 01a8 13040101 		addi	s0,sp,16
 530              		.cfi_def_cfa 8, 0
 111:test/THREAD_JOIN_TEST.cpp **** 
 112:test/THREAD_JOIN_TEST.cpp **** 
 113:test/THREAD_JOIN_TEST.cpp **** }
 531              		.loc 1 113 1 is_stmt 0
 532 01ac 03348100 		ld	s0,8(sp)
 533              		.cfi_restore 8
 534              		.cfi_def_cfa 2, 16
 535 01b0 13010101 		addi	sp,sp,16
 536              		.cfi_def_cfa_offset 0
 537 01b4 67800000 		jr	ra
 538              		.cfi_endproc
 539              	.LFE61:
 541              		.section	.rodata.str1.8
 542 0035 000000   		.align	3
 543              	.LC5:
 544 0038 54687265 		.string	"ThreadA created\n"
 544      61644120 
 544      63726561 
 544      7465640A 
 544      00
 545 0049 00000000 		.align	3
 545      000000
 546              	.LC6:
 547 0050 54687265 		.string	"ThreadB created\n"
 547      61644220 
 547      63726561 
 547      7465640A 
 547      00
 548 0061 00000000 		.align	3
 548      000000
 549              	.LC7:
 550 0068 43656B61 		.string	"Cekam A\n"
 550      6D20410A 
 550      00
 551 0071 00000000 		.align	3
 551      000000
 552              	.LC8:
 553 0078 43656B61 		.string	"Cekam B\n"
 553      6D20420A 
 553      00
GAS LISTING /tmp/ccNmAFvp.s 			page 14


 554              		.text
 555              		.align	2
 556              		.globl	_Z11join_threadv
 558              	_Z11join_threadv:
 559              	.LFB62:
 114:test/THREAD_JOIN_TEST.cpp **** 
 115:test/THREAD_JOIN_TEST.cpp **** 
 116:test/THREAD_JOIN_TEST.cpp **** 
 117:test/THREAD_JOIN_TEST.cpp **** 
 118:test/THREAD_JOIN_TEST.cpp **** void join_thread() {
 560              		.loc 1 118 20 is_stmt 1
 561              		.cfi_startproc
 562              		.cfi_personality 0x9b,DW.ref.__gxx_personality_v0
 563              		.cfi_lsda 0x1b,.LLSDA62
 564 01b8 130101FE 		addi	sp,sp,-32
 565              		.cfi_def_cfa_offset 32
 566 01bc 233C1100 		sd	ra,24(sp)
 567 01c0 23388100 		sd	s0,16(sp)
 568 01c4 23349100 		sd	s1,8(sp)
 569 01c8 23302101 		sd	s2,0(sp)
 570              		.cfi_offset 1, -8
 571              		.cfi_offset 8, -16
 572              		.cfi_offset 9, -24
 573              		.cfi_offset 18, -32
 574 01cc 13040102 		addi	s0,sp,32
 575              		.cfi_def_cfa 8, 0
 119:test/THREAD_JOIN_TEST.cpp **** 
 120:test/THREAD_JOIN_TEST.cpp **** 
 121:test/THREAD_JOIN_TEST.cpp ****     threads[0] = new A();
 576              		.loc 1 121 5
 577              		.loc 1 121 24 is_stmt 0
 578 01d0 13050002 		li	a0,32
 579              	.LEHB0:
 580 01d4 97000000 		call	_Znwm@plt
 580      E7800000 
 581              	.LVL50:
 582              	.LEHE0:
 583 01dc 93040500 		mv	s1,a0
 584              	.LVL51:
 585              	.LEHB1:
 586              	.LBB37:
 587              	.LBB38:
  25:test/THREAD_JOIN_TEST.cpp **** 
 588              		.loc 1 25 16
 589 01e0 97000000 		call	_ZN6ThreadC2Ev@plt
 589      E7800000 
 590              	.LVL52:
 591              	.LEHE1:
 592 01e8 97070000 		lla	a5,_ZTV1A+16
 592      93870700 
 593 01f0 23B0F400 		sd	a5,0(s1)
 594              	.LVL53:
 595              	.LBE38:
 596              	.LBE37:
 597              		.loc 1 121 16
 598 01f4 97070000 		sd	s1,.LANCHOR0+8,a5
 598      23B09700 
GAS LISTING /tmp/ccNmAFvp.s 			page 15


 122:test/THREAD_JOIN_TEST.cpp ****     printString("ThreadA created\n");
 599              		.loc 1 122 5 is_stmt 1
 600              		.loc 1 122 16 is_stmt 0
 601 01fc 17050000 		lla	a0,.LC5
 601      13050500 
 602              	.LEHB2:
 603 0204 97000000 		call	_Z11printStringPKc@plt
 603      E7800000 
 604              	.LVL54:
 123:test/THREAD_JOIN_TEST.cpp **** 
 124:test/THREAD_JOIN_TEST.cpp ****     threads[1] = new B();
 605              		.loc 1 124 5 is_stmt 1
 606              		.loc 1 124 24 is_stmt 0
 607 020c 13050002 		li	a0,32
 608 0210 97000000 		call	_Znwm@plt
 608      E7800000 
 609              	.LVL55:
 610              	.LEHE2:
 611 0218 93040500 		mv	s1,a0
 612              	.LVL56:
 613              	.LEHB3:
 614              	.LBB39:
 615              	.LBB40:
  38:test/THREAD_JOIN_TEST.cpp **** 
 616              		.loc 1 38 16
 617 021c 97000000 		call	_ZN6ThreadC2Ev@plt
 617      E7800000 
 618              	.LVL57:
 619              	.LEHE3:
 620 0224 97070000 		lla	a5,_ZTV1B+16
 620      93870700 
 621 022c 23B0F400 		sd	a5,0(s1)
 622              	.LVL58:
 623              	.LBE40:
 624              	.LBE39:
 625              		.loc 1 124 16
 626 0230 97070000 		sd	s1,.LANCHOR0+16,a5
 626      23B09700 
 125:test/THREAD_JOIN_TEST.cpp ****     printString("ThreadB created\n");
 627              		.loc 1 125 5 is_stmt 1
 628              		.loc 1 125 16 is_stmt 0
 629 0238 17050000 		lla	a0,.LC6
 629      13050500 
 630              	.LEHB4:
 631 0240 97000000 		call	_Z11printStringPKc@plt
 631      E7800000 
 632              	.LVL59:
 126:test/THREAD_JOIN_TEST.cpp **** 
 127:test/THREAD_JOIN_TEST.cpp ****     for(int i=0; i<2; i++) {
 633              		.loc 1 127 5 is_stmt 1
 634              	.LBB41:
 635              		.loc 1 127 13 is_stmt 0
 636 0248 93040000 		li	s1,0
 637 024c 6F004002 		j	.L33
 638              	.LVL60:
 639              	.L40:
 128:test/THREAD_JOIN_TEST.cpp ****         threads[i]->start();
GAS LISTING /tmp/ccNmAFvp.s 			page 16


 640              		.loc 1 128 9 is_stmt 1 discriminator 2
 641              		.loc 1 128 18 is_stmt 0 discriminator 2
 642 0250 13973400 		slli	a4,s1,3
 643 0254 97070000 		lla	a5,.LANCHOR0
 643      93870700 
 644 025c B387E700 		add	a5,a5,a4
 645              		.loc 1 128 26 discriminator 2
 646 0260 03B58700 		ld	a0,8(a5)
 647 0264 97000000 		call	_ZN6Thread5startEv@plt
 647      E7800000 
 648              	.LVL61:
 127:test/THREAD_JOIN_TEST.cpp ****         threads[i]->start();
 649              		.loc 1 127 5 is_stmt 1 discriminator 2
 650 026c 9B841400 		addiw	s1,s1,1
 651              	.LVL62:
 652              	.L33:
 127:test/THREAD_JOIN_TEST.cpp ****         threads[i]->start();
 653              		.loc 1 127 19 discriminator 3
 654 0270 93071000 		li	a5,1
 655 0274 E3DE97FC 		ble	s1,a5,.L40
 656              	.LBE41:
 129:test/THREAD_JOIN_TEST.cpp ****     }
 130:test/THREAD_JOIN_TEST.cpp **** 
 131:test/THREAD_JOIN_TEST.cpp ****     printString("Cekam A\n");
 657              		.loc 1 131 5
 658              		.loc 1 131 16 is_stmt 0
 659 0278 17050000 		lla	a0,.LC7
 659      13050500 
 660 0280 97000000 		call	_Z11printStringPKc@plt
 660      E7800000 
 661              	.LVL63:
 132:test/THREAD_JOIN_TEST.cpp ****     threads[0]->join();
 662              		.loc 1 132 5 is_stmt 1
 663              		.loc 1 132 14 is_stmt 0
 664 0288 97040000 		lla	s1,.LANCHOR0
 664      93840400 
 665              	.LVL64:
 666              		.loc 1 132 21
 667 0290 03B58400 		ld	a0,8(s1)
 668 0294 97000000 		call	_ZN6Thread4joinEv@plt
 668      E7800000 
 669              	.LVL65:
 133:test/THREAD_JOIN_TEST.cpp ****     printString("Cekam B\n");
 670              		.loc 1 133 5 is_stmt 1
 671              		.loc 1 133 16 is_stmt 0
 672 029c 17050000 		lla	a0,.LC8
 672      13050500 
 673 02a4 97000000 		call	_Z11printStringPKc@plt
 673      E7800000 
 674              	.LVL66:
 134:test/THREAD_JOIN_TEST.cpp ****     threads[1]->join();
 675              		.loc 1 134 5 is_stmt 1
 676              		.loc 1 134 21 is_stmt 0
 677 02ac 03B50401 		ld	a0,16(s1)
 678 02b0 97000000 		call	_ZN6Thread4joinEv@plt
 678      E7800000 
 679              	.LVL67:
GAS LISTING /tmp/ccNmAFvp.s 			page 17


 135:test/THREAD_JOIN_TEST.cpp **** 
 136:test/THREAD_JOIN_TEST.cpp **** 
 137:test/THREAD_JOIN_TEST.cpp **** }...
 680              		.loc 1 137 1
 681 02b8 83308101 		ld	ra,24(sp)
 682              		.cfi_remember_state
 683              		.cfi_restore 1
 684 02bc 03340101 		ld	s0,16(sp)
 685              		.cfi_restore 8
 686              		.cfi_def_cfa 2, 32
 687 02c0 83348100 		ld	s1,8(sp)
 688              		.cfi_restore 9
 689 02c4 03390100 		ld	s2,0(sp)
 690              		.cfi_restore 18
 691 02c8 13010102 		addi	sp,sp,32
 692              		.cfi_def_cfa_offset 0
 693 02cc 67800000 		jr	ra
 694              	.LVL68:
 695              	.L36:
 696              		.cfi_restore_state
 697 02d0 13090500 		mv	s2,a0
 121:test/THREAD_JOIN_TEST.cpp ****     threads[0] = new A();
 698              		.loc 1 121 24
 699 02d4 13850400 		mv	a0,s1
 700 02d8 97000000 		call	_ZdlPv@plt
 700      E7800000 
 701              	.LVL69:
 702 02e0 13050900 		mv	a0,s2
 703 02e4 97000000 		call	_Unwind_Resume@plt
 703      E7800000 
 704              	.LVL70:
 705              	.L37:
 706 02ec 13090500 		mv	s2,a0
 124:test/THREAD_JOIN_TEST.cpp ****     threads[1] = new B();
 707              		.loc 1 124 24
 708 02f0 13850400 		mv	a0,s1
 709 02f4 97000000 		call	_ZdlPv@plt
 709      E7800000 
 710              	.LVL71:
 711 02fc 13050900 		mv	a0,s2
 712 0300 97000000 		call	_Unwind_Resume@plt
 712      E7800000 
 713              	.LVL72:
 714              	.LEHE4:
 715              		.cfi_endproc
 716              	.LFE62:
 717              		.globl	__gxx_personality_v0
 718              		.section	.gcc_except_table,"a",@progbits
 719              	.LLSDA62:
 720 0000 FF       		.byte	0xff
 721 0001 FF       		.byte	0xff
 722 0002 03       		.byte	0x3
 723 0003 41       		.byte	0x41
 724 0004 00000000 		.4byte	.LEHB0-.LFB62
 725 0008 00000000 		.4byte	.LEHE0-.LEHB0
 726 000c 00000000 		.4byte	0
 727 0010 00       		.byte	0
GAS LISTING /tmp/ccNmAFvp.s 			page 18


 728 0011 00000000 		.4byte	.LEHB1-.LFB62
 729 0015 00000000 		.4byte	.LEHE1-.LEHB1
 730 0019 00000000 		.4byte	.L36-.LFB62
 731 001d 00       		.byte	0
 732 001e 00000000 		.4byte	.LEHB2-.LFB62
 733 0022 00000000 		.4byte	.LEHE2-.LEHB2
 734 0026 00000000 		.4byte	0
 735 002a 00       		.byte	0
 736 002b 00000000 		.4byte	.LEHB3-.LFB62
 737 002f 00000000 		.4byte	.LEHE3-.LEHB3
 738 0033 00000000 		.4byte	.L37-.LFB62
 739 0037 00       		.byte	0
 740 0038 00000000 		.4byte	.LEHB4-.LFB62
 741 003c 00000000 		.4byte	.LEHE4-.LEHB4
 742 0040 00000000 		.4byte	0
 743 0044 00       		.byte	0
 744              		.text
 746              		.weak	_ZTV1A
 747              		.section	.data.rel.ro.local._ZTV1A,"awG",@progbits,_ZTV1A,comdat
 748              		.align	3
 751              	_ZTV1A:
 752 0000 00000000 		.dword	0
 752      00000000 
 753 0008 00000000 		.dword	0
 753      00000000 
 754 0010 00000000 		.dword	_ZN1AD1Ev
 754      00000000 
 755 0018 00000000 		.dword	_ZN1AD0Ev
 755      00000000 
 756 0020 00000000 		.dword	_ZN1A3runEv
 756      00000000 
 757              		.weak	_ZTV1B
 758              		.section	.data.rel.ro.local._ZTV1B,"awG",@progbits,_ZTV1B,comdat
 759              		.align	3
 762              	_ZTV1B:
 763 0000 00000000 		.dword	0
 763      00000000 
 764 0008 00000000 		.dword	0
 764      00000000 
 765 0010 00000000 		.dword	_ZN1BD1Ev
 765      00000000 
 766 0018 00000000 		.dword	_ZN1BD0Ev
 766      00000000 
 767 0020 00000000 		.dword	_ZN1B3runEv
 767      00000000 
 768              		.globl	threads
 769              		.bss
 770              		.align	3
 771              		.set	.LANCHOR0,. + 0
 774              	_ZL9finishedA:
 775 0000 00       		.zero	1
 778              	_ZL9finishedB:
 779 0001 00       		.zero	1
 780 0002 00000000 		.zero	6
 780      0000
 783              	threads:
 784 0008 00000000 		.zero	16
GAS LISTING /tmp/ccNmAFvp.s 			page 19


 784      00000000 
 784      00000000 
 784      00000000 
 787              	_ZL9finishedD:
 788 0018 00       		.zero	1
 791              	_ZL9finishedC:
 792 0019 00       		.zero	1
 793              		.text
 794              	.Letext0:
 795              		.file 2 "test/../h/../lib/hw.h"
 796              		.file 3 "test/../h/syscall_cpp.hpp"
 797              		.file 4 "test/printing.hpp"
 798              		.file 5 "test/../h/syscall_c.hpp"
 3261              		.align	3
 3264              	DW.ref.__gxx_personality_v0:
 3265 0000 00000000 		.dword	__gxx_personality_v0
 3265      00000000 
 3266              		.ident	"GCC: (Ubuntu 9.4.0-1ubuntu1~20.04) 9.4.0"
 3267              		.section	.note.GNU-stack,"",@progbits
GAS LISTING /tmp/ccNmAFvp.s 			page 20


DEFINED SYMBOLS
                            *ABS*:0000000000000000 THREAD_JOIN_TEST.cpp
     /tmp/ccNmAFvp.s:10     .text._ZN1AD2Ev:0000000000000000 _ZN1AD2Ev
     /tmp/ccNmAFvp.s:14     .text._ZN1AD2Ev:0000000000000000 .L0 
     /tmp/ccNmAFvp.s:16     .text._ZN1AD2Ev:0000000000000000 .L0 
     /tmp/ccNmAFvp.s:17     .text._ZN1AD2Ev:0000000000000004 .L0 
     /tmp/ccNmAFvp.s:20     .text._ZN1AD2Ev:000000000000000c .L0 
     /tmp/ccNmAFvp.s:21     .text._ZN1AD2Ev:000000000000000c .L0 
     /tmp/ccNmAFvp.s:23     .text._ZN1AD2Ev:0000000000000010 .L0 
     /tmp/ccNmAFvp.s:751    .data.rel.ro.local._ZTV1A:0000000000000000 _ZTV1A
     /tmp/ccNmAFvp.s:26     .text._ZN1AD2Ev:0000000000000010 .L0 
     /tmp/ccNmAFvp.s:32     .text._ZN1AD2Ev:0000000000000028 .L0 
     /tmp/ccNmAFvp.s:34     .text._ZN1AD2Ev:000000000000002c .L0 
     /tmp/ccNmAFvp.s:35     .text._ZN1AD2Ev:000000000000002c .L0 
     /tmp/ccNmAFvp.s:37     .text._ZN1AD2Ev:0000000000000030 .L0 
     /tmp/ccNmAFvp.s:39     .text._ZN1AD2Ev:0000000000000034 .L0 
     /tmp/ccNmAFvp.s:10     .text._ZN1AD2Ev:0000000000000000 _ZN1AD1Ev
     /tmp/ccNmAFvp.s:48     .text._ZN1AD0Ev:0000000000000000 _ZN1AD0Ev
     /tmp/ccNmAFvp.s:51     .text._ZN1AD0Ev:0000000000000000 .L0 
     /tmp/ccNmAFvp.s:53     .text._ZN1AD0Ev:0000000000000000 .L0 
     /tmp/ccNmAFvp.s:54     .text._ZN1AD0Ev:0000000000000004 .L0 
     /tmp/ccNmAFvp.s:58     .text._ZN1AD0Ev:0000000000000010 .L0 
     /tmp/ccNmAFvp.s:59     .text._ZN1AD0Ev:0000000000000010 .L0 
     /tmp/ccNmAFvp.s:60     .text._ZN1AD0Ev:0000000000000010 .L0 
     /tmp/ccNmAFvp.s:62     .text._ZN1AD0Ev:0000000000000014 .L0 
     /tmp/ccNmAFvp.s:68     .text._ZN1AD0Ev:0000000000000018 .L0 
     /tmp/ccNmAFvp.s:78     .text._ZN1AD0Ev:000000000000003c .L0 
     /tmp/ccNmAFvp.s:80     .text._ZN1AD0Ev:0000000000000040 .L0 
     /tmp/ccNmAFvp.s:81     .text._ZN1AD0Ev:0000000000000040 .L0 
     /tmp/ccNmAFvp.s:83     .text._ZN1AD0Ev:0000000000000044 .L0 
     /tmp/ccNmAFvp.s:86     .text._ZN1AD0Ev:0000000000000048 .L0 
     /tmp/ccNmAFvp.s:88     .text._ZN1AD0Ev:000000000000004c .L0 
     /tmp/ccNmAFvp.s:95     .text._ZN1BD2Ev:0000000000000000 _ZN1BD2Ev
     /tmp/ccNmAFvp.s:98     .text._ZN1BD2Ev:0000000000000000 .L0 
     /tmp/ccNmAFvp.s:100    .text._ZN1BD2Ev:0000000000000000 .L0 
     /tmp/ccNmAFvp.s:101    .text._ZN1BD2Ev:0000000000000004 .L0 
     /tmp/ccNmAFvp.s:104    .text._ZN1BD2Ev:000000000000000c .L0 
     /tmp/ccNmAFvp.s:105    .text._ZN1BD2Ev:000000000000000c .L0 
     /tmp/ccNmAFvp.s:107    .text._ZN1BD2Ev:0000000000000010 .L0 
     /tmp/ccNmAFvp.s:762    .data.rel.ro.local._ZTV1B:0000000000000000 _ZTV1B
     /tmp/ccNmAFvp.s:110    .text._ZN1BD2Ev:0000000000000010 .L0 
     /tmp/ccNmAFvp.s:116    .text._ZN1BD2Ev:0000000000000028 .L0 
     /tmp/ccNmAFvp.s:118    .text._ZN1BD2Ev:000000000000002c .L0 
     /tmp/ccNmAFvp.s:119    .text._ZN1BD2Ev:000000000000002c .L0 
     /tmp/ccNmAFvp.s:121    .text._ZN1BD2Ev:0000000000000030 .L0 
     /tmp/ccNmAFvp.s:123    .text._ZN1BD2Ev:0000000000000034 .L0 
     /tmp/ccNmAFvp.s:95     .text._ZN1BD2Ev:0000000000000000 _ZN1BD1Ev
     /tmp/ccNmAFvp.s:132    .text._ZN1BD0Ev:0000000000000000 _ZN1BD0Ev
     /tmp/ccNmAFvp.s:135    .text._ZN1BD0Ev:0000000000000000 .L0 
     /tmp/ccNmAFvp.s:137    .text._ZN1BD0Ev:0000000000000000 .L0 
     /tmp/ccNmAFvp.s:138    .text._ZN1BD0Ev:0000000000000004 .L0 
     /tmp/ccNmAFvp.s:142    .text._ZN1BD0Ev:0000000000000010 .L0 
     /tmp/ccNmAFvp.s:143    .text._ZN1BD0Ev:0000000000000010 .L0 
     /tmp/ccNmAFvp.s:144    .text._ZN1BD0Ev:0000000000000010 .L0 
     /tmp/ccNmAFvp.s:146    .text._ZN1BD0Ev:0000000000000014 .L0 
     /tmp/ccNmAFvp.s:152    .text._ZN1BD0Ev:0000000000000018 .L0 
     /tmp/ccNmAFvp.s:162    .text._ZN1BD0Ev:000000000000003c .L0 
GAS LISTING /tmp/ccNmAFvp.s 			page 21


     /tmp/ccNmAFvp.s:164    .text._ZN1BD0Ev:0000000000000040 .L0 
     /tmp/ccNmAFvp.s:165    .text._ZN1BD0Ev:0000000000000040 .L0 
     /tmp/ccNmAFvp.s:167    .text._ZN1BD0Ev:0000000000000044 .L0 
     /tmp/ccNmAFvp.s:170    .text._ZN1BD0Ev:0000000000000048 .L0 
     /tmp/ccNmAFvp.s:172    .text._ZN1BD0Ev:000000000000004c .L0 
     /tmp/ccNmAFvp.s:189    .text:0000000000000000 _ZN1A6BodyA1EPv
     /tmp/ccNmAFvp.s:192    .text:0000000000000000 .L0 
     /tmp/ccNmAFvp.s:194    .text:0000000000000000 .L0 
     /tmp/ccNmAFvp.s:195    .text:0000000000000004 .L0 
     /tmp/ccNmAFvp.s:200    .text:0000000000000014 .L0 
     /tmp/ccNmAFvp.s:201    .text:0000000000000014 .L0 
     /tmp/ccNmAFvp.s:202    .text:0000000000000014 .L0 
     /tmp/ccNmAFvp.s:203    .text:0000000000000014 .L0 
     /tmp/ccNmAFvp.s:205    .text:0000000000000018 .L0 
     /tmp/ccNmAFvp.s:209    .text:0000000000000018 .L0 
     /tmp/ccNmAFvp.s:210    .text:0000000000000018 .L0 
     /tmp/ccNmAFvp.s:218    .text:0000000000000020 .L0 
     /tmp/ccNmAFvp.s:219    .text:0000000000000020 .L0 
     /tmp/ccNmAFvp.s:223    .text:0000000000000028 .L0 
     /tmp/ccNmAFvp.s:227    .text:000000000000002c .L0 
     /tmp/ccNmAFvp.s:233    .text:0000000000000038 .L0 
     /tmp/ccNmAFvp.s:237    .text:000000000000003c .L0 
     /tmp/ccNmAFvp.s:241    .text:0000000000000048 .L0 
     /tmp/ccNmAFvp.s:251    .text:0000000000000050 .L0 
     /tmp/ccNmAFvp.s:255    .text:0000000000000054 .L0 
     /tmp/ccNmAFvp.s:259    .text:000000000000005c .L0 
     /tmp/ccNmAFvp.s:260    .text:000000000000005c .L0 
     /tmp/ccNmAFvp.s:264    .text:000000000000006c .L0 
     /tmp/ccNmAFvp.s:265    .text:000000000000006c .L0 
     /tmp/ccNmAFvp.s:271    .text:0000000000000080 .L0 
     /tmp/ccNmAFvp.s:272    .text:0000000000000080 .L0 
     /tmp/ccNmAFvp.s:277    .text:0000000000000090 .L0 
     /tmp/ccNmAFvp.s:278    .text:0000000000000090 .L0 
     /tmp/ccNmAFvp.s:286    .text:0000000000000098 .L0 
     /tmp/ccNmAFvp.s:287    .text:0000000000000098 .L0 
     /tmp/ccNmAFvp.s:291    .text:00000000000000a8 .L0 
     /tmp/ccNmAFvp.s:292    .text:00000000000000a8 .L0 
     /tmp/ccNmAFvp.s:295    .text:00000000000000b4 .L0 
     /tmp/ccNmAFvp.s:296    .text:00000000000000b8 .L0 
     /tmp/ccNmAFvp.s:298    .text:00000000000000bc .L0 
     /tmp/ccNmAFvp.s:299    .text:00000000000000bc .L0 
     /tmp/ccNmAFvp.s:301    .text:00000000000000c0 .L0 
     /tmp/ccNmAFvp.s:303    .text:00000000000000c4 .L0 
     /tmp/ccNmAFvp.s:306    .text:00000000000000c8 .L0 
     /tmp/ccNmAFvp.s:308    .text:00000000000000cc .L0 
     /tmp/ccNmAFvp.s:315    .text._ZN1A3runEv:0000000000000000 _ZN1A3runEv
     /tmp/ccNmAFvp.s:318    .text._ZN1A3runEv:0000000000000000 .L0 
     /tmp/ccNmAFvp.s:320    .text._ZN1A3runEv:0000000000000000 .L0 
     /tmp/ccNmAFvp.s:321    .text._ZN1A3runEv:0000000000000004 .L0 
     /tmp/ccNmAFvp.s:324    .text._ZN1A3runEv:000000000000000c .L0 
     /tmp/ccNmAFvp.s:325    .text._ZN1A3runEv:000000000000000c .L0 
     /tmp/ccNmAFvp.s:327    .text._ZN1A3runEv:0000000000000010 .L0 
     /tmp/ccNmAFvp.s:329    .text._ZN1A3runEv:0000000000000010 .L0 
     /tmp/ccNmAFvp.s:330    .text._ZN1A3runEv:0000000000000010 .L0 
     /tmp/ccNmAFvp.s:334    .text._ZN1A3runEv:000000000000001c .L0 
     /tmp/ccNmAFvp.s:335    .text._ZN1A3runEv:0000000000000020 .L0 
     /tmp/ccNmAFvp.s:337    .text._ZN1A3runEv:0000000000000024 .L0 
GAS LISTING /tmp/ccNmAFvp.s 			page 22


     /tmp/ccNmAFvp.s:338    .text._ZN1A3runEv:0000000000000024 .L0 
     /tmp/ccNmAFvp.s:340    .text._ZN1A3runEv:0000000000000028 .L0 
     /tmp/ccNmAFvp.s:342    .text._ZN1A3runEv:000000000000002c .L0 
     /tmp/ccNmAFvp.s:356    .text:00000000000000cc _ZN1B6BodyB1EPv
     /tmp/ccNmAFvp.s:359    .text:00000000000000cc .L0 
     /tmp/ccNmAFvp.s:361    .text:00000000000000cc .L0 
     /tmp/ccNmAFvp.s:362    .text:00000000000000d0 .L0 
     /tmp/ccNmAFvp.s:367    .text:00000000000000e0 .L0 
     /tmp/ccNmAFvp.s:368    .text:00000000000000e0 .L0 
     /tmp/ccNmAFvp.s:369    .text:00000000000000e0 .L0 
     /tmp/ccNmAFvp.s:370    .text:00000000000000e0 .L0 
     /tmp/ccNmAFvp.s:372    .text:00000000000000e4 .L0 
     /tmp/ccNmAFvp.s:376    .text:00000000000000e4 .L0 
     /tmp/ccNmAFvp.s:377    .text:00000000000000e4 .L0 
     /tmp/ccNmAFvp.s:385    .text:00000000000000ec .L0 
     /tmp/ccNmAFvp.s:386    .text:00000000000000ec .L0 
     /tmp/ccNmAFvp.s:390    .text:00000000000000f4 .L0 
     /tmp/ccNmAFvp.s:394    .text:00000000000000f8 .L0 
     /tmp/ccNmAFvp.s:400    .text:0000000000000104 .L0 
     /tmp/ccNmAFvp.s:404    .text:0000000000000108 .L0 
     /tmp/ccNmAFvp.s:408    .text:0000000000000114 .L0 
     /tmp/ccNmAFvp.s:418    .text:000000000000011c .L0 
     /tmp/ccNmAFvp.s:422    .text:0000000000000120 .L0 
     /tmp/ccNmAFvp.s:426    .text:0000000000000128 .L0 
     /tmp/ccNmAFvp.s:427    .text:0000000000000128 .L0 
     /tmp/ccNmAFvp.s:431    .text:0000000000000138 .L0 
     /tmp/ccNmAFvp.s:432    .text:0000000000000138 .L0 
     /tmp/ccNmAFvp.s:438    .text:000000000000014c .L0 
     /tmp/ccNmAFvp.s:439    .text:000000000000014c .L0 
     /tmp/ccNmAFvp.s:444    .text:000000000000015c .L0 
     /tmp/ccNmAFvp.s:445    .text:000000000000015c .L0 
     /tmp/ccNmAFvp.s:453    .text:0000000000000164 .L0 
     /tmp/ccNmAFvp.s:454    .text:0000000000000164 .L0 
     /tmp/ccNmAFvp.s:458    .text:0000000000000174 .L0 
     /tmp/ccNmAFvp.s:459    .text:0000000000000174 .L0 
     /tmp/ccNmAFvp.s:462    .text:0000000000000180 .L0 
     /tmp/ccNmAFvp.s:463    .text:0000000000000180 .L0 
     /tmp/ccNmAFvp.s:466    .text:0000000000000188 .L0 
     /tmp/ccNmAFvp.s:467    .text:000000000000018c .L0 
     /tmp/ccNmAFvp.s:469    .text:0000000000000190 .L0 
     /tmp/ccNmAFvp.s:470    .text:0000000000000190 .L0 
     /tmp/ccNmAFvp.s:472    .text:0000000000000194 .L0 
     /tmp/ccNmAFvp.s:474    .text:0000000000000198 .L0 
     /tmp/ccNmAFvp.s:477    .text:000000000000019c .L0 
     /tmp/ccNmAFvp.s:479    .text:00000000000001a0 .L0 
     /tmp/ccNmAFvp.s:486    .text._ZN1B3runEv:0000000000000000 _ZN1B3runEv
     /tmp/ccNmAFvp.s:489    .text._ZN1B3runEv:0000000000000000 .L0 
     /tmp/ccNmAFvp.s:491    .text._ZN1B3runEv:0000000000000000 .L0 
     /tmp/ccNmAFvp.s:492    .text._ZN1B3runEv:0000000000000004 .L0 
     /tmp/ccNmAFvp.s:495    .text._ZN1B3runEv:000000000000000c .L0 
     /tmp/ccNmAFvp.s:496    .text._ZN1B3runEv:000000000000000c .L0 
     /tmp/ccNmAFvp.s:498    .text._ZN1B3runEv:0000000000000010 .L0 
     /tmp/ccNmAFvp.s:500    .text._ZN1B3runEv:0000000000000010 .L0 
     /tmp/ccNmAFvp.s:501    .text._ZN1B3runEv:0000000000000010 .L0 
     /tmp/ccNmAFvp.s:505    .text._ZN1B3runEv:000000000000001c .L0 
     /tmp/ccNmAFvp.s:506    .text._ZN1B3runEv:0000000000000020 .L0 
     /tmp/ccNmAFvp.s:508    .text._ZN1B3runEv:0000000000000024 .L0 
GAS LISTING /tmp/ccNmAFvp.s 			page 23


     /tmp/ccNmAFvp.s:509    .text._ZN1B3runEv:0000000000000024 .L0 
     /tmp/ccNmAFvp.s:511    .text._ZN1B3runEv:0000000000000028 .L0 
     /tmp/ccNmAFvp.s:513    .text._ZN1B3runEv:000000000000002c .L0 
     /tmp/ccNmAFvp.s:520    .text:00000000000001a0 _ZN1C6BodyC1EPv
     /tmp/ccNmAFvp.s:523    .text:00000000000001a0 .L0 
     /tmp/ccNmAFvp.s:525    .text:00000000000001a0 .L0 
     /tmp/ccNmAFvp.s:526    .text:00000000000001a4 .L0 
     /tmp/ccNmAFvp.s:528    .text:00000000000001a8 .L0 
     /tmp/ccNmAFvp.s:530    .text:00000000000001ac .L0 
     /tmp/ccNmAFvp.s:532    .text:00000000000001ac .L0 
     /tmp/ccNmAFvp.s:533    .text:00000000000001b0 .L0 
     /tmp/ccNmAFvp.s:534    .text:00000000000001b0 .L0 
     /tmp/ccNmAFvp.s:536    .text:00000000000001b4 .L0 
     /tmp/ccNmAFvp.s:538    .text:00000000000001b8 .L0 
     /tmp/ccNmAFvp.s:558    .text:00000000000001b8 _Z11join_threadv
     /tmp/ccNmAFvp.s:561    .text:00000000000001b8 .L0 
     /tmp/ccNmAFvp.s:3264   .data.rel.local.DW.ref.__gxx_personality_v0:0000000000000000 DW.ref.__gxx_personality_v0
     /tmp/ccNmAFvp.s:564    .text:00000000000001b8 .L0 
     /tmp/ccNmAFvp.s:565    .text:00000000000001bc .L0 
     /tmp/ccNmAFvp.s:570    .text:00000000000001cc .L0 
     /tmp/ccNmAFvp.s:571    .text:00000000000001cc .L0 
     /tmp/ccNmAFvp.s:572    .text:00000000000001cc .L0 
     /tmp/ccNmAFvp.s:573    .text:00000000000001cc .L0 
     /tmp/ccNmAFvp.s:575    .text:00000000000001d0 .L0 
     /tmp/ccNmAFvp.s:577    .text:00000000000001d0 .L0 
     /tmp/ccNmAFvp.s:578    .text:00000000000001d0 .L0 
     /tmp/ccNmAFvp.s:589    .text:00000000000001e0 .L0 
     /tmp/ccNmAFvp.s:598    .text:00000000000001f4 .L0 
     /tmp/ccNmAFvp.s:600    .text:00000000000001fc .L0 
     /tmp/ccNmAFvp.s:601    .text:00000000000001fc .L0 
     /tmp/ccNmAFvp.s:606    .text:000000000000020c .L0 
     /tmp/ccNmAFvp.s:607    .text:000000000000020c .L0 
     /tmp/ccNmAFvp.s:617    .text:000000000000021c .L0 
     /tmp/ccNmAFvp.s:626    .text:0000000000000230 .L0 
     /tmp/ccNmAFvp.s:628    .text:0000000000000238 .L0 
     /tmp/ccNmAFvp.s:629    .text:0000000000000238 .L0 
     /tmp/ccNmAFvp.s:635    .text:0000000000000248 .L0 
     /tmp/ccNmAFvp.s:636    .text:0000000000000248 .L0 
     /tmp/ccNmAFvp.s:641    .text:0000000000000250 .L0 
     /tmp/ccNmAFvp.s:642    .text:0000000000000250 .L0 
     /tmp/ccNmAFvp.s:646    .text:0000000000000260 .L0 
     /tmp/ccNmAFvp.s:650    .text:000000000000026c .L0 
     /tmp/ccNmAFvp.s:654    .text:0000000000000270 .L0 
     /tmp/ccNmAFvp.s:658    .text:0000000000000278 .L0 
     /tmp/ccNmAFvp.s:659    .text:0000000000000278 .L0 
     /tmp/ccNmAFvp.s:663    .text:0000000000000288 .L0 
     /tmp/ccNmAFvp.s:664    .text:0000000000000288 .L0 
     /tmp/ccNmAFvp.s:667    .text:0000000000000290 .L0 
     /tmp/ccNmAFvp.s:671    .text:000000000000029c .L0 
     /tmp/ccNmAFvp.s:672    .text:000000000000029c .L0 
     /tmp/ccNmAFvp.s:676    .text:00000000000002ac .L0 
     /tmp/ccNmAFvp.s:677    .text:00000000000002ac .L0 
     /tmp/ccNmAFvp.s:681    .text:00000000000002b8 .L0 
     /tmp/ccNmAFvp.s:682    .text:00000000000002bc .L0 
     /tmp/ccNmAFvp.s:683    .text:00000000000002bc .L0 
     /tmp/ccNmAFvp.s:685    .text:00000000000002c0 .L0 
     /tmp/ccNmAFvp.s:686    .text:00000000000002c0 .L0 
GAS LISTING /tmp/ccNmAFvp.s 			page 24


     /tmp/ccNmAFvp.s:688    .text:00000000000002c4 .L0 
     /tmp/ccNmAFvp.s:690    .text:00000000000002c8 .L0 
     /tmp/ccNmAFvp.s:692    .text:00000000000002cc .L0 
     /tmp/ccNmAFvp.s:696    .text:00000000000002d0 .L0 
     /tmp/ccNmAFvp.s:699    .text:00000000000002d4 .L0 
     /tmp/ccNmAFvp.s:708    .text:00000000000002f0 .L0 
     /tmp/ccNmAFvp.s:715    .text:0000000000000308 .L0 
     /tmp/ccNmAFvp.s:783    .bss:0000000000000008 threads
     /tmp/ccNmAFvp.s:771    .bss:0000000000000000 .LANCHOR0
     /tmp/ccNmAFvp.s:774    .bss:0000000000000000 _ZL9finishedA
     /tmp/ccNmAFvp.s:778    .bss:0000000000000001 _ZL9finishedB
     /tmp/ccNmAFvp.s:787    .bss:0000000000000018 _ZL9finishedD
     /tmp/ccNmAFvp.s:791    .bss:0000000000000019 _ZL9finishedC
     /tmp/ccNmAFvp.s:44     .text._ZN1AD2Ev:0000000000000034 .L0 
     /tmp/ccNmAFvp.s:91     .text._ZN1AD0Ev:000000000000004c .L0 
     /tmp/ccNmAFvp.s:128    .text._ZN1BD2Ev:0000000000000034 .L0 
     /tmp/ccNmAFvp.s:175    .text._ZN1BD0Ev:000000000000004c .L0 
     /tmp/ccNmAFvp.s:799    .text:0000000000000308 .L0 
     /tmp/ccNmAFvp.s:345    .text._ZN1A3runEv:000000000000002c .L0 
     /tmp/ccNmAFvp.s:516    .text._ZN1B3runEv:000000000000002c .L0 
     /tmp/ccNmAFvp.s:177    .rodata.str1.8:0000000000000000 .LC0
     /tmp/ccNmAFvp.s:260    .text:000000000000005c .L0 
     /tmp/ccNmAFvp.s:180    .rodata.str1.8:0000000000000008 .LC1
     /tmp/ccNmAFvp.s:272    .text:0000000000000080 .L0 
     /tmp/ccNmAFvp.s:183    .rodata.str1.8:0000000000000010 .LC2
     /tmp/ccNmAFvp.s:287    .text:0000000000000098 .L0 
     /tmp/ccNmAFvp.s:293    .text:00000000000000ac .L0 
     /tmp/ccNmAFvp.s:347    .rodata.str1.8:0000000000000020 .LC3
     /tmp/ccNmAFvp.s:427    .text:0000000000000128 .L0 
     /tmp/ccNmAFvp.s:439    .text:000000000000014c .L0 
     /tmp/ccNmAFvp.s:350    .rodata.str1.8:0000000000000028 .LC4
     /tmp/ccNmAFvp.s:454    .text:0000000000000164 .L0 
     /tmp/ccNmAFvp.s:460    .text:0000000000000178 .L0 
     /tmp/ccNmAFvp.s:592    .text:00000000000001e8 .L0 
     /tmp/ccNmAFvp.s:598    .text:00000000000001f4 .L0 
     /tmp/ccNmAFvp.s:543    .rodata.str1.8:0000000000000038 .LC5
     /tmp/ccNmAFvp.s:601    .text:00000000000001fc .L0 
     /tmp/ccNmAFvp.s:620    .text:0000000000000224 .L0 
     /tmp/ccNmAFvp.s:626    .text:0000000000000230 .L0 
     /tmp/ccNmAFvp.s:546    .rodata.str1.8:0000000000000050 .LC6
     /tmp/ccNmAFvp.s:629    .text:0000000000000238 .L0 
     /tmp/ccNmAFvp.s:643    .text:0000000000000254 .L0 
     /tmp/ccNmAFvp.s:549    .rodata.str1.8:0000000000000068 .LC7
     /tmp/ccNmAFvp.s:659    .text:0000000000000278 .L0 
     /tmp/ccNmAFvp.s:664    .text:0000000000000288 .L0 
     /tmp/ccNmAFvp.s:552    .rodata.str1.8:0000000000000078 .LC8
     /tmp/ccNmAFvp.s:672    .text:000000000000029c .L0 
     /tmp/ccNmAFvp.s:253    .text:0000000000000054 .L15
     /tmp/ccNmAFvp.s:245    .text:0000000000000050 .L11
     /tmp/ccNmAFvp.s:213    .text:0000000000000020 .L12
     /tmp/ccNmAFvp.s:234    .text:000000000000003c .L13
     /tmp/ccNmAFvp.s:281    .text:0000000000000098 .L10
     /tmp/ccNmAFvp.s:225    .text:000000000000002c .L14
     /tmp/ccNmAFvp.s:420    .text:0000000000000120 .L25
     /tmp/ccNmAFvp.s:412    .text:000000000000011c .L21
     /tmp/ccNmAFvp.s:380    .text:00000000000000ec .L22
     /tmp/ccNmAFvp.s:401    .text:0000000000000108 .L23
GAS LISTING /tmp/ccNmAFvp.s 			page 25


     /tmp/ccNmAFvp.s:448    .text:0000000000000164 .L20
     /tmp/ccNmAFvp.s:392    .text:00000000000000f8 .L24
     /tmp/ccNmAFvp.s:652    .text:0000000000000270 .L33
     /tmp/ccNmAFvp.s:639    .text:0000000000000250 .L40
     /tmp/ccNmAFvp.s:26     .text._ZN1AD2Ev:0000000000000010 .L0 
     /tmp/ccNmAFvp.s:68     .text._ZN1AD0Ev:0000000000000018 .L0 
     /tmp/ccNmAFvp.s:110    .text._ZN1BD2Ev:0000000000000010 .L0 
     /tmp/ccNmAFvp.s:152    .text._ZN1BD0Ev:0000000000000018 .L0 
     /tmp/ccNmAFvp.s:579    .text:00000000000001d4 .LEHB0
     /tmp/ccNmAFvp.s:559    .text:00000000000001b8 .LFB62
     /tmp/ccNmAFvp.s:582    .text:00000000000001dc .LEHE0
     /tmp/ccNmAFvp.s:585    .text:00000000000001e0 .LEHB1
     /tmp/ccNmAFvp.s:591    .text:00000000000001e8 .LEHE1
     /tmp/ccNmAFvp.s:695    .text:00000000000002d0 .L36
     /tmp/ccNmAFvp.s:602    .text:0000000000000204 .LEHB2
     /tmp/ccNmAFvp.s:610    .text:0000000000000218 .LEHE2
     /tmp/ccNmAFvp.s:613    .text:000000000000021c .LEHB3
     /tmp/ccNmAFvp.s:619    .text:0000000000000224 .LEHE3
     /tmp/ccNmAFvp.s:705    .text:00000000000002ec .L37
     /tmp/ccNmAFvp.s:630    .text:0000000000000240 .LEHB4
     /tmp/ccNmAFvp.s:714    .text:0000000000000308 .LEHE4
     /tmp/ccNmAFvp.s:2028   .debug_abbrev:0000000000000000 .Ldebug_abbrev0
     /tmp/ccNmAFvp.s:3232   .debug_str:000000000000031c .LASF65
     /tmp/ccNmAFvp.s:3196   .debug_str:0000000000000217 .LASF66
     /tmp/ccNmAFvp.s:3214   .debug_str:0000000000000286 .LASF67
     /tmp/ccNmAFvp.s:3080   .debug_ranges:0000000000000000 .Ldebug_ranges0
     /tmp/ccNmAFvp.s:3110   .debug_line:0000000000000000 .Ldebug_line0
     /tmp/ccNmAFvp.s:3160   .debug_str:0000000000000135 .LASF0
     /tmp/ccNmAFvp.s:3172   .debug_str:0000000000000187 .LASF1
     /tmp/ccNmAFvp.s:3202   .debug_str:000000000000024b .LASF2
     /tmp/ccNmAFvp.s:3206   .debug_str:0000000000000263 .LASF4
     /tmp/ccNmAFvp.s:3166   .debug_str:0000000000000156 .LASF3
     /tmp/ccNmAFvp.s:3120   .debug_str:0000000000000034 .LASF5
     /tmp/ccNmAFvp.s:3188   .debug_str:00000000000001df .LASF6
     /tmp/ccNmAFvp.s:3168   .debug_str:0000000000000168 .LASF7
     /tmp/ccNmAFvp.s:3148   .debug_str:00000000000000e7 .LASF8
     /tmp/ccNmAFvp.s:3152   .debug_str:000000000000010f .LASF9
     /tmp/ccNmAFvp.s:3132   .debug_str:0000000000000082 .LASF10
     /tmp/ccNmAFvp.s:3144   .debug_str:00000000000000d3 .LASF11
     /tmp/ccNmAFvp.s:3134   .debug_str:0000000000000091 .LASF12
     /tmp/ccNmAFvp.s:3130   .debug_str:0000000000000072 .LASF13
     /tmp/ccNmAFvp.s:3224   .debug_str:00000000000002f5 .LASF14
     /tmp/ccNmAFvp.s:3138   .debug_str:00000000000000a8 .LASF15
     /tmp/ccNmAFvp.s:3218   .debug_str:00000000000002c2 .LASF16
     /tmp/ccNmAFvp.s:3178   .debug_str:00000000000001b3 .LASF17
     /tmp/ccNmAFvp.s:3226   .debug_str:0000000000000301 .LASF18
     /tmp/ccNmAFvp.s:3204   .debug_str:0000000000000259 .LASF19
     /tmp/ccNmAFvp.s:3180   .debug_str:00000000000001b8 .LASF20
     /tmp/ccNmAFvp.s:3208   .debug_str:000000000000026a .LASF21
     /tmp/ccNmAFvp.s:3210   .debug_str:0000000000000274 .LASF22
     /tmp/ccNmAFvp.s:3158   .debug_str:000000000000012e .LASF68
     /tmp/ccNmAFvp.s:3116   .debug_str:0000000000000017 .LASF23
     /tmp/ccNmAFvp.s:3248   .debug_str:000000000000043b .LASF25
     /tmp/ccNmAFvp.s:3192   .debug_str:00000000000001fb .LASF24
     /tmp/ccNmAFvp.s:3230   .debug_str:0000000000000317 .LASF26
     /tmp/ccNmAFvp.s:3212   .debug_str:000000000000027e .LASF27
     /tmp/ccNmAFvp.s:3154   .debug_str:000000000000011d .LASF28
GAS LISTING /tmp/ccNmAFvp.s 			page 26


     /tmp/ccNmAFvp.s:3252   .debug_str:000000000000044b .LASF32
     /tmp/ccNmAFvp.s:3256   .debug_str:0000000000000468 .LASF34
     /tmp/ccNmAFvp.s:3176   .debug_str:00000000000001a7 .LASF36
     /tmp/ccNmAFvp.s:3238   .debug_str:00000000000003fa .LASF38
     /tmp/ccNmAFvp.s:3126   .debug_str:000000000000005c .LASF29
     /tmp/ccNmAFvp.s:3174   .debug_str:000000000000019a .LASF30
     /tmp/ccNmAFvp.s:3136   .debug_str:00000000000000a1 .LASF31
     /tmp/ccNmAFvp.s:3240   .debug_str:0000000000000404 .LASF33
     /tmp/ccNmAFvp.s:3164   .debug_str:000000000000014c .LASF35
     /tmp/ccNmAFvp.s:3242   .debug_str:0000000000000414 .LASF37
     /tmp/ccNmAFvp.s:3156   .debug_str:0000000000000124 .LASF39
     /tmp/ccNmAFvp.s:3186   .debug_str:00000000000001d3 .LASF40
     /tmp/ccNmAFvp.s:3216   .debug_str:00000000000002b5 .LASF41
     /tmp/ccNmAFvp.s:3114   .debug_str:0000000000000010 .LASF42
     /tmp/ccNmAFvp.s:3234   .debug_str:00000000000003e0 .LASF43
     /tmp/ccNmAFvp.s:3220   .debug_str:00000000000002d8 .LASF44
     /tmp/ccNmAFvp.s:3170   .debug_str:000000000000017b .LASF45
     /tmp/ccNmAFvp.s:3198   .debug_str:0000000000000231 .LASF46
     /tmp/ccNmAFvp.s:3146   .debug_str:00000000000000e2 .LASF47
     /tmp/ccNmAFvp.s:3118   .debug_str:000000000000002a .LASF48
     /tmp/ccNmAFvp.s:3162   .debug_str:0000000000000142 .LASF49
     /tmp/ccNmAFvp.s:49     .text._ZN1AD0Ev:0000000000000000 .LFB74
     /tmp/ccNmAFvp.s:89     .text._ZN1AD0Ev:000000000000004c .LFE74
     /tmp/ccNmAFvp.s:2781   .debug_loc:0000000000000000 .LLST1
     /tmp/ccNmAFvp.s:65     .text._ZN1AD0Ev:0000000000000018 .LBB16
     /tmp/ccNmAFvp.s:73     .text._ZN1AD0Ev:000000000000002c .LBE16
     /tmp/ccNmAFvp.s:2799   .debug_loc:000000000000004c .LLST2
     /tmp/ccNmAFvp.s:71     .text._ZN1AD0Ev:000000000000002c .LVL4
     /tmp/ccNmAFvp.s:76     .text._ZN1AD0Ev:0000000000000038 .LVL5
     /tmp/ccNmAFvp.s:3182   .debug_str:00000000000001c2 .LASF50
     /tmp/ccNmAFvp.s:11     .text._ZN1AD2Ev:0000000000000000 .LFB72
     /tmp/ccNmAFvp.s:40     .text._ZN1AD2Ev:0000000000000034 .LFE72
     /tmp/ccNmAFvp.s:2810   .debug_loc:0000000000000082 .LLST0
     /tmp/ccNmAFvp.s:29     .text._ZN1AD2Ev:0000000000000024 .LVL1
     /tmp/ccNmAFvp.s:3250   .debug_str:0000000000000441 .LASF51
     /tmp/ccNmAFvp.s:133    .text._ZN1BD0Ev:0000000000000000 .LFB70
     /tmp/ccNmAFvp.s:173    .text._ZN1BD0Ev:000000000000004c .LFE70
     /tmp/ccNmAFvp.s:2824   .debug_loc:00000000000000bb .LLST4
     /tmp/ccNmAFvp.s:149    .text._ZN1BD0Ev:0000000000000018 .LBB19
     /tmp/ccNmAFvp.s:157    .text._ZN1BD0Ev:000000000000002c .LBE19
     /tmp/ccNmAFvp.s:2842   .debug_loc:0000000000000107 .LLST5
     /tmp/ccNmAFvp.s:155    .text._ZN1BD0Ev:000000000000002c .LVL11
     /tmp/ccNmAFvp.s:160    .text._ZN1BD0Ev:0000000000000038 .LVL12
     /tmp/ccNmAFvp.s:3194   .debug_str:000000000000020d .LASF52
     /tmp/ccNmAFvp.s:96     .text._ZN1BD2Ev:0000000000000000 .LFB68
     /tmp/ccNmAFvp.s:124    .text._ZN1BD2Ev:0000000000000034 .LFE68
     /tmp/ccNmAFvp.s:2853   .debug_loc:000000000000013d .LLST3
     /tmp/ccNmAFvp.s:113    .text._ZN1BD2Ev:0000000000000024 .LVL8
     /tmp/ccNmAFvp.s:3122   .debug_str:000000000000003b .LASF69
     /tmp/ccNmAFvp.s:3228   .debug_str:0000000000000306 .LASF70
     /tmp/ccNmAFvp.s:716    .text:0000000000000308 .LFE62
     /tmp/ccNmAFvp.s:634    .text:0000000000000248 .LBB41
     /tmp/ccNmAFvp.s:656    .text:0000000000000278 .LBE41
     /tmp/ccNmAFvp.s:2867   .debug_loc:0000000000000176 .LLST20
     /tmp/ccNmAFvp.s:648    .text:000000000000026c .LVL61
     /tmp/ccNmAFvp.s:586    .text:00000000000001e0 .LBB37
     /tmp/ccNmAFvp.s:596    .text:00000000000001f4 .LBE37
GAS LISTING /tmp/ccNmAFvp.s 			page 27


     /tmp/ccNmAFvp.s:2879   .debug_loc:00000000000001ad .LLST18
     /tmp/ccNmAFvp.s:590    .text:00000000000001e8 .LVL52
     /tmp/ccNmAFvp.s:614    .text:000000000000021c .LBB39
     /tmp/ccNmAFvp.s:624    .text:0000000000000230 .LBE39
     /tmp/ccNmAFvp.s:2890   .debug_loc:00000000000001e3 .LLST19
     /tmp/ccNmAFvp.s:618    .text:0000000000000224 .LVL57
     /tmp/ccNmAFvp.s:581    .text:00000000000001dc .LVL50
     /tmp/ccNmAFvp.s:604    .text:000000000000020c .LVL54
     /tmp/ccNmAFvp.s:609    .text:0000000000000218 .LVL55
     /tmp/ccNmAFvp.s:632    .text:0000000000000248 .LVL59
     /tmp/ccNmAFvp.s:661    .text:0000000000000288 .LVL63
     /tmp/ccNmAFvp.s:669    .text:000000000000029c .LVL65
     /tmp/ccNmAFvp.s:674    .text:00000000000002ac .LVL66
     /tmp/ccNmAFvp.s:679    .text:00000000000002b8 .LVL67
     /tmp/ccNmAFvp.s:701    .text:00000000000002e0 .LVL69
     /tmp/ccNmAFvp.s:704    .text:00000000000002ec .LVL70
     /tmp/ccNmAFvp.s:710    .text:00000000000002fc .LVL71
     /tmp/ccNmAFvp.s:713    .text:0000000000000308 .LVL72
     /tmp/ccNmAFvp.s:521    .text:00000000000001a0 .LFB61
     /tmp/ccNmAFvp.s:539    .text:00000000000001b8 .LFE61
     /tmp/ccNmAFvp.s:357    .text:00000000000000cc .LFB60
     /tmp/ccNmAFvp.s:480    .text:00000000000001a0 .LFE60
     /tmp/ccNmAFvp.s:2901   .debug_loc:0000000000000219 .LLST12
     /tmp/ccNmAFvp.s:2915   .debug_loc:0000000000000252 .LLST13
     /tmp/ccNmAFvp.s:375    .text:00000000000000e4 .LBB29
     /tmp/ccNmAFvp.s:451    .text:0000000000000164 .LBE29
     /tmp/ccNmAFvp.s:2929   .debug_loc:000000000000028b .LLST14
     /tmp/ccNmAFvp.s:2941   .debug_loc:00000000000002c2 .LLST15
     /tmp/ccNmAFvp.s:398    .text:0000000000000104 .LBB33
     /tmp/ccNmAFvp.s:413    .text:000000000000011c .LBE33
     /tmp/ccNmAFvp.s:2953   .debug_loc:00000000000002f9 .LLST16
     /tmp/ccNmAFvp.s:387    .text:00000000000000f4 .LVL34
     /tmp/ccNmAFvp.s:429    .text:0000000000000138 .LVL40
     /tmp/ccNmAFvp.s:436    .text:000000000000014c .LVL41
     /tmp/ccNmAFvp.s:441    .text:000000000000015c .LVL42
     /tmp/ccNmAFvp.s:456    .text:0000000000000174 .LVL44
     /tmp/ccNmAFvp.s:464    .text:0000000000000188 .LVL45
     /tmp/ccNmAFvp.s:190    .text:0000000000000000 .LFB59
     /tmp/ccNmAFvp.s:309    .text:00000000000000cc .LFE59
     /tmp/ccNmAFvp.s:2964   .debug_loc:000000000000032f .LLST6
     /tmp/ccNmAFvp.s:2978   .debug_loc:0000000000000368 .LLST7
     /tmp/ccNmAFvp.s:208    .text:0000000000000018 .LBB21
     /tmp/ccNmAFvp.s:284    .text:0000000000000098 .LBE21
     /tmp/ccNmAFvp.s:2992   .debug_loc:00000000000003a1 .LLST8
     /tmp/ccNmAFvp.s:3004   .debug_loc:00000000000003d8 .LLST9
     /tmp/ccNmAFvp.s:231    .text:0000000000000038 .LBB25
     /tmp/ccNmAFvp.s:246    .text:0000000000000050 .LBE25
     /tmp/ccNmAFvp.s:3016   .debug_loc:000000000000040f .LLST10
     /tmp/ccNmAFvp.s:220    .text:0000000000000028 .LVL17
     /tmp/ccNmAFvp.s:262    .text:000000000000006c .LVL23
     /tmp/ccNmAFvp.s:269    .text:0000000000000080 .LVL24
     /tmp/ccNmAFvp.s:274    .text:0000000000000090 .LVL25
     /tmp/ccNmAFvp.s:289    .text:00000000000000a8 .LVL27
     /tmp/ccNmAFvp.s:487    .text._ZN1B3runEv:0000000000000000 .LFB54
     /tmp/ccNmAFvp.s:514    .text._ZN1B3runEv:000000000000002c .LFE54
     /tmp/ccNmAFvp.s:3027   .debug_loc:0000000000000445 .LLST17
     /tmp/ccNmAFvp.s:503    .text._ZN1B3runEv:000000000000001c .LVL48
GAS LISTING /tmp/ccNmAFvp.s 			page 28


     /tmp/ccNmAFvp.s:3236   .debug_str:00000000000003f0 .LASF53
     /tmp/ccNmAFvp.s:316    .text._ZN1A3runEv:0000000000000000 .LFB50
     /tmp/ccNmAFvp.s:343    .text._ZN1A3runEv:000000000000002c .LFE50
     /tmp/ccNmAFvp.s:3041   .debug_loc:000000000000047e .LLST11
     /tmp/ccNmAFvp.s:332    .text._ZN1A3runEv:000000000000001c .LVL30
     /tmp/ccNmAFvp.s:3128   .debug_str:0000000000000068 .LASF54
     /tmp/ccNmAFvp.s:3184   .debug_str:00000000000001cc .LASF55
     /tmp/ccNmAFvp.s:3112   .debug_str:0000000000000000 .LASF56
     /tmp/ccNmAFvp.s:3142   .debug_str:00000000000000cd .LASF57
     /tmp/ccNmAFvp.s:3254   .debug_str:000000000000045b .LASF58
     /tmp/ccNmAFvp.s:3222   .debug_str:00000000000002e2 .LASF59
     /tmp/ccNmAFvp.s:3244   .debug_str:0000000000000420 .LASF60
     /tmp/ccNmAFvp.s:3246   .debug_str:000000000000042c .LASF71
     /tmp/ccNmAFvp.s:3150   .debug_str:00000000000000f7 .LASF72
     /tmp/ccNmAFvp.s:3124   .debug_str:0000000000000047 .LASF61
     /tmp/ccNmAFvp.s:3200   .debug_str:000000000000023b .LASF62
     /tmp/ccNmAFvp.s:3140   .debug_str:00000000000000be .LASF63
     /tmp/ccNmAFvp.s:3190   .debug_str:00000000000001f2 .LASF64
     /tmp/ccNmAFvp.s:52     .text._ZN1AD0Ev:0000000000000000 .LVL2
     /tmp/ccNmAFvp.s:84     .text._ZN1AD0Ev:0000000000000044 .LVL6
     /tmp/ccNmAFvp.s:64     .text._ZN1AD0Ev:0000000000000018 .LVL3
     /tmp/ccNmAFvp.s:15     .text._ZN1AD2Ev:0000000000000000 .LVL0
     /tmp/ccNmAFvp.s:136    .text._ZN1BD0Ev:0000000000000000 .LVL9
     /tmp/ccNmAFvp.s:168    .text._ZN1BD0Ev:0000000000000044 .LVL13
     /tmp/ccNmAFvp.s:148    .text._ZN1BD0Ev:0000000000000018 .LVL10
     /tmp/ccNmAFvp.s:99     .text._ZN1BD2Ev:0000000000000000 .LVL7
     /tmp/ccNmAFvp.s:638    .text:0000000000000250 .LVL60
     /tmp/ccNmAFvp.s:665    .text:0000000000000290 .LVL64
     /tmp/ccNmAFvp.s:584    .text:00000000000001e0 .LVL51
     /tmp/ccNmAFvp.s:594    .text:00000000000001f4 .LVL53
     /tmp/ccNmAFvp.s:694    .text:00000000000002d0 .LVL68
     /tmp/ccNmAFvp.s:612    .text:000000000000021c .LVL56
     /tmp/ccNmAFvp.s:622    .text:0000000000000230 .LVL58
     /tmp/ccNmAFvp.s:360    .text:00000000000000cc .LVL31
     /tmp/ccNmAFvp.s:379    .text:00000000000000ec .LVL33
     /tmp/ccNmAFvp.s:374    .text:00000000000000e4 .LVL32
     /tmp/ccNmAFvp.s:475    .text:0000000000000198 .LVL46
     /tmp/ccNmAFvp.s:419    .text:0000000000000120 .LVL39
     /tmp/ccNmAFvp.s:447    .text:0000000000000164 .LVL43
     /tmp/ccNmAFvp.s:402    .text:0000000000000108 .LVL36
     /tmp/ccNmAFvp.s:411    .text:000000000000011c .LVL38
     /tmp/ccNmAFvp.s:193    .text:0000000000000000 .LVL14
     /tmp/ccNmAFvp.s:212    .text:0000000000000020 .LVL16
     /tmp/ccNmAFvp.s:207    .text:0000000000000018 .LVL15
     /tmp/ccNmAFvp.s:304    .text:00000000000000c4 .LVL28
     /tmp/ccNmAFvp.s:252    .text:0000000000000054 .LVL22
     /tmp/ccNmAFvp.s:280    .text:0000000000000098 .LVL26
     /tmp/ccNmAFvp.s:235    .text:000000000000003c .LVL19
     /tmp/ccNmAFvp.s:244    .text:0000000000000050 .LVL21
     /tmp/ccNmAFvp.s:490    .text._ZN1B3runEv:0000000000000000 .LVL47
     /tmp/ccNmAFvp.s:319    .text._ZN1A3runEv:0000000000000000 .LVL29
     /tmp/ccNmAFvp.s:800    .debug_info:0000000000000000 .Ldebug_info0
     /tmp/ccNmAFvp.s:5      .text:0000000000000000 .Ltext0
     /tmp/ccNmAFvp.s:794    .text:0000000000000308 .Letext0
     /tmp/ccNmAFvp.s:215    .text:0000000000000020 .LBB23
     /tmp/ccNmAFvp.s:248    .text:0000000000000050 .LBE23
     /tmp/ccNmAFvp.s:276    .text:0000000000000090 .LBB27
GAS LISTING /tmp/ccNmAFvp.s 			page 29


     /tmp/ccNmAFvp.s:282    .text:0000000000000098 .LBE27
     /tmp/ccNmAFvp.s:382    .text:00000000000000ec .LBB31
     /tmp/ccNmAFvp.s:415    .text:000000000000011c .LBE31
     /tmp/ccNmAFvp.s:443    .text:000000000000015c .LBB35
     /tmp/ccNmAFvp.s:449    .text:0000000000000164 .LBE35
     /tmp/ccNmAFvp.s:719    .gcc_except_table:0000000000000000 .LLSDA62
                           .group:0000000000000000 _ZN1AD5Ev
                           .group:0000000000000000 _ZN1BD5Ev

UNDEFINED SYMBOLS
_ZN6ThreadD2Ev
_ZdlPv
_Z15thread_dispatchv
_Z11printStringPKc
_Z8printIntiii
_Znwm
_ZN6ThreadC2Ev
_ZN6Thread5startEv
_ZN6Thread4joinEv
_Unwind_Resume
__gxx_personality_v0
